
BP_Vibrato.elf:     file format elf32-littlearm

Sections:
Idx Name          Size      VMA       LMA       File off  Algn
  0 .isr_vector   00000198  08000000  08000000  00010000  2**0
                  CONTENTS, ALLOC, LOAD, READONLY, DATA
  1 .text         00003c14  08000198  08000198  00010198  2**3
                  CONTENTS, ALLOC, LOAD, READONLY, CODE
  2 .rodata       00000048  08003dac  08003dac  00013dac  2**2
                  CONTENTS, ALLOC, LOAD, READONLY, DATA
  3 .ARM          00000008  08003df4  08003df4  00013df4  2**2
                  CONTENTS, ALLOC, LOAD, READONLY, DATA
  4 .init_array   00000004  08003dfc  08003dfc  00013dfc  2**2
                  CONTENTS, ALLOC, LOAD, DATA
  5 .fini_array   00000004  08003e00  08003e00  00013e00  2**2
                  CONTENTS, ALLOC, LOAD, DATA
  6 .data         0000007c  20000000  08003e04  00020000  2**2
                  CONTENTS, ALLOC, LOAD, DATA
  7 .bss          00001118  2000007c  08003e80  0002007c  2**2
                  ALLOC
  8 ._user_heap_stack 00000604  20001194  08003e80  00021194  2**0
                  ALLOC
  9 .ARM.attributes 00000030  00000000  00000000  0002007c  2**0
                  CONTENTS, READONLY
 10 .debug_info   0000e978  00000000  00000000  000200ac  2**0
                  CONTENTS, READONLY, DEBUGGING
 11 .debug_abbrev 0000262e  00000000  00000000  0002ea24  2**0
                  CONTENTS, READONLY, DEBUGGING
 12 .debug_loc    0000514b  00000000  00000000  00031052  2**0
                  CONTENTS, READONLY, DEBUGGING
 13 .debug_aranges 000008f8  00000000  00000000  000361a0  2**3
                  CONTENTS, READONLY, DEBUGGING
 14 .debug_ranges 000008d0  00000000  00000000  00036a98  2**3
                  CONTENTS, READONLY, DEBUGGING
 15 .debug_macro  00016b6b  00000000  00000000  00037368  2**0
                  CONTENTS, READONLY, DEBUGGING
 16 .debug_line   0000a002  00000000  00000000  0004ded3  2**0
                  CONTENTS, READONLY, DEBUGGING
 17 .debug_str    00086a23  00000000  00000000  00057ed5  2**0
                  CONTENTS, READONLY, DEBUGGING
 18 .comment      0000007b  00000000  00000000  000de8f8  2**0
                  CONTENTS, READONLY
 19 .debug_frame  00001998  00000000  00000000  000de974  2**2
                  CONTENTS, READONLY, DEBUGGING

Disassembly of section .text:

08000198 <__do_global_dtors_aux>:
 8000198:	b510      	push	{r4, lr}
 800019a:	4c05      	ldr	r4, [pc, #20]	; (80001b0 <__do_global_dtors_aux+0x18>)
 800019c:	7823      	ldrb	r3, [r4, #0]
 800019e:	b933      	cbnz	r3, 80001ae <__do_global_dtors_aux+0x16>
 80001a0:	4b04      	ldr	r3, [pc, #16]	; (80001b4 <__do_global_dtors_aux+0x1c>)
 80001a2:	b113      	cbz	r3, 80001aa <__do_global_dtors_aux+0x12>
 80001a4:	4804      	ldr	r0, [pc, #16]	; (80001b8 <__do_global_dtors_aux+0x20>)
 80001a6:	f3af 8000 	nop.w
 80001aa:	2301      	movs	r3, #1
 80001ac:	7023      	strb	r3, [r4, #0]
 80001ae:	bd10      	pop	{r4, pc}
 80001b0:	2000007c 	.word	0x2000007c
 80001b4:	00000000 	.word	0x00000000
 80001b8:	08003d94 	.word	0x08003d94

080001bc <frame_dummy>:
 80001bc:	b508      	push	{r3, lr}
 80001be:	4b03      	ldr	r3, [pc, #12]	; (80001cc <frame_dummy+0x10>)
 80001c0:	b11b      	cbz	r3, 80001ca <frame_dummy+0xe>
 80001c2:	4903      	ldr	r1, [pc, #12]	; (80001d0 <frame_dummy+0x14>)
 80001c4:	4803      	ldr	r0, [pc, #12]	; (80001d4 <frame_dummy+0x18>)
 80001c6:	f3af 8000 	nop.w
 80001ca:	bd08      	pop	{r3, pc}
 80001cc:	00000000 	.word	0x00000000
 80001d0:	20000080 	.word	0x20000080
 80001d4:	08003d94 	.word	0x08003d94

080001d8 <__aeabi_drsub>:
 80001d8:	f081 4100 	eor.w	r1, r1, #2147483648	; 0x80000000
 80001dc:	e002      	b.n	80001e4 <__adddf3>
 80001de:	bf00      	nop

080001e0 <__aeabi_dsub>:
 80001e0:	f083 4300 	eor.w	r3, r3, #2147483648	; 0x80000000

080001e4 <__adddf3>:
 80001e4:	b530      	push	{r4, r5, lr}
 80001e6:	ea4f 0441 	mov.w	r4, r1, lsl #1
 80001ea:	ea4f 0543 	mov.w	r5, r3, lsl #1
 80001ee:	ea94 0f05 	teq	r4, r5
 80001f2:	bf08      	it	eq
 80001f4:	ea90 0f02 	teqeq	r0, r2
 80001f8:	bf1f      	itttt	ne
 80001fa:	ea54 0c00 	orrsne.w	ip, r4, r0
 80001fe:	ea55 0c02 	orrsne.w	ip, r5, r2
 8000202:	ea7f 5c64 	mvnsne.w	ip, r4, asr #21
 8000206:	ea7f 5c65 	mvnsne.w	ip, r5, asr #21
 800020a:	f000 80e2 	beq.w	80003d2 <__adddf3+0x1ee>
 800020e:	ea4f 5454 	mov.w	r4, r4, lsr #21
 8000212:	ebd4 5555 	rsbs	r5, r4, r5, lsr #21
 8000216:	bfb8      	it	lt
 8000218:	426d      	neglt	r5, r5
 800021a:	dd0c      	ble.n	8000236 <__adddf3+0x52>
 800021c:	442c      	add	r4, r5
 800021e:	ea80 0202 	eor.w	r2, r0, r2
 8000222:	ea81 0303 	eor.w	r3, r1, r3
 8000226:	ea82 0000 	eor.w	r0, r2, r0
 800022a:	ea83 0101 	eor.w	r1, r3, r1
 800022e:	ea80 0202 	eor.w	r2, r0, r2
 8000232:	ea81 0303 	eor.w	r3, r1, r3
 8000236:	2d36      	cmp	r5, #54	; 0x36
 8000238:	bf88      	it	hi
 800023a:	bd30      	pophi	{r4, r5, pc}
 800023c:	f011 4f00 	tst.w	r1, #2147483648	; 0x80000000
 8000240:	ea4f 3101 	mov.w	r1, r1, lsl #12
 8000244:	f44f 1c80 	mov.w	ip, #1048576	; 0x100000
 8000248:	ea4c 3111 	orr.w	r1, ip, r1, lsr #12
 800024c:	d002      	beq.n	8000254 <__adddf3+0x70>
 800024e:	4240      	negs	r0, r0
 8000250:	eb61 0141 	sbc.w	r1, r1, r1, lsl #1
 8000254:	f013 4f00 	tst.w	r3, #2147483648	; 0x80000000
 8000258:	ea4f 3303 	mov.w	r3, r3, lsl #12
 800025c:	ea4c 3313 	orr.w	r3, ip, r3, lsr #12
 8000260:	d002      	beq.n	8000268 <__adddf3+0x84>
 8000262:	4252      	negs	r2, r2
 8000264:	eb63 0343 	sbc.w	r3, r3, r3, lsl #1
 8000268:	ea94 0f05 	teq	r4, r5
 800026c:	f000 80a7 	beq.w	80003be <__adddf3+0x1da>
 8000270:	f1a4 0401 	sub.w	r4, r4, #1
 8000274:	f1d5 0e20 	rsbs	lr, r5, #32
 8000278:	db0d      	blt.n	8000296 <__adddf3+0xb2>
 800027a:	fa02 fc0e 	lsl.w	ip, r2, lr
 800027e:	fa22 f205 	lsr.w	r2, r2, r5
 8000282:	1880      	adds	r0, r0, r2
 8000284:	f141 0100 	adc.w	r1, r1, #0
 8000288:	fa03 f20e 	lsl.w	r2, r3, lr
 800028c:	1880      	adds	r0, r0, r2
 800028e:	fa43 f305 	asr.w	r3, r3, r5
 8000292:	4159      	adcs	r1, r3
 8000294:	e00e      	b.n	80002b4 <__adddf3+0xd0>
 8000296:	f1a5 0520 	sub.w	r5, r5, #32
 800029a:	f10e 0e20 	add.w	lr, lr, #32
 800029e:	2a01      	cmp	r2, #1
 80002a0:	fa03 fc0e 	lsl.w	ip, r3, lr
 80002a4:	bf28      	it	cs
 80002a6:	f04c 0c02 	orrcs.w	ip, ip, #2
 80002aa:	fa43 f305 	asr.w	r3, r3, r5
 80002ae:	18c0      	adds	r0, r0, r3
 80002b0:	eb51 71e3 	adcs.w	r1, r1, r3, asr #31
 80002b4:	f001 4500 	and.w	r5, r1, #2147483648	; 0x80000000
 80002b8:	d507      	bpl.n	80002ca <__adddf3+0xe6>
 80002ba:	f04f 0e00 	mov.w	lr, #0
 80002be:	f1dc 0c00 	rsbs	ip, ip, #0
 80002c2:	eb7e 0000 	sbcs.w	r0, lr, r0
 80002c6:	eb6e 0101 	sbc.w	r1, lr, r1
 80002ca:	f5b1 1f80 	cmp.w	r1, #1048576	; 0x100000
 80002ce:	d31b      	bcc.n	8000308 <__adddf3+0x124>
 80002d0:	f5b1 1f00 	cmp.w	r1, #2097152	; 0x200000
 80002d4:	d30c      	bcc.n	80002f0 <__adddf3+0x10c>
 80002d6:	0849      	lsrs	r1, r1, #1
 80002d8:	ea5f 0030 	movs.w	r0, r0, rrx
 80002dc:	ea4f 0c3c 	mov.w	ip, ip, rrx
 80002e0:	f104 0401 	add.w	r4, r4, #1
 80002e4:	ea4f 5244 	mov.w	r2, r4, lsl #21
 80002e8:	f512 0f80 	cmn.w	r2, #4194304	; 0x400000
 80002ec:	f080 809a 	bcs.w	8000424 <__adddf3+0x240>
 80002f0:	f1bc 4f00 	cmp.w	ip, #2147483648	; 0x80000000
 80002f4:	bf08      	it	eq
 80002f6:	ea5f 0c50 	movseq.w	ip, r0, lsr #1
 80002fa:	f150 0000 	adcs.w	r0, r0, #0
 80002fe:	eb41 5104 	adc.w	r1, r1, r4, lsl #20
 8000302:	ea41 0105 	orr.w	r1, r1, r5
 8000306:	bd30      	pop	{r4, r5, pc}
 8000308:	ea5f 0c4c 	movs.w	ip, ip, lsl #1
 800030c:	4140      	adcs	r0, r0
 800030e:	eb41 0101 	adc.w	r1, r1, r1
 8000312:	f411 1f80 	tst.w	r1, #1048576	; 0x100000
 8000316:	f1a4 0401 	sub.w	r4, r4, #1
 800031a:	d1e9      	bne.n	80002f0 <__adddf3+0x10c>
 800031c:	f091 0f00 	teq	r1, #0
 8000320:	bf04      	itt	eq
 8000322:	4601      	moveq	r1, r0
 8000324:	2000      	moveq	r0, #0
 8000326:	fab1 f381 	clz	r3, r1
 800032a:	bf08      	it	eq
 800032c:	3320      	addeq	r3, #32
 800032e:	f1a3 030b 	sub.w	r3, r3, #11
 8000332:	f1b3 0220 	subs.w	r2, r3, #32
 8000336:	da0c      	bge.n	8000352 <__adddf3+0x16e>
 8000338:	320c      	adds	r2, #12
 800033a:	dd08      	ble.n	800034e <__adddf3+0x16a>
 800033c:	f102 0c14 	add.w	ip, r2, #20
 8000340:	f1c2 020c 	rsb	r2, r2, #12
 8000344:	fa01 f00c 	lsl.w	r0, r1, ip
 8000348:	fa21 f102 	lsr.w	r1, r1, r2
 800034c:	e00c      	b.n	8000368 <__adddf3+0x184>
 800034e:	f102 0214 	add.w	r2, r2, #20
 8000352:	bfd8      	it	le
 8000354:	f1c2 0c20 	rsble	ip, r2, #32
 8000358:	fa01 f102 	lsl.w	r1, r1, r2
 800035c:	fa20 fc0c 	lsr.w	ip, r0, ip
 8000360:	bfdc      	itt	le
 8000362:	ea41 010c 	orrle.w	r1, r1, ip
 8000366:	4090      	lslle	r0, r2
 8000368:	1ae4      	subs	r4, r4, r3
 800036a:	bfa2      	ittt	ge
 800036c:	eb01 5104 	addge.w	r1, r1, r4, lsl #20
 8000370:	4329      	orrge	r1, r5
 8000372:	bd30      	popge	{r4, r5, pc}
 8000374:	ea6f 0404 	mvn.w	r4, r4
 8000378:	3c1f      	subs	r4, #31
 800037a:	da1c      	bge.n	80003b6 <__adddf3+0x1d2>
 800037c:	340c      	adds	r4, #12
 800037e:	dc0e      	bgt.n	800039e <__adddf3+0x1ba>
 8000380:	f104 0414 	add.w	r4, r4, #20
 8000384:	f1c4 0220 	rsb	r2, r4, #32
 8000388:	fa20 f004 	lsr.w	r0, r0, r4
 800038c:	fa01 f302 	lsl.w	r3, r1, r2
 8000390:	ea40 0003 	orr.w	r0, r0, r3
 8000394:	fa21 f304 	lsr.w	r3, r1, r4
 8000398:	ea45 0103 	orr.w	r1, r5, r3
 800039c:	bd30      	pop	{r4, r5, pc}
 800039e:	f1c4 040c 	rsb	r4, r4, #12
 80003a2:	f1c4 0220 	rsb	r2, r4, #32
 80003a6:	fa20 f002 	lsr.w	r0, r0, r2
 80003aa:	fa01 f304 	lsl.w	r3, r1, r4
 80003ae:	ea40 0003 	orr.w	r0, r0, r3
 80003b2:	4629      	mov	r1, r5
 80003b4:	bd30      	pop	{r4, r5, pc}
 80003b6:	fa21 f004 	lsr.w	r0, r1, r4
 80003ba:	4629      	mov	r1, r5
 80003bc:	bd30      	pop	{r4, r5, pc}
 80003be:	f094 0f00 	teq	r4, #0
 80003c2:	f483 1380 	eor.w	r3, r3, #1048576	; 0x100000
 80003c6:	bf06      	itte	eq
 80003c8:	f481 1180 	eoreq.w	r1, r1, #1048576	; 0x100000
 80003cc:	3401      	addeq	r4, #1
 80003ce:	3d01      	subne	r5, #1
 80003d0:	e74e      	b.n	8000270 <__adddf3+0x8c>
 80003d2:	ea7f 5c64 	mvns.w	ip, r4, asr #21
 80003d6:	bf18      	it	ne
 80003d8:	ea7f 5c65 	mvnsne.w	ip, r5, asr #21
 80003dc:	d029      	beq.n	8000432 <__adddf3+0x24e>
 80003de:	ea94 0f05 	teq	r4, r5
 80003e2:	bf08      	it	eq
 80003e4:	ea90 0f02 	teqeq	r0, r2
 80003e8:	d005      	beq.n	80003f6 <__adddf3+0x212>
 80003ea:	ea54 0c00 	orrs.w	ip, r4, r0
 80003ee:	bf04      	itt	eq
 80003f0:	4619      	moveq	r1, r3
 80003f2:	4610      	moveq	r0, r2
 80003f4:	bd30      	pop	{r4, r5, pc}
 80003f6:	ea91 0f03 	teq	r1, r3
 80003fa:	bf1e      	ittt	ne
 80003fc:	2100      	movne	r1, #0
 80003fe:	2000      	movne	r0, #0
 8000400:	bd30      	popne	{r4, r5, pc}
 8000402:	ea5f 5c54 	movs.w	ip, r4, lsr #21
 8000406:	d105      	bne.n	8000414 <__adddf3+0x230>
 8000408:	0040      	lsls	r0, r0, #1
 800040a:	4149      	adcs	r1, r1
 800040c:	bf28      	it	cs
 800040e:	f041 4100 	orrcs.w	r1, r1, #2147483648	; 0x80000000
 8000412:	bd30      	pop	{r4, r5, pc}
 8000414:	f514 0480 	adds.w	r4, r4, #4194304	; 0x400000
 8000418:	bf3c      	itt	cc
 800041a:	f501 1180 	addcc.w	r1, r1, #1048576	; 0x100000
 800041e:	bd30      	popcc	{r4, r5, pc}
 8000420:	f001 4500 	and.w	r5, r1, #2147483648	; 0x80000000
 8000424:	f045 41fe 	orr.w	r1, r5, #2130706432	; 0x7f000000
 8000428:	f441 0170 	orr.w	r1, r1, #15728640	; 0xf00000
 800042c:	f04f 0000 	mov.w	r0, #0
 8000430:	bd30      	pop	{r4, r5, pc}
 8000432:	ea7f 5c64 	mvns.w	ip, r4, asr #21
 8000436:	bf1a      	itte	ne
 8000438:	4619      	movne	r1, r3
 800043a:	4610      	movne	r0, r2
 800043c:	ea7f 5c65 	mvnseq.w	ip, r5, asr #21
 8000440:	bf1c      	itt	ne
 8000442:	460b      	movne	r3, r1
 8000444:	4602      	movne	r2, r0
 8000446:	ea50 3401 	orrs.w	r4, r0, r1, lsl #12
 800044a:	bf06      	itte	eq
 800044c:	ea52 3503 	orrseq.w	r5, r2, r3, lsl #12
 8000450:	ea91 0f03 	teqeq	r1, r3
 8000454:	f441 2100 	orrne.w	r1, r1, #524288	; 0x80000
 8000458:	bd30      	pop	{r4, r5, pc}
 800045a:	bf00      	nop

0800045c <__aeabi_ui2d>:
 800045c:	f090 0f00 	teq	r0, #0
 8000460:	bf04      	itt	eq
 8000462:	2100      	moveq	r1, #0
 8000464:	4770      	bxeq	lr
 8000466:	b530      	push	{r4, r5, lr}
 8000468:	f44f 6480 	mov.w	r4, #1024	; 0x400
 800046c:	f104 0432 	add.w	r4, r4, #50	; 0x32
 8000470:	f04f 0500 	mov.w	r5, #0
 8000474:	f04f 0100 	mov.w	r1, #0
 8000478:	e750      	b.n	800031c <__adddf3+0x138>
 800047a:	bf00      	nop

0800047c <__aeabi_i2d>:
 800047c:	f090 0f00 	teq	r0, #0
 8000480:	bf04      	itt	eq
 8000482:	2100      	moveq	r1, #0
 8000484:	4770      	bxeq	lr
 8000486:	b530      	push	{r4, r5, lr}
 8000488:	f44f 6480 	mov.w	r4, #1024	; 0x400
 800048c:	f104 0432 	add.w	r4, r4, #50	; 0x32
 8000490:	f010 4500 	ands.w	r5, r0, #2147483648	; 0x80000000
 8000494:	bf48      	it	mi
 8000496:	4240      	negmi	r0, r0
 8000498:	f04f 0100 	mov.w	r1, #0
 800049c:	e73e      	b.n	800031c <__adddf3+0x138>
 800049e:	bf00      	nop

080004a0 <__aeabi_f2d>:
 80004a0:	0042      	lsls	r2, r0, #1
 80004a2:	ea4f 01e2 	mov.w	r1, r2, asr #3
 80004a6:	ea4f 0131 	mov.w	r1, r1, rrx
 80004aa:	ea4f 7002 	mov.w	r0, r2, lsl #28
 80004ae:	bf1f      	itttt	ne
 80004b0:	f012 437f 	andsne.w	r3, r2, #4278190080	; 0xff000000
 80004b4:	f093 4f7f 	teqne	r3, #4278190080	; 0xff000000
 80004b8:	f081 5160 	eorne.w	r1, r1, #939524096	; 0x38000000
 80004bc:	4770      	bxne	lr
 80004be:	f032 427f 	bics.w	r2, r2, #4278190080	; 0xff000000
 80004c2:	bf08      	it	eq
 80004c4:	4770      	bxeq	lr
 80004c6:	f093 4f7f 	teq	r3, #4278190080	; 0xff000000
 80004ca:	bf04      	itt	eq
 80004cc:	f441 2100 	orreq.w	r1, r1, #524288	; 0x80000
 80004d0:	4770      	bxeq	lr
 80004d2:	b530      	push	{r4, r5, lr}
 80004d4:	f44f 7460 	mov.w	r4, #896	; 0x380
 80004d8:	f001 4500 	and.w	r5, r1, #2147483648	; 0x80000000
 80004dc:	f021 4100 	bic.w	r1, r1, #2147483648	; 0x80000000
 80004e0:	e71c      	b.n	800031c <__adddf3+0x138>
 80004e2:	bf00      	nop

080004e4 <__aeabi_ul2d>:
 80004e4:	ea50 0201 	orrs.w	r2, r0, r1
 80004e8:	bf08      	it	eq
 80004ea:	4770      	bxeq	lr
 80004ec:	b530      	push	{r4, r5, lr}
 80004ee:	f04f 0500 	mov.w	r5, #0
 80004f2:	e00a      	b.n	800050a <__aeabi_l2d+0x16>

080004f4 <__aeabi_l2d>:
 80004f4:	ea50 0201 	orrs.w	r2, r0, r1
 80004f8:	bf08      	it	eq
 80004fa:	4770      	bxeq	lr
 80004fc:	b530      	push	{r4, r5, lr}
 80004fe:	f011 4500 	ands.w	r5, r1, #2147483648	; 0x80000000
 8000502:	d502      	bpl.n	800050a <__aeabi_l2d+0x16>
 8000504:	4240      	negs	r0, r0
 8000506:	eb61 0141 	sbc.w	r1, r1, r1, lsl #1
 800050a:	f44f 6480 	mov.w	r4, #1024	; 0x400
 800050e:	f104 0432 	add.w	r4, r4, #50	; 0x32
 8000512:	ea5f 5c91 	movs.w	ip, r1, lsr #22
 8000516:	f43f aed8 	beq.w	80002ca <__adddf3+0xe6>
 800051a:	f04f 0203 	mov.w	r2, #3
 800051e:	ea5f 0cdc 	movs.w	ip, ip, lsr #3
 8000522:	bf18      	it	ne
 8000524:	3203      	addne	r2, #3
 8000526:	ea5f 0cdc 	movs.w	ip, ip, lsr #3
 800052a:	bf18      	it	ne
 800052c:	3203      	addne	r2, #3
 800052e:	eb02 02dc 	add.w	r2, r2, ip, lsr #3
 8000532:	f1c2 0320 	rsb	r3, r2, #32
 8000536:	fa00 fc03 	lsl.w	ip, r0, r3
 800053a:	fa20 f002 	lsr.w	r0, r0, r2
 800053e:	fa01 fe03 	lsl.w	lr, r1, r3
 8000542:	ea40 000e 	orr.w	r0, r0, lr
 8000546:	fa21 f102 	lsr.w	r1, r1, r2
 800054a:	4414      	add	r4, r2
 800054c:	e6bd      	b.n	80002ca <__adddf3+0xe6>
 800054e:	bf00      	nop

08000550 <__aeabi_dmul>:
 8000550:	b570      	push	{r4, r5, r6, lr}
 8000552:	f04f 0cff 	mov.w	ip, #255	; 0xff
 8000556:	f44c 6ce0 	orr.w	ip, ip, #1792	; 0x700
 800055a:	ea1c 5411 	ands.w	r4, ip, r1, lsr #20
 800055e:	bf1d      	ittte	ne
 8000560:	ea1c 5513 	andsne.w	r5, ip, r3, lsr #20
 8000564:	ea94 0f0c 	teqne	r4, ip
 8000568:	ea95 0f0c 	teqne	r5, ip
 800056c:	f000 f8de 	bleq	800072c <__aeabi_dmul+0x1dc>
 8000570:	442c      	add	r4, r5
 8000572:	ea81 0603 	eor.w	r6, r1, r3
 8000576:	ea21 514c 	bic.w	r1, r1, ip, lsl #21
 800057a:	ea23 534c 	bic.w	r3, r3, ip, lsl #21
 800057e:	ea50 3501 	orrs.w	r5, r0, r1, lsl #12
 8000582:	bf18      	it	ne
 8000584:	ea52 3503 	orrsne.w	r5, r2, r3, lsl #12
 8000588:	f441 1180 	orr.w	r1, r1, #1048576	; 0x100000
 800058c:	f443 1380 	orr.w	r3, r3, #1048576	; 0x100000
 8000590:	d038      	beq.n	8000604 <__aeabi_dmul+0xb4>
 8000592:	fba0 ce02 	umull	ip, lr, r0, r2
 8000596:	f04f 0500 	mov.w	r5, #0
 800059a:	fbe1 e502 	umlal	lr, r5, r1, r2
 800059e:	f006 4200 	and.w	r2, r6, #2147483648	; 0x80000000
 80005a2:	fbe0 e503 	umlal	lr, r5, r0, r3
 80005a6:	f04f 0600 	mov.w	r6, #0
 80005aa:	fbe1 5603 	umlal	r5, r6, r1, r3
 80005ae:	f09c 0f00 	teq	ip, #0
 80005b2:	bf18      	it	ne
 80005b4:	f04e 0e01 	orrne.w	lr, lr, #1
 80005b8:	f1a4 04ff 	sub.w	r4, r4, #255	; 0xff
 80005bc:	f5b6 7f00 	cmp.w	r6, #512	; 0x200
 80005c0:	f564 7440 	sbc.w	r4, r4, #768	; 0x300
 80005c4:	d204      	bcs.n	80005d0 <__aeabi_dmul+0x80>
 80005c6:	ea5f 0e4e 	movs.w	lr, lr, lsl #1
 80005ca:	416d      	adcs	r5, r5
 80005cc:	eb46 0606 	adc.w	r6, r6, r6
 80005d0:	ea42 21c6 	orr.w	r1, r2, r6, lsl #11
 80005d4:	ea41 5155 	orr.w	r1, r1, r5, lsr #21
 80005d8:	ea4f 20c5 	mov.w	r0, r5, lsl #11
 80005dc:	ea40 505e 	orr.w	r0, r0, lr, lsr #21
 80005e0:	ea4f 2ece 	mov.w	lr, lr, lsl #11
 80005e4:	f1b4 0cfd 	subs.w	ip, r4, #253	; 0xfd
 80005e8:	bf88      	it	hi
 80005ea:	f5bc 6fe0 	cmphi.w	ip, #1792	; 0x700
 80005ee:	d81e      	bhi.n	800062e <__aeabi_dmul+0xde>
 80005f0:	f1be 4f00 	cmp.w	lr, #2147483648	; 0x80000000
 80005f4:	bf08      	it	eq
 80005f6:	ea5f 0e50 	movseq.w	lr, r0, lsr #1
 80005fa:	f150 0000 	adcs.w	r0, r0, #0
 80005fe:	eb41 5104 	adc.w	r1, r1, r4, lsl #20
 8000602:	bd70      	pop	{r4, r5, r6, pc}
 8000604:	f006 4600 	and.w	r6, r6, #2147483648	; 0x80000000
 8000608:	ea46 0101 	orr.w	r1, r6, r1
 800060c:	ea40 0002 	orr.w	r0, r0, r2
 8000610:	ea81 0103 	eor.w	r1, r1, r3
 8000614:	ebb4 045c 	subs.w	r4, r4, ip, lsr #1
 8000618:	bfc2      	ittt	gt
 800061a:	ebd4 050c 	rsbsgt	r5, r4, ip
 800061e:	ea41 5104 	orrgt.w	r1, r1, r4, lsl #20
 8000622:	bd70      	popgt	{r4, r5, r6, pc}
 8000624:	f441 1180 	orr.w	r1, r1, #1048576	; 0x100000
 8000628:	f04f 0e00 	mov.w	lr, #0
 800062c:	3c01      	subs	r4, #1
 800062e:	f300 80ab 	bgt.w	8000788 <__aeabi_dmul+0x238>
 8000632:	f114 0f36 	cmn.w	r4, #54	; 0x36
 8000636:	bfde      	ittt	le
 8000638:	2000      	movle	r0, #0
 800063a:	f001 4100 	andle.w	r1, r1, #2147483648	; 0x80000000
 800063e:	bd70      	pople	{r4, r5, r6, pc}
 8000640:	f1c4 0400 	rsb	r4, r4, #0
 8000644:	3c20      	subs	r4, #32
 8000646:	da35      	bge.n	80006b4 <__aeabi_dmul+0x164>
 8000648:	340c      	adds	r4, #12
 800064a:	dc1b      	bgt.n	8000684 <__aeabi_dmul+0x134>
 800064c:	f104 0414 	add.w	r4, r4, #20
 8000650:	f1c4 0520 	rsb	r5, r4, #32
 8000654:	fa00 f305 	lsl.w	r3, r0, r5
 8000658:	fa20 f004 	lsr.w	r0, r0, r4
 800065c:	fa01 f205 	lsl.w	r2, r1, r5
 8000660:	ea40 0002 	orr.w	r0, r0, r2
 8000664:	f001 4200 	and.w	r2, r1, #2147483648	; 0x80000000
 8000668:	f021 4100 	bic.w	r1, r1, #2147483648	; 0x80000000
 800066c:	eb10 70d3 	adds.w	r0, r0, r3, lsr #31
 8000670:	fa21 f604 	lsr.w	r6, r1, r4
 8000674:	eb42 0106 	adc.w	r1, r2, r6
 8000678:	ea5e 0e43 	orrs.w	lr, lr, r3, lsl #1
 800067c:	bf08      	it	eq
 800067e:	ea20 70d3 	biceq.w	r0, r0, r3, lsr #31
 8000682:	bd70      	pop	{r4, r5, r6, pc}
 8000684:	f1c4 040c 	rsb	r4, r4, #12
 8000688:	f1c4 0520 	rsb	r5, r4, #32
 800068c:	fa00 f304 	lsl.w	r3, r0, r4
 8000690:	fa20 f005 	lsr.w	r0, r0, r5
 8000694:	fa01 f204 	lsl.w	r2, r1, r4
 8000698:	ea40 0002 	orr.w	r0, r0, r2
 800069c:	f001 4100 	and.w	r1, r1, #2147483648	; 0x80000000
 80006a0:	eb10 70d3 	adds.w	r0, r0, r3, lsr #31
 80006a4:	f141 0100 	adc.w	r1, r1, #0
 80006a8:	ea5e 0e43 	orrs.w	lr, lr, r3, lsl #1
 80006ac:	bf08      	it	eq
 80006ae:	ea20 70d3 	biceq.w	r0, r0, r3, lsr #31
 80006b2:	bd70      	pop	{r4, r5, r6, pc}
 80006b4:	f1c4 0520 	rsb	r5, r4, #32
 80006b8:	fa00 f205 	lsl.w	r2, r0, r5
 80006bc:	ea4e 0e02 	orr.w	lr, lr, r2
 80006c0:	fa20 f304 	lsr.w	r3, r0, r4
 80006c4:	fa01 f205 	lsl.w	r2, r1, r5
 80006c8:	ea43 0302 	orr.w	r3, r3, r2
 80006cc:	fa21 f004 	lsr.w	r0, r1, r4
 80006d0:	f001 4100 	and.w	r1, r1, #2147483648	; 0x80000000
 80006d4:	fa21 f204 	lsr.w	r2, r1, r4
 80006d8:	ea20 0002 	bic.w	r0, r0, r2
 80006dc:	eb00 70d3 	add.w	r0, r0, r3, lsr #31
 80006e0:	ea5e 0e43 	orrs.w	lr, lr, r3, lsl #1
 80006e4:	bf08      	it	eq
 80006e6:	ea20 70d3 	biceq.w	r0, r0, r3, lsr #31
 80006ea:	bd70      	pop	{r4, r5, r6, pc}
 80006ec:	f094 0f00 	teq	r4, #0
 80006f0:	d10f      	bne.n	8000712 <__aeabi_dmul+0x1c2>
 80006f2:	f001 4600 	and.w	r6, r1, #2147483648	; 0x80000000
 80006f6:	0040      	lsls	r0, r0, #1
 80006f8:	eb41 0101 	adc.w	r1, r1, r1
 80006fc:	f411 1f80 	tst.w	r1, #1048576	; 0x100000
 8000700:	bf08      	it	eq
 8000702:	3c01      	subeq	r4, #1
 8000704:	d0f7      	beq.n	80006f6 <__aeabi_dmul+0x1a6>
 8000706:	ea41 0106 	orr.w	r1, r1, r6
 800070a:	f095 0f00 	teq	r5, #0
 800070e:	bf18      	it	ne
 8000710:	4770      	bxne	lr
 8000712:	f003 4600 	and.w	r6, r3, #2147483648	; 0x80000000
 8000716:	0052      	lsls	r2, r2, #1
 8000718:	eb43 0303 	adc.w	r3, r3, r3
 800071c:	f413 1f80 	tst.w	r3, #1048576	; 0x100000
 8000720:	bf08      	it	eq
 8000722:	3d01      	subeq	r5, #1
 8000724:	d0f7      	beq.n	8000716 <__aeabi_dmul+0x1c6>
 8000726:	ea43 0306 	orr.w	r3, r3, r6
 800072a:	4770      	bx	lr
 800072c:	ea94 0f0c 	teq	r4, ip
 8000730:	ea0c 5513 	and.w	r5, ip, r3, lsr #20
 8000734:	bf18      	it	ne
 8000736:	ea95 0f0c 	teqne	r5, ip
 800073a:	d00c      	beq.n	8000756 <__aeabi_dmul+0x206>
 800073c:	ea50 0641 	orrs.w	r6, r0, r1, lsl #1
 8000740:	bf18      	it	ne
 8000742:	ea52 0643 	orrsne.w	r6, r2, r3, lsl #1
 8000746:	d1d1      	bne.n	80006ec <__aeabi_dmul+0x19c>
 8000748:	ea81 0103 	eor.w	r1, r1, r3
 800074c:	f001 4100 	and.w	r1, r1, #2147483648	; 0x80000000
 8000750:	f04f 0000 	mov.w	r0, #0
 8000754:	bd70      	pop	{r4, r5, r6, pc}
 8000756:	ea50 0641 	orrs.w	r6, r0, r1, lsl #1
 800075a:	bf06      	itte	eq
 800075c:	4610      	moveq	r0, r2
 800075e:	4619      	moveq	r1, r3
 8000760:	ea52 0643 	orrsne.w	r6, r2, r3, lsl #1
 8000764:	d019      	beq.n	800079a <__aeabi_dmul+0x24a>
 8000766:	ea94 0f0c 	teq	r4, ip
 800076a:	d102      	bne.n	8000772 <__aeabi_dmul+0x222>
 800076c:	ea50 3601 	orrs.w	r6, r0, r1, lsl #12
 8000770:	d113      	bne.n	800079a <__aeabi_dmul+0x24a>
 8000772:	ea95 0f0c 	teq	r5, ip
 8000776:	d105      	bne.n	8000784 <__aeabi_dmul+0x234>
 8000778:	ea52 3603 	orrs.w	r6, r2, r3, lsl #12
 800077c:	bf1c      	itt	ne
 800077e:	4610      	movne	r0, r2
 8000780:	4619      	movne	r1, r3
 8000782:	d10a      	bne.n	800079a <__aeabi_dmul+0x24a>
 8000784:	ea81 0103 	eor.w	r1, r1, r3
 8000788:	f001 4100 	and.w	r1, r1, #2147483648	; 0x80000000
 800078c:	f041 41fe 	orr.w	r1, r1, #2130706432	; 0x7f000000
 8000790:	f441 0170 	orr.w	r1, r1, #15728640	; 0xf00000
 8000794:	f04f 0000 	mov.w	r0, #0
 8000798:	bd70      	pop	{r4, r5, r6, pc}
 800079a:	f041 41fe 	orr.w	r1, r1, #2130706432	; 0x7f000000
 800079e:	f441 0178 	orr.w	r1, r1, #16252928	; 0xf80000
 80007a2:	bd70      	pop	{r4, r5, r6, pc}

080007a4 <__aeabi_ddiv>:
 80007a4:	b570      	push	{r4, r5, r6, lr}
 80007a6:	f04f 0cff 	mov.w	ip, #255	; 0xff
 80007aa:	f44c 6ce0 	orr.w	ip, ip, #1792	; 0x700
 80007ae:	ea1c 5411 	ands.w	r4, ip, r1, lsr #20
 80007b2:	bf1d      	ittte	ne
 80007b4:	ea1c 5513 	andsne.w	r5, ip, r3, lsr #20
 80007b8:	ea94 0f0c 	teqne	r4, ip
 80007bc:	ea95 0f0c 	teqne	r5, ip
 80007c0:	f000 f8a7 	bleq	8000912 <__aeabi_ddiv+0x16e>
 80007c4:	eba4 0405 	sub.w	r4, r4, r5
 80007c8:	ea81 0e03 	eor.w	lr, r1, r3
 80007cc:	ea52 3503 	orrs.w	r5, r2, r3, lsl #12
 80007d0:	ea4f 3101 	mov.w	r1, r1, lsl #12
 80007d4:	f000 8088 	beq.w	80008e8 <__aeabi_ddiv+0x144>
 80007d8:	ea4f 3303 	mov.w	r3, r3, lsl #12
 80007dc:	f04f 5580 	mov.w	r5, #268435456	; 0x10000000
 80007e0:	ea45 1313 	orr.w	r3, r5, r3, lsr #4
 80007e4:	ea43 6312 	orr.w	r3, r3, r2, lsr #24
 80007e8:	ea4f 2202 	mov.w	r2, r2, lsl #8
 80007ec:	ea45 1511 	orr.w	r5, r5, r1, lsr #4
 80007f0:	ea45 6510 	orr.w	r5, r5, r0, lsr #24
 80007f4:	ea4f 2600 	mov.w	r6, r0, lsl #8
 80007f8:	f00e 4100 	and.w	r1, lr, #2147483648	; 0x80000000
 80007fc:	429d      	cmp	r5, r3
 80007fe:	bf08      	it	eq
 8000800:	4296      	cmpeq	r6, r2
 8000802:	f144 04fd 	adc.w	r4, r4, #253	; 0xfd
 8000806:	f504 7440 	add.w	r4, r4, #768	; 0x300
 800080a:	d202      	bcs.n	8000812 <__aeabi_ddiv+0x6e>
 800080c:	085b      	lsrs	r3, r3, #1
 800080e:	ea4f 0232 	mov.w	r2, r2, rrx
 8000812:	1ab6      	subs	r6, r6, r2
 8000814:	eb65 0503 	sbc.w	r5, r5, r3
 8000818:	085b      	lsrs	r3, r3, #1
 800081a:	ea4f 0232 	mov.w	r2, r2, rrx
 800081e:	f44f 1080 	mov.w	r0, #1048576	; 0x100000
 8000822:	f44f 2c00 	mov.w	ip, #524288	; 0x80000
 8000826:	ebb6 0e02 	subs.w	lr, r6, r2
 800082a:	eb75 0e03 	sbcs.w	lr, r5, r3
 800082e:	bf22      	ittt	cs
 8000830:	1ab6      	subcs	r6, r6, r2
 8000832:	4675      	movcs	r5, lr
 8000834:	ea40 000c 	orrcs.w	r0, r0, ip
 8000838:	085b      	lsrs	r3, r3, #1
 800083a:	ea4f 0232 	mov.w	r2, r2, rrx
 800083e:	ebb6 0e02 	subs.w	lr, r6, r2
 8000842:	eb75 0e03 	sbcs.w	lr, r5, r3
 8000846:	bf22      	ittt	cs
 8000848:	1ab6      	subcs	r6, r6, r2
 800084a:	4675      	movcs	r5, lr
 800084c:	ea40 005c 	orrcs.w	r0, r0, ip, lsr #1
 8000850:	085b      	lsrs	r3, r3, #1
 8000852:	ea4f 0232 	mov.w	r2, r2, rrx
 8000856:	ebb6 0e02 	subs.w	lr, r6, r2
 800085a:	eb75 0e03 	sbcs.w	lr, r5, r3
 800085e:	bf22      	ittt	cs
 8000860:	1ab6      	subcs	r6, r6, r2
 8000862:	4675      	movcs	r5, lr
 8000864:	ea40 009c 	orrcs.w	r0, r0, ip, lsr #2
 8000868:	085b      	lsrs	r3, r3, #1
 800086a:	ea4f 0232 	mov.w	r2, r2, rrx
 800086e:	ebb6 0e02 	subs.w	lr, r6, r2
 8000872:	eb75 0e03 	sbcs.w	lr, r5, r3
 8000876:	bf22      	ittt	cs
 8000878:	1ab6      	subcs	r6, r6, r2
 800087a:	4675      	movcs	r5, lr
 800087c:	ea40 00dc 	orrcs.w	r0, r0, ip, lsr #3
 8000880:	ea55 0e06 	orrs.w	lr, r5, r6
 8000884:	d018      	beq.n	80008b8 <__aeabi_ddiv+0x114>
 8000886:	ea4f 1505 	mov.w	r5, r5, lsl #4
 800088a:	ea45 7516 	orr.w	r5, r5, r6, lsr #28
 800088e:	ea4f 1606 	mov.w	r6, r6, lsl #4
 8000892:	ea4f 03c3 	mov.w	r3, r3, lsl #3
 8000896:	ea43 7352 	orr.w	r3, r3, r2, lsr #29
 800089a:	ea4f 02c2 	mov.w	r2, r2, lsl #3
 800089e:	ea5f 1c1c 	movs.w	ip, ip, lsr #4
 80008a2:	d1c0      	bne.n	8000826 <__aeabi_ddiv+0x82>
 80008a4:	f411 1f80 	tst.w	r1, #1048576	; 0x100000
 80008a8:	d10b      	bne.n	80008c2 <__aeabi_ddiv+0x11e>
 80008aa:	ea41 0100 	orr.w	r1, r1, r0
 80008ae:	f04f 0000 	mov.w	r0, #0
 80008b2:	f04f 4c00 	mov.w	ip, #2147483648	; 0x80000000
 80008b6:	e7b6      	b.n	8000826 <__aeabi_ddiv+0x82>
 80008b8:	f411 1f80 	tst.w	r1, #1048576	; 0x100000
 80008bc:	bf04      	itt	eq
 80008be:	4301      	orreq	r1, r0
 80008c0:	2000      	moveq	r0, #0
 80008c2:	f1b4 0cfd 	subs.w	ip, r4, #253	; 0xfd
 80008c6:	bf88      	it	hi
 80008c8:	f5bc 6fe0 	cmphi.w	ip, #1792	; 0x700
 80008cc:	f63f aeaf 	bhi.w	800062e <__aeabi_dmul+0xde>
 80008d0:	ebb5 0c03 	subs.w	ip, r5, r3
 80008d4:	bf04      	itt	eq
 80008d6:	ebb6 0c02 	subseq.w	ip, r6, r2
 80008da:	ea5f 0c50 	movseq.w	ip, r0, lsr #1
 80008de:	f150 0000 	adcs.w	r0, r0, #0
 80008e2:	eb41 5104 	adc.w	r1, r1, r4, lsl #20
 80008e6:	bd70      	pop	{r4, r5, r6, pc}
 80008e8:	f00e 4e00 	and.w	lr, lr, #2147483648	; 0x80000000
 80008ec:	ea4e 3111 	orr.w	r1, lr, r1, lsr #12
 80008f0:	eb14 045c 	adds.w	r4, r4, ip, lsr #1
 80008f4:	bfc2      	ittt	gt
 80008f6:	ebd4 050c 	rsbsgt	r5, r4, ip
 80008fa:	ea41 5104 	orrgt.w	r1, r1, r4, lsl #20
 80008fe:	bd70      	popgt	{r4, r5, r6, pc}
 8000900:	f441 1180 	orr.w	r1, r1, #1048576	; 0x100000
 8000904:	f04f 0e00 	mov.w	lr, #0
 8000908:	3c01      	subs	r4, #1
 800090a:	e690      	b.n	800062e <__aeabi_dmul+0xde>
 800090c:	ea45 0e06 	orr.w	lr, r5, r6
 8000910:	e68d      	b.n	800062e <__aeabi_dmul+0xde>
 8000912:	ea0c 5513 	and.w	r5, ip, r3, lsr #20
 8000916:	ea94 0f0c 	teq	r4, ip
 800091a:	bf08      	it	eq
 800091c:	ea95 0f0c 	teqeq	r5, ip
 8000920:	f43f af3b 	beq.w	800079a <__aeabi_dmul+0x24a>
 8000924:	ea94 0f0c 	teq	r4, ip
 8000928:	d10a      	bne.n	8000940 <__aeabi_ddiv+0x19c>
 800092a:	ea50 3401 	orrs.w	r4, r0, r1, lsl #12
 800092e:	f47f af34 	bne.w	800079a <__aeabi_dmul+0x24a>
 8000932:	ea95 0f0c 	teq	r5, ip
 8000936:	f47f af25 	bne.w	8000784 <__aeabi_dmul+0x234>
 800093a:	4610      	mov	r0, r2
 800093c:	4619      	mov	r1, r3
 800093e:	e72c      	b.n	800079a <__aeabi_dmul+0x24a>
 8000940:	ea95 0f0c 	teq	r5, ip
 8000944:	d106      	bne.n	8000954 <__aeabi_ddiv+0x1b0>
 8000946:	ea52 3503 	orrs.w	r5, r2, r3, lsl #12
 800094a:	f43f aefd 	beq.w	8000748 <__aeabi_dmul+0x1f8>
 800094e:	4610      	mov	r0, r2
 8000950:	4619      	mov	r1, r3
 8000952:	e722      	b.n	800079a <__aeabi_dmul+0x24a>
 8000954:	ea50 0641 	orrs.w	r6, r0, r1, lsl #1
 8000958:	bf18      	it	ne
 800095a:	ea52 0643 	orrsne.w	r6, r2, r3, lsl #1
 800095e:	f47f aec5 	bne.w	80006ec <__aeabi_dmul+0x19c>
 8000962:	ea50 0441 	orrs.w	r4, r0, r1, lsl #1
 8000966:	f47f af0d 	bne.w	8000784 <__aeabi_dmul+0x234>
 800096a:	ea52 0543 	orrs.w	r5, r2, r3, lsl #1
 800096e:	f47f aeeb 	bne.w	8000748 <__aeabi_dmul+0x1f8>
 8000972:	e712      	b.n	800079a <__aeabi_dmul+0x24a>

08000974 <__aeabi_d2f>:
 8000974:	ea4f 0241 	mov.w	r2, r1, lsl #1
 8000978:	f1b2 43e0 	subs.w	r3, r2, #1879048192	; 0x70000000
 800097c:	bf24      	itt	cs
 800097e:	f5b3 1c00 	subscs.w	ip, r3, #2097152	; 0x200000
 8000982:	f1dc 5cfe 	rsbscs	ip, ip, #532676608	; 0x1fc00000
 8000986:	d90d      	bls.n	80009a4 <__aeabi_d2f+0x30>
 8000988:	f001 4c00 	and.w	ip, r1, #2147483648	; 0x80000000
 800098c:	ea4f 02c0 	mov.w	r2, r0, lsl #3
 8000990:	ea4c 7050 	orr.w	r0, ip, r0, lsr #29
 8000994:	f1b2 4f00 	cmp.w	r2, #2147483648	; 0x80000000
 8000998:	eb40 0083 	adc.w	r0, r0, r3, lsl #2
 800099c:	bf08      	it	eq
 800099e:	f020 0001 	biceq.w	r0, r0, #1
 80009a2:	4770      	bx	lr
 80009a4:	f011 4f80 	tst.w	r1, #1073741824	; 0x40000000
 80009a8:	d121      	bne.n	80009ee <__aeabi_d2f+0x7a>
 80009aa:	f113 7238 	adds.w	r2, r3, #48234496	; 0x2e00000
 80009ae:	bfbc      	itt	lt
 80009b0:	f001 4000 	andlt.w	r0, r1, #2147483648	; 0x80000000
 80009b4:	4770      	bxlt	lr
 80009b6:	f441 1180 	orr.w	r1, r1, #1048576	; 0x100000
 80009ba:	ea4f 5252 	mov.w	r2, r2, lsr #21
 80009be:	f1c2 0218 	rsb	r2, r2, #24
 80009c2:	f1c2 0c20 	rsb	ip, r2, #32
 80009c6:	fa10 f30c 	lsls.w	r3, r0, ip
 80009ca:	fa20 f002 	lsr.w	r0, r0, r2
 80009ce:	bf18      	it	ne
 80009d0:	f040 0001 	orrne.w	r0, r0, #1
 80009d4:	ea4f 23c1 	mov.w	r3, r1, lsl #11
 80009d8:	ea4f 23d3 	mov.w	r3, r3, lsr #11
 80009dc:	fa03 fc0c 	lsl.w	ip, r3, ip
 80009e0:	ea40 000c 	orr.w	r0, r0, ip
 80009e4:	fa23 f302 	lsr.w	r3, r3, r2
 80009e8:	ea4f 0343 	mov.w	r3, r3, lsl #1
 80009ec:	e7cc      	b.n	8000988 <__aeabi_d2f+0x14>
 80009ee:	ea7f 5362 	mvns.w	r3, r2, asr #21
 80009f2:	d107      	bne.n	8000a04 <__aeabi_d2f+0x90>
 80009f4:	ea50 3301 	orrs.w	r3, r0, r1, lsl #12
 80009f8:	bf1e      	ittt	ne
 80009fa:	f04f 40fe 	movne.w	r0, #2130706432	; 0x7f000000
 80009fe:	f440 0040 	orrne.w	r0, r0, #12582912	; 0xc00000
 8000a02:	4770      	bxne	lr
 8000a04:	f001 4000 	and.w	r0, r1, #2147483648	; 0x80000000
 8000a08:	f040 40fe 	orr.w	r0, r0, #2130706432	; 0x7f000000
 8000a0c:	f440 0000 	orr.w	r0, r0, #8388608	; 0x800000
 8000a10:	4770      	bx	lr
 8000a12:	bf00      	nop

08000a14 <__aeabi_uldivmod>:
 8000a14:	b953      	cbnz	r3, 8000a2c <__aeabi_uldivmod+0x18>
 8000a16:	b94a      	cbnz	r2, 8000a2c <__aeabi_uldivmod+0x18>
 8000a18:	2900      	cmp	r1, #0
 8000a1a:	bf08      	it	eq
 8000a1c:	2800      	cmpeq	r0, #0
 8000a1e:	bf1c      	itt	ne
 8000a20:	f04f 31ff 	movne.w	r1, #4294967295
 8000a24:	f04f 30ff 	movne.w	r0, #4294967295
 8000a28:	f000 b972 	b.w	8000d10 <__aeabi_idiv0>
 8000a2c:	f1ad 0c08 	sub.w	ip, sp, #8
 8000a30:	e96d ce04 	strd	ip, lr, [sp, #-16]!
 8000a34:	f000 f806 	bl	8000a44 <__udivmoddi4>
 8000a38:	f8dd e004 	ldr.w	lr, [sp, #4]
 8000a3c:	e9dd 2302 	ldrd	r2, r3, [sp, #8]
 8000a40:	b004      	add	sp, #16
 8000a42:	4770      	bx	lr

08000a44 <__udivmoddi4>:
 8000a44:	e92d 47f0 	stmdb	sp!, {r4, r5, r6, r7, r8, r9, sl, lr}
 8000a48:	9e08      	ldr	r6, [sp, #32]
 8000a4a:	4604      	mov	r4, r0
 8000a4c:	4688      	mov	r8, r1
 8000a4e:	2b00      	cmp	r3, #0
 8000a50:	d14b      	bne.n	8000aea <__udivmoddi4+0xa6>
 8000a52:	428a      	cmp	r2, r1
 8000a54:	4615      	mov	r5, r2
 8000a56:	d967      	bls.n	8000b28 <__udivmoddi4+0xe4>
 8000a58:	fab2 f282 	clz	r2, r2
 8000a5c:	b14a      	cbz	r2, 8000a72 <__udivmoddi4+0x2e>
 8000a5e:	f1c2 0720 	rsb	r7, r2, #32
 8000a62:	fa01 f302 	lsl.w	r3, r1, r2
 8000a66:	fa20 f707 	lsr.w	r7, r0, r7
 8000a6a:	4095      	lsls	r5, r2
 8000a6c:	ea47 0803 	orr.w	r8, r7, r3
 8000a70:	4094      	lsls	r4, r2
 8000a72:	ea4f 4e15 	mov.w	lr, r5, lsr #16
 8000a76:	0c23      	lsrs	r3, r4, #16
 8000a78:	fbb8 f7fe 	udiv	r7, r8, lr
 8000a7c:	fa1f fc85 	uxth.w	ip, r5
 8000a80:	fb0e 8817 	mls	r8, lr, r7, r8
 8000a84:	ea43 4308 	orr.w	r3, r3, r8, lsl #16
 8000a88:	fb07 f10c 	mul.w	r1, r7, ip
 8000a8c:	4299      	cmp	r1, r3
 8000a8e:	d909      	bls.n	8000aa4 <__udivmoddi4+0x60>
 8000a90:	18eb      	adds	r3, r5, r3
 8000a92:	f107 30ff 	add.w	r0, r7, #4294967295
 8000a96:	f080 811b 	bcs.w	8000cd0 <__udivmoddi4+0x28c>
 8000a9a:	4299      	cmp	r1, r3
 8000a9c:	f240 8118 	bls.w	8000cd0 <__udivmoddi4+0x28c>
 8000aa0:	3f02      	subs	r7, #2
 8000aa2:	442b      	add	r3, r5
 8000aa4:	1a5b      	subs	r3, r3, r1
 8000aa6:	b2a4      	uxth	r4, r4
 8000aa8:	fbb3 f0fe 	udiv	r0, r3, lr
 8000aac:	fb0e 3310 	mls	r3, lr, r0, r3
 8000ab0:	ea44 4403 	orr.w	r4, r4, r3, lsl #16
 8000ab4:	fb00 fc0c 	mul.w	ip, r0, ip
 8000ab8:	45a4      	cmp	ip, r4
 8000aba:	d909      	bls.n	8000ad0 <__udivmoddi4+0x8c>
 8000abc:	192c      	adds	r4, r5, r4
 8000abe:	f100 33ff 	add.w	r3, r0, #4294967295
 8000ac2:	f080 8107 	bcs.w	8000cd4 <__udivmoddi4+0x290>
 8000ac6:	45a4      	cmp	ip, r4
 8000ac8:	f240 8104 	bls.w	8000cd4 <__udivmoddi4+0x290>
 8000acc:	3802      	subs	r0, #2
 8000ace:	442c      	add	r4, r5
 8000ad0:	ea40 4007 	orr.w	r0, r0, r7, lsl #16
 8000ad4:	eba4 040c 	sub.w	r4, r4, ip
 8000ad8:	2700      	movs	r7, #0
 8000ada:	b11e      	cbz	r6, 8000ae4 <__udivmoddi4+0xa0>
 8000adc:	40d4      	lsrs	r4, r2
 8000ade:	2300      	movs	r3, #0
 8000ae0:	e9c6 4300 	strd	r4, r3, [r6]
 8000ae4:	4639      	mov	r1, r7
 8000ae6:	e8bd 87f0 	ldmia.w	sp!, {r4, r5, r6, r7, r8, r9, sl, pc}
 8000aea:	428b      	cmp	r3, r1
 8000aec:	d909      	bls.n	8000b02 <__udivmoddi4+0xbe>
 8000aee:	2e00      	cmp	r6, #0
 8000af0:	f000 80eb 	beq.w	8000cca <__udivmoddi4+0x286>
 8000af4:	2700      	movs	r7, #0
 8000af6:	e9c6 0100 	strd	r0, r1, [r6]
 8000afa:	4638      	mov	r0, r7
 8000afc:	4639      	mov	r1, r7
 8000afe:	e8bd 87f0 	ldmia.w	sp!, {r4, r5, r6, r7, r8, r9, sl, pc}
 8000b02:	fab3 f783 	clz	r7, r3
 8000b06:	2f00      	cmp	r7, #0
 8000b08:	d147      	bne.n	8000b9a <__udivmoddi4+0x156>
 8000b0a:	428b      	cmp	r3, r1
 8000b0c:	d302      	bcc.n	8000b14 <__udivmoddi4+0xd0>
 8000b0e:	4282      	cmp	r2, r0
 8000b10:	f200 80fa 	bhi.w	8000d08 <__udivmoddi4+0x2c4>
 8000b14:	1a84      	subs	r4, r0, r2
 8000b16:	eb61 0303 	sbc.w	r3, r1, r3
 8000b1a:	2001      	movs	r0, #1
 8000b1c:	4698      	mov	r8, r3
 8000b1e:	2e00      	cmp	r6, #0
 8000b20:	d0e0      	beq.n	8000ae4 <__udivmoddi4+0xa0>
 8000b22:	e9c6 4800 	strd	r4, r8, [r6]
 8000b26:	e7dd      	b.n	8000ae4 <__udivmoddi4+0xa0>
 8000b28:	b902      	cbnz	r2, 8000b2c <__udivmoddi4+0xe8>
 8000b2a:	deff      	udf	#255	; 0xff
 8000b2c:	fab2 f282 	clz	r2, r2
 8000b30:	2a00      	cmp	r2, #0
 8000b32:	f040 808f 	bne.w	8000c54 <__udivmoddi4+0x210>
 8000b36:	1b49      	subs	r1, r1, r5
 8000b38:	ea4f 4e15 	mov.w	lr, r5, lsr #16
 8000b3c:	fa1f f885 	uxth.w	r8, r5
 8000b40:	2701      	movs	r7, #1
 8000b42:	fbb1 fcfe 	udiv	ip, r1, lr
 8000b46:	0c23      	lsrs	r3, r4, #16
 8000b48:	fb0e 111c 	mls	r1, lr, ip, r1
 8000b4c:	ea43 4301 	orr.w	r3, r3, r1, lsl #16
 8000b50:	fb08 f10c 	mul.w	r1, r8, ip
 8000b54:	4299      	cmp	r1, r3
 8000b56:	d907      	bls.n	8000b68 <__udivmoddi4+0x124>
 8000b58:	18eb      	adds	r3, r5, r3
 8000b5a:	f10c 30ff 	add.w	r0, ip, #4294967295
 8000b5e:	d202      	bcs.n	8000b66 <__udivmoddi4+0x122>
 8000b60:	4299      	cmp	r1, r3
 8000b62:	f200 80cd 	bhi.w	8000d00 <__udivmoddi4+0x2bc>
 8000b66:	4684      	mov	ip, r0
 8000b68:	1a59      	subs	r1, r3, r1
 8000b6a:	b2a3      	uxth	r3, r4
 8000b6c:	fbb1 f0fe 	udiv	r0, r1, lr
 8000b70:	fb0e 1410 	mls	r4, lr, r0, r1
 8000b74:	ea43 4404 	orr.w	r4, r3, r4, lsl #16
 8000b78:	fb08 f800 	mul.w	r8, r8, r0
 8000b7c:	45a0      	cmp	r8, r4
 8000b7e:	d907      	bls.n	8000b90 <__udivmoddi4+0x14c>
 8000b80:	192c      	adds	r4, r5, r4
 8000b82:	f100 33ff 	add.w	r3, r0, #4294967295
 8000b86:	d202      	bcs.n	8000b8e <__udivmoddi4+0x14a>
 8000b88:	45a0      	cmp	r8, r4
 8000b8a:	f200 80b6 	bhi.w	8000cfa <__udivmoddi4+0x2b6>
 8000b8e:	4618      	mov	r0, r3
 8000b90:	eba4 0408 	sub.w	r4, r4, r8
 8000b94:	ea40 400c 	orr.w	r0, r0, ip, lsl #16
 8000b98:	e79f      	b.n	8000ada <__udivmoddi4+0x96>
 8000b9a:	f1c7 0c20 	rsb	ip, r7, #32
 8000b9e:	40bb      	lsls	r3, r7
 8000ba0:	fa22 fe0c 	lsr.w	lr, r2, ip
 8000ba4:	ea4e 0e03 	orr.w	lr, lr, r3
 8000ba8:	fa01 f407 	lsl.w	r4, r1, r7
 8000bac:	fa20 f50c 	lsr.w	r5, r0, ip
 8000bb0:	fa21 f30c 	lsr.w	r3, r1, ip
 8000bb4:	ea4f 481e 	mov.w	r8, lr, lsr #16
 8000bb8:	4325      	orrs	r5, r4
 8000bba:	fbb3 f9f8 	udiv	r9, r3, r8
 8000bbe:	0c2c      	lsrs	r4, r5, #16
 8000bc0:	fb08 3319 	mls	r3, r8, r9, r3
 8000bc4:	fa1f fa8e 	uxth.w	sl, lr
 8000bc8:	ea44 4303 	orr.w	r3, r4, r3, lsl #16
 8000bcc:	fb09 f40a 	mul.w	r4, r9, sl
 8000bd0:	429c      	cmp	r4, r3
 8000bd2:	fa02 f207 	lsl.w	r2, r2, r7
 8000bd6:	fa00 f107 	lsl.w	r1, r0, r7
 8000bda:	d90b      	bls.n	8000bf4 <__udivmoddi4+0x1b0>
 8000bdc:	eb1e 0303 	adds.w	r3, lr, r3
 8000be0:	f109 30ff 	add.w	r0, r9, #4294967295
 8000be4:	f080 8087 	bcs.w	8000cf6 <__udivmoddi4+0x2b2>
 8000be8:	429c      	cmp	r4, r3
 8000bea:	f240 8084 	bls.w	8000cf6 <__udivmoddi4+0x2b2>
 8000bee:	f1a9 0902 	sub.w	r9, r9, #2
 8000bf2:	4473      	add	r3, lr
 8000bf4:	1b1b      	subs	r3, r3, r4
 8000bf6:	b2ad      	uxth	r5, r5
 8000bf8:	fbb3 f0f8 	udiv	r0, r3, r8
 8000bfc:	fb08 3310 	mls	r3, r8, r0, r3
 8000c00:	ea45 4403 	orr.w	r4, r5, r3, lsl #16
 8000c04:	fb00 fa0a 	mul.w	sl, r0, sl
 8000c08:	45a2      	cmp	sl, r4
 8000c0a:	d908      	bls.n	8000c1e <__udivmoddi4+0x1da>
 8000c0c:	eb1e 0404 	adds.w	r4, lr, r4
 8000c10:	f100 33ff 	add.w	r3, r0, #4294967295
 8000c14:	d26b      	bcs.n	8000cee <__udivmoddi4+0x2aa>
 8000c16:	45a2      	cmp	sl, r4
 8000c18:	d969      	bls.n	8000cee <__udivmoddi4+0x2aa>
 8000c1a:	3802      	subs	r0, #2
 8000c1c:	4474      	add	r4, lr
 8000c1e:	ea40 4009 	orr.w	r0, r0, r9, lsl #16
 8000c22:	fba0 8902 	umull	r8, r9, r0, r2
 8000c26:	eba4 040a 	sub.w	r4, r4, sl
 8000c2a:	454c      	cmp	r4, r9
 8000c2c:	46c2      	mov	sl, r8
 8000c2e:	464b      	mov	r3, r9
 8000c30:	d354      	bcc.n	8000cdc <__udivmoddi4+0x298>
 8000c32:	d051      	beq.n	8000cd8 <__udivmoddi4+0x294>
 8000c34:	2e00      	cmp	r6, #0
 8000c36:	d069      	beq.n	8000d0c <__udivmoddi4+0x2c8>
 8000c38:	ebb1 050a 	subs.w	r5, r1, sl
 8000c3c:	eb64 0403 	sbc.w	r4, r4, r3
 8000c40:	fa04 fc0c 	lsl.w	ip, r4, ip
 8000c44:	40fd      	lsrs	r5, r7
 8000c46:	40fc      	lsrs	r4, r7
 8000c48:	ea4c 0505 	orr.w	r5, ip, r5
 8000c4c:	e9c6 5400 	strd	r5, r4, [r6]
 8000c50:	2700      	movs	r7, #0
 8000c52:	e747      	b.n	8000ae4 <__udivmoddi4+0xa0>
 8000c54:	f1c2 0320 	rsb	r3, r2, #32
 8000c58:	fa20 f703 	lsr.w	r7, r0, r3
 8000c5c:	4095      	lsls	r5, r2
 8000c5e:	fa01 f002 	lsl.w	r0, r1, r2
 8000c62:	fa21 f303 	lsr.w	r3, r1, r3
 8000c66:	ea4f 4e15 	mov.w	lr, r5, lsr #16
 8000c6a:	4338      	orrs	r0, r7
 8000c6c:	0c01      	lsrs	r1, r0, #16
 8000c6e:	fbb3 f7fe 	udiv	r7, r3, lr
 8000c72:	fa1f f885 	uxth.w	r8, r5
 8000c76:	fb0e 3317 	mls	r3, lr, r7, r3
 8000c7a:	ea41 4103 	orr.w	r1, r1, r3, lsl #16
 8000c7e:	fb07 f308 	mul.w	r3, r7, r8
 8000c82:	428b      	cmp	r3, r1
 8000c84:	fa04 f402 	lsl.w	r4, r4, r2
 8000c88:	d907      	bls.n	8000c9a <__udivmoddi4+0x256>
 8000c8a:	1869      	adds	r1, r5, r1
 8000c8c:	f107 3cff 	add.w	ip, r7, #4294967295
 8000c90:	d22f      	bcs.n	8000cf2 <__udivmoddi4+0x2ae>
 8000c92:	428b      	cmp	r3, r1
 8000c94:	d92d      	bls.n	8000cf2 <__udivmoddi4+0x2ae>
 8000c96:	3f02      	subs	r7, #2
 8000c98:	4429      	add	r1, r5
 8000c9a:	1acb      	subs	r3, r1, r3
 8000c9c:	b281      	uxth	r1, r0
 8000c9e:	fbb3 f0fe 	udiv	r0, r3, lr
 8000ca2:	fb0e 3310 	mls	r3, lr, r0, r3
 8000ca6:	ea41 4103 	orr.w	r1, r1, r3, lsl #16
 8000caa:	fb00 f308 	mul.w	r3, r0, r8
 8000cae:	428b      	cmp	r3, r1
 8000cb0:	d907      	bls.n	8000cc2 <__udivmoddi4+0x27e>
 8000cb2:	1869      	adds	r1, r5, r1
 8000cb4:	f100 3cff 	add.w	ip, r0, #4294967295
 8000cb8:	d217      	bcs.n	8000cea <__udivmoddi4+0x2a6>
 8000cba:	428b      	cmp	r3, r1
 8000cbc:	d915      	bls.n	8000cea <__udivmoddi4+0x2a6>
 8000cbe:	3802      	subs	r0, #2
 8000cc0:	4429      	add	r1, r5
 8000cc2:	1ac9      	subs	r1, r1, r3
 8000cc4:	ea40 4707 	orr.w	r7, r0, r7, lsl #16
 8000cc8:	e73b      	b.n	8000b42 <__udivmoddi4+0xfe>
 8000cca:	4637      	mov	r7, r6
 8000ccc:	4630      	mov	r0, r6
 8000cce:	e709      	b.n	8000ae4 <__udivmoddi4+0xa0>
 8000cd0:	4607      	mov	r7, r0
 8000cd2:	e6e7      	b.n	8000aa4 <__udivmoddi4+0x60>
 8000cd4:	4618      	mov	r0, r3
 8000cd6:	e6fb      	b.n	8000ad0 <__udivmoddi4+0x8c>
 8000cd8:	4541      	cmp	r1, r8
 8000cda:	d2ab      	bcs.n	8000c34 <__udivmoddi4+0x1f0>
 8000cdc:	ebb8 0a02 	subs.w	sl, r8, r2
 8000ce0:	eb69 020e 	sbc.w	r2, r9, lr
 8000ce4:	3801      	subs	r0, #1
 8000ce6:	4613      	mov	r3, r2
 8000ce8:	e7a4      	b.n	8000c34 <__udivmoddi4+0x1f0>
 8000cea:	4660      	mov	r0, ip
 8000cec:	e7e9      	b.n	8000cc2 <__udivmoddi4+0x27e>
 8000cee:	4618      	mov	r0, r3
 8000cf0:	e795      	b.n	8000c1e <__udivmoddi4+0x1da>
 8000cf2:	4667      	mov	r7, ip
 8000cf4:	e7d1      	b.n	8000c9a <__udivmoddi4+0x256>
 8000cf6:	4681      	mov	r9, r0
 8000cf8:	e77c      	b.n	8000bf4 <__udivmoddi4+0x1b0>
 8000cfa:	3802      	subs	r0, #2
 8000cfc:	442c      	add	r4, r5
 8000cfe:	e747      	b.n	8000b90 <__udivmoddi4+0x14c>
 8000d00:	f1ac 0c02 	sub.w	ip, ip, #2
 8000d04:	442b      	add	r3, r5
 8000d06:	e72f      	b.n	8000b68 <__udivmoddi4+0x124>
 8000d08:	4638      	mov	r0, r7
 8000d0a:	e708      	b.n	8000b1e <__udivmoddi4+0xda>
 8000d0c:	4637      	mov	r7, r6
 8000d0e:	e6e9      	b.n	8000ae4 <__udivmoddi4+0xa0>

08000d10 <__aeabi_idiv0>:
 8000d10:	4770      	bx	lr
 8000d12:	bf00      	nop

08000d14 <ProcessRXdMidiCCs>:


/* Functions -----------------------------------------------*/
/*-----------------------------------------------------------------------------*/
void ProcessRXdMidiCCs()
{
 8000d14:	b508      	push	{r3, lr}
  if(MIDIcmd==0xB0){
 8000d16:	4b0c      	ldr	r3, [pc, #48]	; (8000d48 <ProcessRXdMidiCCs+0x34>)
 8000d18:	781b      	ldrb	r3, [r3, #0]
 8000d1a:	2bb0      	cmp	r3, #176	; 0xb0
 8000d1c:	d000      	beq.n	8000d20 <ProcessRXdMidiCCs+0xc>
          default:
  	      break;

          }
        }
      }
 8000d1e:	bd08      	pop	{r3, pc}
	uint8_t val = MIDIvel;
 8000d20:	4b0a      	ldr	r3, [pc, #40]	; (8000d4c <ProcessRXdMidiCCs+0x38>)
 8000d22:	7818      	ldrb	r0, [r3, #0]
	switch(MIDInote) // CC number
 8000d24:	4b0a      	ldr	r3, [pc, #40]	; (8000d50 <ProcessRXdMidiCCs+0x3c>)
 8000d26:	781b      	ldrb	r3, [r3, #0]
 8000d28:	2b07      	cmp	r3, #7
 8000d2a:	d006      	beq.n	8000d3a <ProcessRXdMidiCCs+0x26>
 8000d2c:	2b3c      	cmp	r3, #60	; 0x3c
 8000d2e:	d007      	beq.n	8000d40 <ProcessRXdMidiCCs+0x2c>
 8000d30:	2b01      	cmp	r3, #1
 8000d32:	d1f4      	bne.n	8000d1e <ProcessRXdMidiCCs+0xa>
		case 1 :	Vibrato_amp_set(val);   break;//modwheel
 8000d34:	f000 fb34 	bl	80013a0 <Vibrato_amp_set>
 8000d38:	e7f1      	b.n	8000d1e <ProcessRXdMidiCCs+0xa>
		case 7 :	SynthOut_amp_set(val);   break;
 8000d3a:	f000 fb1f 	bl	800137c <SynthOut_amp_set>
 8000d3e:	e7ee      	b.n	8000d1e <ProcessRXdMidiCCs+0xa>
		case 60 :	VibratoFreq_set(val);	break;	// Vibrato frequency
 8000d40:	f000 fb40 	bl	80013c4 <VibratoFreq_set>
      }
 8000d44:	e7eb      	b.n	8000d1e <ProcessRXdMidiCCs+0xa>
 8000d46:	bf00      	nop
 8000d48:	20001050 	.word	0x20001050
 8000d4c:	20001057 	.word	0x20001057
 8000d50:	200010a0 	.word	0x200010a0

08000d54 <MX_GPIO_Init>:
  * @brief GPIO Initialization Function
  * @param None
  * @retval None
  */
static void MX_GPIO_Init(void)
{
 8000d54:	b082      	sub	sp, #8

  /* GPIO Ports Clock Enable */
  __HAL_RCC_GPIOH_CLK_ENABLE();
 8000d56:	2100      	movs	r1, #0
 8000d58:	9100      	str	r1, [sp, #0]
 8000d5a:	4b0b      	ldr	r3, [pc, #44]	; (8000d88 <MX_GPIO_Init+0x34>)
 8000d5c:	6b1a      	ldr	r2, [r3, #48]	; 0x30
 8000d5e:	f042 0280 	orr.w	r2, r2, #128	; 0x80
 8000d62:	631a      	str	r2, [r3, #48]	; 0x30
 8000d64:	6b1a      	ldr	r2, [r3, #48]	; 0x30
 8000d66:	f002 0280 	and.w	r2, r2, #128	; 0x80
 8000d6a:	9200      	str	r2, [sp, #0]
 8000d6c:	9a00      	ldr	r2, [sp, #0]
  __HAL_RCC_GPIOA_CLK_ENABLE();
 8000d6e:	9101      	str	r1, [sp, #4]
 8000d70:	6b1a      	ldr	r2, [r3, #48]	; 0x30
 8000d72:	f042 0201 	orr.w	r2, r2, #1
 8000d76:	631a      	str	r2, [r3, #48]	; 0x30
 8000d78:	6b1b      	ldr	r3, [r3, #48]	; 0x30
 8000d7a:	f003 0301 	and.w	r3, r3, #1
 8000d7e:	9301      	str	r3, [sp, #4]
 8000d80:	9b01      	ldr	r3, [sp, #4]

}
 8000d82:	b002      	add	sp, #8
 8000d84:	4770      	bx	lr
 8000d86:	bf00      	nop
 8000d88:	40023800 	.word	0x40023800

08000d8c <MX_I2S1_Init>:
{
 8000d8c:	b508      	push	{r3, lr}
  hi2s1.Instance = SPI1;
 8000d8e:	4809      	ldr	r0, [pc, #36]	; (8000db4 <MX_I2S1_Init+0x28>)
 8000d90:	4b09      	ldr	r3, [pc, #36]	; (8000db8 <MX_I2S1_Init+0x2c>)
 8000d92:	6003      	str	r3, [r0, #0]
  hi2s1.Init.Mode = I2S_MODE_MASTER_TX;
 8000d94:	f44f 7300 	mov.w	r3, #512	; 0x200
 8000d98:	6043      	str	r3, [r0, #4]
  hi2s1.Init.Standard = I2S_STANDARD_PHILIPS;
 8000d9a:	2300      	movs	r3, #0
 8000d9c:	6083      	str	r3, [r0, #8]
  hi2s1.Init.DataFormat = I2S_DATAFORMAT_16B;
 8000d9e:	60c3      	str	r3, [r0, #12]
  hi2s1.Init.MCLKOutput = I2S_MCLKOUTPUT_DISABLE;
 8000da0:	6103      	str	r3, [r0, #16]
  hi2s1.Init.AudioFreq = I2S_AUDIOFREQ_32K;
 8000da2:	f44f 42fa 	mov.w	r2, #32000	; 0x7d00
 8000da6:	6142      	str	r2, [r0, #20]
  hi2s1.Init.CPOL = I2S_CPOL_LOW;
 8000da8:	6183      	str	r3, [r0, #24]
  hi2s1.Init.ClockSource = I2S_CLOCK_PLL;
 8000daa:	61c3      	str	r3, [r0, #28]
  hi2s1.Init.FullDuplexMode = I2S_FULLDUPLEXMODE_DISABLE;
 8000dac:	6203      	str	r3, [r0, #32]
  if (HAL_I2S_Init(&hi2s1) != HAL_OK)
 8000dae:	f001 f847 	bl	8001e40 <HAL_I2S_Init>
}
 8000db2:	bd08      	pop	{r3, pc}
 8000db4:	20001058 	.word	0x20001058
 8000db8:	40013000 	.word	0x40013000

08000dbc <MX_DMA_Init>:
{
 8000dbc:	b500      	push	{lr}
 8000dbe:	b083      	sub	sp, #12
  __HAL_RCC_DMA2_CLK_ENABLE();
 8000dc0:	2200      	movs	r2, #0
 8000dc2:	9201      	str	r2, [sp, #4]
 8000dc4:	4b09      	ldr	r3, [pc, #36]	; (8000dec <MX_DMA_Init+0x30>)
 8000dc6:	6b19      	ldr	r1, [r3, #48]	; 0x30
 8000dc8:	f441 0180 	orr.w	r1, r1, #4194304	; 0x400000
 8000dcc:	6319      	str	r1, [r3, #48]	; 0x30
 8000dce:	6b1b      	ldr	r3, [r3, #48]	; 0x30
 8000dd0:	f403 0380 	and.w	r3, r3, #4194304	; 0x400000
 8000dd4:	9301      	str	r3, [sp, #4]
 8000dd6:	9b01      	ldr	r3, [sp, #4]
  HAL_NVIC_SetPriority(DMA2_Stream2_IRQn, 13, 0);
 8000dd8:	210d      	movs	r1, #13
 8000dda:	203a      	movs	r0, #58	; 0x3a
 8000ddc:	f000 fcee 	bl	80017bc <HAL_NVIC_SetPriority>
  HAL_NVIC_EnableIRQ(DMA2_Stream2_IRQn);
 8000de0:	203a      	movs	r0, #58	; 0x3a
 8000de2:	f000 fd1f 	bl	8001824 <HAL_NVIC_EnableIRQ>
}
 8000de6:	b003      	add	sp, #12
 8000de8:	f85d fb04 	ldr.w	pc, [sp], #4
 8000dec:	40023800 	.word	0x40023800

08000df0 <MX_USART2_UART_Init>:
{
 8000df0:	b508      	push	{r3, lr}
  huart2.Instance = USART2;
 8000df2:	4808      	ldr	r0, [pc, #32]	; (8000e14 <MX_USART2_UART_Init+0x24>)
 8000df4:	4b08      	ldr	r3, [pc, #32]	; (8000e18 <MX_USART2_UART_Init+0x28>)
 8000df6:	6003      	str	r3, [r0, #0]
  huart2.Init.BaudRate = 31250;
 8000df8:	f647 2312 	movw	r3, #31250	; 0x7a12
 8000dfc:	6043      	str	r3, [r0, #4]
  huart2.Init.WordLength = UART_WORDLENGTH_8B;
 8000dfe:	2300      	movs	r3, #0
 8000e00:	6083      	str	r3, [r0, #8]
  huart2.Init.StopBits = UART_STOPBITS_1;
 8000e02:	60c3      	str	r3, [r0, #12]
  huart2.Init.Parity = UART_PARITY_NONE;
 8000e04:	6103      	str	r3, [r0, #16]
  huart2.Init.Mode = UART_MODE_TX_RX;
 8000e06:	220c      	movs	r2, #12
 8000e08:	6142      	str	r2, [r0, #20]
  huart2.Init.HwFlowCtl = UART_HWCONTROL_NONE;
 8000e0a:	6183      	str	r3, [r0, #24]
  huart2.Init.OverSampling = UART_OVERSAMPLING_16;
 8000e0c:	61c3      	str	r3, [r0, #28]
  if (HAL_UART_Init(&huart2) != HAL_OK)
 8000e0e:	f002 f909 	bl	8003024 <HAL_UART_Init>
}
 8000e12:	bd08      	pop	{r3, pc}
 8000e14:	200010a4 	.word	0x200010a4
 8000e18:	40004400 	.word	0x40004400

08000e1c <HAL_I2S_TxHalfCpltCallback>:
void HAL_I2S_TxHalfCpltCallback(I2S_HandleTypeDef *hi2s) {
 8000e1c:	b508      	push	{r3, lr}
	make_sound((uint16_t *) audiobuff, BUFF_LEN_DIV4);
 8000e1e:	f44f 71fa 	mov.w	r1, #500	; 0x1f4
 8000e22:	4802      	ldr	r0, [pc, #8]	; (8000e2c <HAL_I2S_TxHalfCpltCallback+0x10>)
 8000e24:	f000 fbe4 	bl	80015f0 <make_sound>
}
 8000e28:	bd08      	pop	{r3, pc}
 8000e2a:	bf00      	nop
 8000e2c:	200000b0 	.word	0x200000b0

08000e30 <HAL_I2S_TxCpltCallback>:
void HAL_I2S_TxCpltCallback(I2S_HandleTypeDef *hi2s) {
 8000e30:	b508      	push	{r3, lr}
	make_sound((uint16_t *) (audiobuff + BUFF_LEN_DIV2), BUFF_LEN_DIV4);
 8000e32:	f44f 71fa 	mov.w	r1, #500	; 0x1f4
 8000e36:	4802      	ldr	r0, [pc, #8]	; (8000e40 <HAL_I2S_TxCpltCallback+0x10>)
 8000e38:	f000 fbda 	bl	80015f0 <make_sound>
}
 8000e3c:	bd08      	pop	{r3, pc}
 8000e3e:	bf00      	nop
 8000e40:	20000880 	.word	0x20000880

08000e44 <MIDInoteOn>:
  if (!noteCount) {
 8000e44:	4b13      	ldr	r3, [pc, #76]	; (8000e94 <MIDInoteOn+0x50>)
 8000e46:	7819      	ldrb	r1, [r3, #0]
 8000e48:	b151      	cbz	r1, 8000e60 <MIDInoteOn+0x1c>
  op1.amp=0;
 8000e4a:	4b13      	ldr	r3, [pc, #76]	; (8000e98 <MIDInoteOn+0x54>)
 8000e4c:	2200      	movs	r2, #0
 8000e4e:	601a      	str	r2, [r3, #0]
  for (int i = 0; i < 16; i++) {
 8000e50:	2300      	movs	r3, #0
 8000e52:	2b0f      	cmp	r3, #15
 8000e54:	dc1c      	bgt.n	8000e90 <MIDInoteOn+0x4c>
    if (!voice[i]) {
 8000e56:	4a11      	ldr	r2, [pc, #68]	; (8000e9c <MIDInoteOn+0x58>)
 8000e58:	5cd2      	ldrb	r2, [r2, r3]
 8000e5a:	b16a      	cbz	r2, 8000e78 <MIDInoteOn+0x34>
  for (int i = 0; i < 16; i++) {
 8000e5c:	3301      	adds	r3, #1
 8000e5e:	e7f8      	b.n	8000e52 <MIDInoteOn+0xe>
    voice [0] = note;
 8000e60:	4b0e      	ldr	r3, [pc, #56]	; (8000e9c <MIDInoteOn+0x58>)
 8000e62:	7018      	strb	r0, [r3, #0]
    op1.amp=1;
 8000e64:	4b0c      	ldr	r3, [pc, #48]	; (8000e98 <MIDInoteOn+0x54>)
 8000e66:	f04f 527e 	mov.w	r2, #1065353216	; 0x3f800000
 8000e6a:	601a      	str	r2, [r3, #0]
    currNote = voice[0];
 8000e6c:	4b0c      	ldr	r3, [pc, #48]	; (8000ea0 <MIDInoteOn+0x5c>)
 8000e6e:	7018      	strb	r0, [r3, #0]
    noteCount++;
 8000e70:	3101      	adds	r1, #1
 8000e72:	4b08      	ldr	r3, [pc, #32]	; (8000e94 <MIDInoteOn+0x50>)
 8000e74:	7019      	strb	r1, [r3, #0]
    return;
 8000e76:	4770      	bx	lr
      voice[i] = note;
 8000e78:	4a08      	ldr	r2, [pc, #32]	; (8000e9c <MIDInoteOn+0x58>)
 8000e7a:	54d0      	strb	r0, [r2, r3]
      currNote = voice[i];
 8000e7c:	4b08      	ldr	r3, [pc, #32]	; (8000ea0 <MIDInoteOn+0x5c>)
 8000e7e:	7018      	strb	r0, [r3, #0]
      op1.amp=1;
 8000e80:	4b05      	ldr	r3, [pc, #20]	; (8000e98 <MIDInoteOn+0x54>)
 8000e82:	f04f 527e 	mov.w	r2, #1065353216	; 0x3f800000
 8000e86:	601a      	str	r2, [r3, #0]
      noteCount++;
 8000e88:	3101      	adds	r1, #1
 8000e8a:	4b02      	ldr	r3, [pc, #8]	; (8000e94 <MIDInoteOn+0x50>)
 8000e8c:	7019      	strb	r1, [r3, #0]
      break;
 8000e8e:	4770      	bx	lr
}
 8000e90:	4770      	bx	lr
 8000e92:	bf00      	nop
 8000e94:	20000098 	.word	0x20000098
 8000e98:	20001144 	.word	0x20001144
 8000e9c:	2000009c 	.word	0x2000009c
 8000ea0:	20000000 	.word	0x20000000

08000ea4 <MIDInoteOff>:
{
 8000ea4:	b410      	push	{r4}
  if (note == currNote && noteCount>1) {
 8000ea6:	4b29      	ldr	r3, [pc, #164]	; (8000f4c <MIDInoteOff+0xa8>)
 8000ea8:	781b      	ldrb	r3, [r3, #0]
 8000eaa:	4283      	cmp	r3, r0
 8000eac:	d010      	beq.n	8000ed0 <MIDInoteOff+0x2c>
  if (noteCount < 2) {
 8000eae:	4b28      	ldr	r3, [pc, #160]	; (8000f50 <MIDInoteOff+0xac>)
 8000eb0:	781b      	ldrb	r3, [r3, #0]
 8000eb2:	2b01      	cmp	r3, #1
 8000eb4:	d92b      	bls.n	8000f0e <MIDInoteOff+0x6a>
  if (noteCount > 1) {  //if a note is released that was held down, but not playing
 8000eb6:	4b26      	ldr	r3, [pc, #152]	; (8000f50 <MIDInoteOff+0xac>)
 8000eb8:	781c      	ldrb	r4, [r3, #0]
 8000eba:	2c01      	cmp	r4, #1
 8000ebc:	d943      	bls.n	8000f46 <MIDInoteOff+0xa2>
    for (int i = 0; i < 16; i++) {// find the note in the array
 8000ebe:	2300      	movs	r3, #0
 8000ec0:	2b0f      	cmp	r3, #15
 8000ec2:	dc40      	bgt.n	8000f46 <MIDInoteOff+0xa2>
      if (voice[i] == note) {
 8000ec4:	4a23      	ldr	r2, [pc, #140]	; (8000f54 <MIDInoteOff+0xb0>)
 8000ec6:	5cd2      	ldrb	r2, [r2, r3]
 8000ec8:	4282      	cmp	r2, r0
 8000eca:	d02a      	beq.n	8000f22 <MIDInoteOff+0x7e>
    for (int i = 0; i < 16; i++) {// find the note in the array
 8000ecc:	3301      	adds	r3, #1
 8000ece:	e7f7      	b.n	8000ec0 <MIDInoteOff+0x1c>
  if (note == currNote && noteCount>1) {
 8000ed0:	4b1f      	ldr	r3, [pc, #124]	; (8000f50 <MIDInoteOff+0xac>)
 8000ed2:	7819      	ldrb	r1, [r3, #0]
 8000ed4:	2901      	cmp	r1, #1
 8000ed6:	d9ea      	bls.n	8000eae <MIDInoteOff+0xa>
	  op1.amp=0;
 8000ed8:	4b1f      	ldr	r3, [pc, #124]	; (8000f58 <MIDInoteOff+0xb4>)
 8000eda:	2200      	movs	r2, #0
 8000edc:	601a      	str	r2, [r3, #0]
    for (int i = 0; i < 16; i++) {
 8000ede:	2300      	movs	r3, #0
 8000ee0:	2b0f      	cmp	r3, #15
 8000ee2:	dc30      	bgt.n	8000f46 <MIDInoteOff+0xa2>
      if (note == voice[i]) {
 8000ee4:	4a1b      	ldr	r2, [pc, #108]	; (8000f54 <MIDInoteOff+0xb0>)
 8000ee6:	5cd2      	ldrb	r2, [r2, r3]
 8000ee8:	4282      	cmp	r2, r0
 8000eea:	d001      	beq.n	8000ef0 <MIDInoteOff+0x4c>
    for (int i = 0; i < 16; i++) {
 8000eec:	3301      	adds	r3, #1
 8000eee:	e7f7      	b.n	8000ee0 <MIDInoteOff+0x3c>
        currNote = voice[i - 1];
 8000ef0:	1e58      	subs	r0, r3, #1
 8000ef2:	4a18      	ldr	r2, [pc, #96]	; (8000f54 <MIDInoteOff+0xb0>)
 8000ef4:	5c14      	ldrb	r4, [r2, r0]
 8000ef6:	4815      	ldr	r0, [pc, #84]	; (8000f4c <MIDInoteOff+0xa8>)
 8000ef8:	7004      	strb	r4, [r0, #0]
        op1.amp=1;
 8000efa:	4817      	ldr	r0, [pc, #92]	; (8000f58 <MIDInoteOff+0xb4>)
 8000efc:	f04f 547e 	mov.w	r4, #1065353216	; 0x3f800000
 8000f00:	6004      	str	r4, [r0, #0]
        voice[i] = 0;
 8000f02:	2000      	movs	r0, #0
 8000f04:	54d0      	strb	r0, [r2, r3]
        noteCount--;
 8000f06:	3901      	subs	r1, #1
 8000f08:	4b11      	ldr	r3, [pc, #68]	; (8000f50 <MIDInoteOff+0xac>)
 8000f0a:	7019      	strb	r1, [r3, #0]
        break;
 8000f0c:	e01b      	b.n	8000f46 <MIDInoteOff+0xa2>
	op1.amp=0;
 8000f0e:	4a12      	ldr	r2, [pc, #72]	; (8000f58 <MIDInoteOff+0xb4>)
 8000f10:	2100      	movs	r1, #0
 8000f12:	6011      	str	r1, [r2, #0]
    voice[0] = 0;
 8000f14:	4a0f      	ldr	r2, [pc, #60]	; (8000f54 <MIDInoteOff+0xb0>)
 8000f16:	2100      	movs	r1, #0
 8000f18:	7011      	strb	r1, [r2, #0]
    noteCount--;
 8000f1a:	3b01      	subs	r3, #1
 8000f1c:	4a0c      	ldr	r2, [pc, #48]	; (8000f50 <MIDInoteOff+0xac>)
 8000f1e:	7013      	strb	r3, [r2, #0]
 8000f20:	e7c9      	b.n	8000eb6 <MIDInoteOff+0x12>
        voice[i] = 0; //remove the note
 8000f22:	4a0c      	ldr	r2, [pc, #48]	; (8000f54 <MIDInoteOff+0xb0>)
 8000f24:	2100      	movs	r1, #0
 8000f26:	54d1      	strb	r1, [r2, r3]
        for (int c = (i + 1); c < 16; c++) {
 8000f28:	1c5a      	adds	r2, r3, #1
 8000f2a:	e004      	b.n	8000f36 <MIDInoteOff+0x92>
          voice[i] = voice[c]; //shift all notes past the removed one, left by one place in array
 8000f2c:	4909      	ldr	r1, [pc, #36]	; (8000f54 <MIDInoteOff+0xb0>)
 8000f2e:	5c88      	ldrb	r0, [r1, r2]
 8000f30:	54c8      	strb	r0, [r1, r3]
          ++i;
 8000f32:	3301      	adds	r3, #1
        for (int c = (i + 1); c < 16; c++) {
 8000f34:	3201      	adds	r2, #1
 8000f36:	2a0f      	cmp	r2, #15
 8000f38:	ddf8      	ble.n	8000f2c <MIDInoteOff+0x88>
        voice[15] = 0;
 8000f3a:	4b06      	ldr	r3, [pc, #24]	; (8000f54 <MIDInoteOff+0xb0>)
 8000f3c:	2200      	movs	r2, #0
 8000f3e:	73da      	strb	r2, [r3, #15]
        noteCount--;
 8000f40:	3c01      	subs	r4, #1
 8000f42:	4b03      	ldr	r3, [pc, #12]	; (8000f50 <MIDInoteOff+0xac>)
 8000f44:	701c      	strb	r4, [r3, #0]
}
 8000f46:	f85d 4b04 	ldr.w	r4, [sp], #4
 8000f4a:	4770      	bx	lr
 8000f4c:	20000000 	.word	0x20000000
 8000f50:	20000098 	.word	0x20000098
 8000f54:	2000009c 	.word	0x2000009c
 8000f58:	20001144 	.word	0x20001144

08000f5c <doPitchBnd>:
void doPitchBnd(void) {
 8000f5c:	b510      	push	{r4, lr}
	uint16_t pBendMSB = MIDIvel;
 8000f5e:	4b11      	ldr	r3, [pc, #68]	; (8000fa4 <doPitchBnd+0x48>)
 8000f60:	781a      	ldrb	r2, [r3, #0]
	uint16_t pBendLSB = MIDInote;
 8000f62:	4b11      	ldr	r3, [pc, #68]	; (8000fa8 <doPitchBnd+0x4c>)
 8000f64:	781b      	ldrb	r3, [r3, #0]
	uint16_t pBendVal = pBendMSB | pBendLSB;
 8000f66:	ea43 13c2 	orr.w	r3, r3, r2, lsl #7
	float mapPitch = pBendVal - 8192;
 8000f6a:	f5a3 5300 	sub.w	r3, r3, #8192	; 0x2000
 8000f6e:	ee00 3a90 	vmov	s1, r3
 8000f72:	eef8 0ae0 	vcvt.f32.s32	s1, s1
	float semiPitch = mapPitch / 8192;
 8000f76:	eddf 7a0d 	vldr	s15, [pc, #52]	; 8000fac <doPitchBnd+0x50>
 8000f7a:	ee60 0aa7 	vmul.f32	s1, s1, s15
	float adjSemiPitch = semiPitch * bendRange;
 8000f7e:	4c0c      	ldr	r4, [pc, #48]	; (8000fb0 <doPitchBnd+0x54>)
 8000f80:	7863      	ldrb	r3, [r4, #1]
 8000f82:	ee07 3a90 	vmov	s15, r3
 8000f86:	eef8 7ae7 	vcvt.f32.s32	s15, s15
 8000f8a:	ee67 0aa0 	vmul.f32	s1, s15, s1
	bendFactor = powf(2.0, preBendFctr);
 8000f8e:	eef2 7a08 	vmov.f32	s15, #40	; 0x41400000  12.0
 8000f92:	eec0 0aa7 	vdiv.f32	s1, s1, s15
 8000f96:	eeb0 0a00 	vmov.f32	s0, #0	; 0x40000000  2.0
 8000f9a:	f002 f9f5 	bl	8003388 <powf>
 8000f9e:	ed84 0a01 	vstr	s0, [r4, #4]
}
 8000fa2:	bd10      	pop	{r4, pc}
 8000fa4:	20001057 	.word	0x20001057
 8000fa8:	200010a0 	.word	0x200010a0
 8000fac:	39000000 	.word	0x39000000
 8000fb0:	20000000 	.word	0x20000000

08000fb4 <procMIDI>:
void procMIDI(void) {
 8000fb4:	b508      	push	{r3, lr}
	MIDIcmd = MIDI_rx[0];
 8000fb6:	4a1f      	ldr	r2, [pc, #124]	; (8001034 <procMIDI+0x80>)
 8000fb8:	7813      	ldrb	r3, [r2, #0]
 8000fba:	491f      	ldr	r1, [pc, #124]	; (8001038 <procMIDI+0x84>)
 8000fbc:	700b      	strb	r3, [r1, #0]
	MIDInote = MIDI_rx[1];
 8000fbe:	7850      	ldrb	r0, [r2, #1]
 8000fc0:	491e      	ldr	r1, [pc, #120]	; (800103c <procMIDI+0x88>)
 8000fc2:	7008      	strb	r0, [r1, #0]
	MIDIvel = MIDI_rx[2];
 8000fc4:	7892      	ldrb	r2, [r2, #2]
 8000fc6:	491e      	ldr	r1, [pc, #120]	; (8001040 <procMIDI+0x8c>)
 8000fc8:	700a      	strb	r2, [r1, #0]
	if ((!MIDIvel) && (MIDIcmd == 0x90)) {
 8000fca:	b90a      	cbnz	r2, 8000fd0 <procMIDI+0x1c>
 8000fcc:	2b90      	cmp	r3, #144	; 0x90
 8000fce:	d008      	beq.n	8000fe2 <procMIDI+0x2e>
	if (MIDIcmd == 0x80) {
 8000fd0:	2b80      	cmp	r3, #128	; 0x80
 8000fd2:	d00e      	beq.n	8000ff2 <procMIDI+0x3e>
	if (MIDIcmd == 0x90) {
 8000fd4:	2b90      	cmp	r3, #144	; 0x90
 8000fd6:	d014      	beq.n	8001002 <procMIDI+0x4e>
	if (MIDIcmd == 0xB0) {
 8000fd8:	2bb0      	cmp	r3, #176	; 0xb0
 8000fda:	d01a      	beq.n	8001012 <procMIDI+0x5e>
	if (MIDIcmd == 0xE0) {
 8000fdc:	2be0      	cmp	r3, #224	; 0xe0
 8000fde:	d020      	beq.n	8001022 <procMIDI+0x6e>
}
 8000fe0:	bd08      	pop	{r3, pc}
		MIDInoteOff(MIDInote);
 8000fe2:	f7ff ff5f 	bl	8000ea4 <MIDInoteOff>
		HAL_UART_Receive_IT(&huart2, rx_buff, 1);
 8000fe6:	2201      	movs	r2, #1
 8000fe8:	4916      	ldr	r1, [pc, #88]	; (8001044 <procMIDI+0x90>)
 8000fea:	4817      	ldr	r0, [pc, #92]	; (8001048 <procMIDI+0x94>)
 8000fec:	f002 f849 	bl	8003082 <HAL_UART_Receive_IT>
		return;
 8000ff0:	e7f6      	b.n	8000fe0 <procMIDI+0x2c>
		MIDInoteOff(MIDInote);
 8000ff2:	f7ff ff57 	bl	8000ea4 <MIDInoteOff>
		HAL_UART_Receive_IT(&huart2, rx_buff, 1);
 8000ff6:	2201      	movs	r2, #1
 8000ff8:	4912      	ldr	r1, [pc, #72]	; (8001044 <procMIDI+0x90>)
 8000ffa:	4813      	ldr	r0, [pc, #76]	; (8001048 <procMIDI+0x94>)
 8000ffc:	f002 f841 	bl	8003082 <HAL_UART_Receive_IT>
		return;
 8001000:	e7ee      	b.n	8000fe0 <procMIDI+0x2c>
		MIDInoteOn(MIDInote);
 8001002:	f7ff ff1f 	bl	8000e44 <MIDInoteOn>
		HAL_UART_Receive_IT(&huart2, rx_buff, 1);
 8001006:	2201      	movs	r2, #1
 8001008:	490e      	ldr	r1, [pc, #56]	; (8001044 <procMIDI+0x90>)
 800100a:	480f      	ldr	r0, [pc, #60]	; (8001048 <procMIDI+0x94>)
 800100c:	f002 f839 	bl	8003082 <HAL_UART_Receive_IT>
		return;
 8001010:	e7e6      	b.n	8000fe0 <procMIDI+0x2c>
		ProcessRXdMidiCCs();
 8001012:	f7ff fe7f 	bl	8000d14 <ProcessRXdMidiCCs>
		HAL_UART_Receive_IT(&huart2, rx_buff, 1);
 8001016:	2201      	movs	r2, #1
 8001018:	490a      	ldr	r1, [pc, #40]	; (8001044 <procMIDI+0x90>)
 800101a:	480b      	ldr	r0, [pc, #44]	; (8001048 <procMIDI+0x94>)
 800101c:	f002 f831 	bl	8003082 <HAL_UART_Receive_IT>
		return;
 8001020:	e7de      	b.n	8000fe0 <procMIDI+0x2c>
		doPitchBnd();
 8001022:	f7ff ff9b 	bl	8000f5c <doPitchBnd>
		HAL_UART_Receive_IT(&huart2, rx_buff, 1);
 8001026:	2201      	movs	r2, #1
 8001028:	4906      	ldr	r1, [pc, #24]	; (8001044 <procMIDI+0x90>)
 800102a:	4807      	ldr	r0, [pc, #28]	; (8001048 <procMIDI+0x94>)
 800102c:	f002 f829 	bl	8003082 <HAL_UART_Receive_IT>
		return;
 8001030:	e7d6      	b.n	8000fe0 <procMIDI+0x2c>
 8001032:	bf00      	nop
 8001034:	20001054 	.word	0x20001054
 8001038:	20001050 	.word	0x20001050
 800103c:	200010a0 	.word	0x200010a0
 8001040:	20001057 	.word	0x20001057
 8001044:	200000ac 	.word	0x200000ac
 8001048:	200010a4 	.word	0x200010a4

0800104c <HAL_UART_RxCpltCallback>:
void HAL_UART_RxCpltCallback(UART_HandleTypeDef *huart) {
 800104c:	b508      	push	{r3, lr}
	if (rx_buff[0] >= 0xF0) {
 800104e:	4b19      	ldr	r3, [pc, #100]	; (80010b4 <HAL_UART_RxCpltCallback+0x68>)
 8001050:	781b      	ldrb	r3, [r3, #0]
 8001052:	2bef      	cmp	r3, #239	; 0xef
 8001054:	d80f      	bhi.n	8001076 <HAL_UART_RxCpltCallback+0x2a>
	if (rx_buff[0] & 0x80) {
 8001056:	f013 0f80 	tst.w	r3, #128	; 0x80
 800105a:	d112      	bne.n	8001082 <HAL_UART_RxCpltCallback+0x36>
	if (noteByteFlag) {
 800105c:	4a16      	ldr	r2, [pc, #88]	; (80010b8 <HAL_UART_RxCpltCallback+0x6c>)
 800105e:	7852      	ldrb	r2, [r2, #1]
 8001060:	b9d2      	cbnz	r2, 8001098 <HAL_UART_RxCpltCallback+0x4c>
	MIDI_rx[1] = rx_buff[0];
 8001062:	4a16      	ldr	r2, [pc, #88]	; (80010bc <HAL_UART_RxCpltCallback+0x70>)
 8001064:	7053      	strb	r3, [r2, #1]
	noteByteFlag = 1;//set flag so we stop at above evaluation
 8001066:	2201      	movs	r2, #1
 8001068:	4b13      	ldr	r3, [pc, #76]	; (80010b8 <HAL_UART_RxCpltCallback+0x6c>)
 800106a:	705a      	strb	r2, [r3, #1]
	HAL_UART_Receive_IT(&huart2, rx_buff, 1);
 800106c:	4911      	ldr	r1, [pc, #68]	; (80010b4 <HAL_UART_RxCpltCallback+0x68>)
 800106e:	4814      	ldr	r0, [pc, #80]	; (80010c0 <HAL_UART_RxCpltCallback+0x74>)
 8001070:	f002 f807 	bl	8003082 <HAL_UART_Receive_IT>
}
 8001074:	bd08      	pop	{r3, pc}
		HAL_UART_Receive_IT(&huart2, rx_buff, 1);
 8001076:	2201      	movs	r2, #1
 8001078:	490e      	ldr	r1, [pc, #56]	; (80010b4 <HAL_UART_RxCpltCallback+0x68>)
 800107a:	4811      	ldr	r0, [pc, #68]	; (80010c0 <HAL_UART_RxCpltCallback+0x74>)
 800107c:	f002 f801 	bl	8003082 <HAL_UART_Receive_IT>
		return;
 8001080:	e7f8      	b.n	8001074 <HAL_UART_RxCpltCallback+0x28>
		MIDI_rx[0] = rx_buff[0];
 8001082:	4a0e      	ldr	r2, [pc, #56]	; (80010bc <HAL_UART_RxCpltCallback+0x70>)
 8001084:	7013      	strb	r3, [r2, #0]
		noteByteFlag = 0;// clear the flag
 8001086:	4b0c      	ldr	r3, [pc, #48]	; (80010b8 <HAL_UART_RxCpltCallback+0x6c>)
 8001088:	2200      	movs	r2, #0
 800108a:	705a      	strb	r2, [r3, #1]
		HAL_UART_Receive_IT(&huart2, rx_buff, 1);
 800108c:	2201      	movs	r2, #1
 800108e:	4909      	ldr	r1, [pc, #36]	; (80010b4 <HAL_UART_RxCpltCallback+0x68>)
 8001090:	480b      	ldr	r0, [pc, #44]	; (80010c0 <HAL_UART_RxCpltCallback+0x74>)
 8001092:	f001 fff6 	bl	8003082 <HAL_UART_Receive_IT>
		return;
 8001096:	e7ed      	b.n	8001074 <HAL_UART_RxCpltCallback+0x28>
		noteByteFlag = 0;
 8001098:	4a07      	ldr	r2, [pc, #28]	; (80010b8 <HAL_UART_RxCpltCallback+0x6c>)
 800109a:	2100      	movs	r1, #0
 800109c:	7051      	strb	r1, [r2, #1]
		MIDI_rx[2] = rx_buff[0];
 800109e:	4a07      	ldr	r2, [pc, #28]	; (80010bc <HAL_UART_RxCpltCallback+0x70>)
 80010a0:	7093      	strb	r3, [r2, #2]
		HAL_UART_Receive_IT(&huart2, rx_buff, 1);
 80010a2:	2201      	movs	r2, #1
 80010a4:	4903      	ldr	r1, [pc, #12]	; (80010b4 <HAL_UART_RxCpltCallback+0x68>)
 80010a6:	4806      	ldr	r0, [pc, #24]	; (80010c0 <HAL_UART_RxCpltCallback+0x74>)
 80010a8:	f001 ffeb 	bl	8003082 <HAL_UART_Receive_IT>
		procMIDI();//we have three bytes, LET's GO PROCESS THEM!
 80010ac:	f7ff ff82 	bl	8000fb4 <procMIDI>
		return;
 80010b0:	e7e0      	b.n	8001074 <HAL_UART_RxCpltCallback+0x28>
 80010b2:	bf00      	nop
 80010b4:	200000ac 	.word	0x200000ac
 80010b8:	20000098 	.word	0x20000098
 80010bc:	20001054 	.word	0x20001054
 80010c0:	200010a4 	.word	0x200010a4

080010c4 <SystemClock_Config>:
{
 80010c4:	b570      	push	{r4, r5, r6, lr}
 80010c6:	b09a      	sub	sp, #104	; 0x68
  RCC_OscInitTypeDef RCC_OscInitStruct = {0};
 80010c8:	2230      	movs	r2, #48	; 0x30
 80010ca:	2100      	movs	r1, #0
 80010cc:	a80e      	add	r0, sp, #56	; 0x38
 80010ce:	f002 f953 	bl	8003378 <memset>
  RCC_ClkInitTypeDef RCC_ClkInitStruct = {0};
 80010d2:	2400      	movs	r4, #0
 80010d4:	9409      	str	r4, [sp, #36]	; 0x24
 80010d6:	940a      	str	r4, [sp, #40]	; 0x28
 80010d8:	940b      	str	r4, [sp, #44]	; 0x2c
 80010da:	940c      	str	r4, [sp, #48]	; 0x30
 80010dc:	940d      	str	r4, [sp, #52]	; 0x34
  RCC_PeriphCLKInitTypeDef PeriphClkInitStruct = {0};
 80010de:	9403      	str	r4, [sp, #12]
 80010e0:	9404      	str	r4, [sp, #16]
 80010e2:	9405      	str	r4, [sp, #20]
 80010e4:	9406      	str	r4, [sp, #24]
 80010e6:	9407      	str	r4, [sp, #28]
 80010e8:	9408      	str	r4, [sp, #32]
  __HAL_RCC_PWR_CLK_ENABLE();
 80010ea:	9401      	str	r4, [sp, #4]
 80010ec:	4b1f      	ldr	r3, [pc, #124]	; (800116c <SystemClock_Config+0xa8>)
 80010ee:	6c1a      	ldr	r2, [r3, #64]	; 0x40
 80010f0:	f042 5280 	orr.w	r2, r2, #268435456	; 0x10000000
 80010f4:	641a      	str	r2, [r3, #64]	; 0x40
 80010f6:	6c1b      	ldr	r3, [r3, #64]	; 0x40
 80010f8:	f003 5380 	and.w	r3, r3, #268435456	; 0x10000000
 80010fc:	9301      	str	r3, [sp, #4]
 80010fe:	9b01      	ldr	r3, [sp, #4]
  __HAL_PWR_VOLTAGESCALING_CONFIG(PWR_REGULATOR_VOLTAGE_SCALE1);
 8001100:	9402      	str	r4, [sp, #8]
 8001102:	4b1b      	ldr	r3, [pc, #108]	; (8001170 <SystemClock_Config+0xac>)
 8001104:	681a      	ldr	r2, [r3, #0]
 8001106:	f442 4240 	orr.w	r2, r2, #49152	; 0xc000
 800110a:	601a      	str	r2, [r3, #0]
 800110c:	681b      	ldr	r3, [r3, #0]
 800110e:	f403 4340 	and.w	r3, r3, #49152	; 0xc000
 8001112:	9302      	str	r3, [sp, #8]
 8001114:	9b02      	ldr	r3, [sp, #8]
  RCC_OscInitStruct.OscillatorType = RCC_OSCILLATORTYPE_HSE;
 8001116:	2601      	movs	r6, #1
 8001118:	960e      	str	r6, [sp, #56]	; 0x38
  RCC_OscInitStruct.HSEState = RCC_HSE_ON;
 800111a:	f44f 3380 	mov.w	r3, #65536	; 0x10000
 800111e:	930f      	str	r3, [sp, #60]	; 0x3c
  RCC_OscInitStruct.PLL.PLLState = RCC_PLL_ON;
 8001120:	2502      	movs	r5, #2
 8001122:	9514      	str	r5, [sp, #80]	; 0x50
  RCC_OscInitStruct.PLL.PLLSource = RCC_PLLSOURCE_HSE;
 8001124:	f44f 0380 	mov.w	r3, #4194304	; 0x400000
 8001128:	9315      	str	r3, [sp, #84]	; 0x54
  RCC_OscInitStruct.PLL.PLLM = 12;
 800112a:	230c      	movs	r3, #12
 800112c:	9316      	str	r3, [sp, #88]	; 0x58
  RCC_OscInitStruct.PLL.PLLN = 96;
 800112e:	2360      	movs	r3, #96	; 0x60
 8001130:	9317      	str	r3, [sp, #92]	; 0x5c
  RCC_OscInitStruct.PLL.PLLP = RCC_PLLP_DIV2;
 8001132:	9518      	str	r5, [sp, #96]	; 0x60
  RCC_OscInitStruct.PLL.PLLQ = 4;
 8001134:	2304      	movs	r3, #4
 8001136:	9319      	str	r3, [sp, #100]	; 0x64
  if (HAL_RCC_OscConfig(&RCC_OscInitStruct) != HAL_OK)
 8001138:	a80e      	add	r0, sp, #56	; 0x38
 800113a:	f001 fa11 	bl	8002560 <HAL_RCC_OscConfig>
  RCC_ClkInitStruct.ClockType = RCC_CLOCKTYPE_HCLK|RCC_CLOCKTYPE_SYSCLK
 800113e:	230f      	movs	r3, #15
 8001140:	9309      	str	r3, [sp, #36]	; 0x24
  RCC_ClkInitStruct.SYSCLKSource = RCC_SYSCLKSOURCE_PLLCLK;
 8001142:	950a      	str	r5, [sp, #40]	; 0x28
  RCC_ClkInitStruct.AHBCLKDivider = RCC_SYSCLK_DIV1;
 8001144:	940b      	str	r4, [sp, #44]	; 0x2c
  RCC_ClkInitStruct.APB1CLKDivider = RCC_HCLK_DIV2;
 8001146:	f44f 5380 	mov.w	r3, #4096	; 0x1000
 800114a:	930c      	str	r3, [sp, #48]	; 0x30
  RCC_ClkInitStruct.APB2CLKDivider = RCC_HCLK_DIV1;
 800114c:	940d      	str	r4, [sp, #52]	; 0x34
  if (HAL_RCC_ClockConfig(&RCC_ClkInitStruct, FLASH_LATENCY_3) != HAL_OK)
 800114e:	2103      	movs	r1, #3
 8001150:	a809      	add	r0, sp, #36	; 0x24
 8001152:	f001 fc4f 	bl	80029f4 <HAL_RCC_ClockConfig>
  PeriphClkInitStruct.PeriphClockSelection = RCC_PERIPHCLK_I2S;
 8001156:	9603      	str	r6, [sp, #12]
  PeriphClkInitStruct.PLLI2S.PLLI2SN = 194;
 8001158:	23c2      	movs	r3, #194	; 0xc2
 800115a:	9305      	str	r3, [sp, #20]
  PeriphClkInitStruct.PLLI2S.PLLI2SM = 16;
 800115c:	2310      	movs	r3, #16
 800115e:	9304      	str	r3, [sp, #16]
  PeriphClkInitStruct.PLLI2S.PLLI2SR = 2;
 8001160:	9506      	str	r5, [sp, #24]
  if (HAL_RCCEx_PeriphCLKConfig(&PeriphClkInitStruct) != HAL_OK)
 8001162:	a803      	add	r0, sp, #12
 8001164:	f001 fd1c 	bl	8002ba0 <HAL_RCCEx_PeriphCLKConfig>
}
 8001168:	b01a      	add	sp, #104	; 0x68
 800116a:	bd70      	pop	{r4, r5, r6, pc}
 800116c:	40023800 	.word	0x40023800
 8001170:	40007000 	.word	0x40007000

08001174 <main>:
{
 8001174:	b508      	push	{r3, lr}
  HAL_Init();
 8001176:	f000 fae3 	bl	8001740 <HAL_Init>
  SystemClock_Config();
 800117a:	f7ff ffa3 	bl	80010c4 <SystemClock_Config>
  MX_GPIO_Init();
 800117e:	f7ff fde9 	bl	8000d54 <MX_GPIO_Init>
  MX_DMA_Init();
 8001182:	f7ff fe1b 	bl	8000dbc <MX_DMA_Init>
  MX_I2S1_Init();
 8001186:	f7ff fe01 	bl	8000d8c <MX_I2S1_Init>
  MX_USART2_UART_Init();
 800118a:	f7ff fe31 	bl	8000df0 <MX_USART2_UART_Init>
  Synth_Init();//inits some basic settings to the oscillator
 800118e:	f000 fa0b 	bl	80015a8 <Synth_Init>
  HAL_I2S_Init(&hi2s1);
 8001192:	4c08      	ldr	r4, [pc, #32]	; (80011b4 <main+0x40>)
 8001194:	4620      	mov	r0, r4
 8001196:	f000 fe53 	bl	8001e40 <HAL_I2S_Init>
  HAL_I2S_Transmit_DMA(&hi2s1, (uint16_t*) &audiobuff[0], BUFF_LEN);
 800119a:	f44f 62fa 	mov.w	r2, #2000	; 0x7d0
 800119e:	4906      	ldr	r1, [pc, #24]	; (80011b8 <main+0x44>)
 80011a0:	4620      	mov	r0, r4
 80011a2:	f000 ff1b 	bl	8001fdc <HAL_I2S_Transmit_DMA>
	HAL_UART_Receive_IT(&huart2, rx_buff, 1);
 80011a6:	2201      	movs	r2, #1
 80011a8:	4904      	ldr	r1, [pc, #16]	; (80011bc <main+0x48>)
 80011aa:	4805      	ldr	r0, [pc, #20]	; (80011c0 <main+0x4c>)
 80011ac:	f001 ff69 	bl	8003082 <HAL_UART_Receive_IT>
 80011b0:	e7f9      	b.n	80011a6 <main+0x32>
 80011b2:	bf00      	nop
 80011b4:	20001058 	.word	0x20001058
 80011b8:	200000b0 	.word	0x200000b0
 80011bc:	200000ac 	.word	0x200000ac
 80011c0:	200010a4 	.word	0x200010a4

080011c4 <Error_Handler>:
{
  /* USER CODE BEGIN Error_Handler_Debug */
  /* User can add his own implementation to report the HAL error return state */

  /* USER CODE END Error_Handler_Debug */
}
 80011c4:	4770      	bx	lr

080011c6 <osc_init>:
 80011c6:	ed80 0a00 	vstr	s0, [r0]
 80011ca:	ed80 0a01 	vstr	s0, [r0, #4]
 80011ce:	2300      	movs	r3, #0
 80011d0:	7303      	strb	r3, [r0, #12]
 80011d2:	7343      	strb	r3, [r0, #13]
 80011d4:	edc0 0a02 	vstr	s1, [r0, #8]
 80011d8:	2300      	movs	r3, #0
 80011da:	6103      	str	r3, [r0, #16]
 80011dc:	6203      	str	r3, [r0, #32]
 80011de:	6183      	str	r3, [r0, #24]
 80011e0:	f04f 537e 	mov.w	r3, #1065353216	; 0x3f800000
 80011e4:	61c3      	str	r3, [r0, #28]
 80011e6:	4770      	bx	lr

080011e8 <OpSetFreq>:
 80011e8:	ed80 0a02 	vstr	s0, [r0, #8]
 80011ec:	4770      	bx	lr
	...

080011f0 <BasicSaw>:
 80011f0:	e005      	b.n	80011fe <BasicSaw+0xe>
 80011f2:	ed9f 7a29 	vldr	s14, [pc, #164]	; 8001298 <BasicSaw+0xa8>
 80011f6:	ee77 7a87 	vadd.f32	s15, s15, s14
 80011fa:	edc0 7a04 	vstr	s15, [r0, #16]
 80011fe:	edd0 7a04 	vldr	s15, [r0, #16]
 8001202:	eef5 7ac0 	vcmpe.f32	s15, #0.0
 8001206:	eef1 fa10 	vmrs	APSR_nzcv, fpscr
 800120a:	d4f2      	bmi.n	80011f2 <BasicSaw+0x2>
 800120c:	e005      	b.n	800121a <BasicSaw+0x2a>
 800120e:	ed9f 7a22 	vldr	s14, [pc, #136]	; 8001298 <BasicSaw+0xa8>
 8001212:	ee77 7ac7 	vsub.f32	s15, s15, s14
 8001216:	edc0 7a04 	vstr	s15, [r0, #16]
 800121a:	edd0 7a04 	vldr	s15, [r0, #16]
 800121e:	ed9f 7a1e 	vldr	s14, [pc, #120]	; 8001298 <BasicSaw+0xa8>
 8001222:	eef4 7ac7 	vcmpe.f32	s15, s14
 8001226:	eef1 fa10 	vmrs	APSR_nzcv, fpscr
 800122a:	daf0      	bge.n	800120e <BasicSaw+0x1e>
 800122c:	ed9f 7a1b 	vldr	s14, [pc, #108]	; 800129c <BasicSaw+0xac>
 8001230:	eef4 7ac7 	vcmpe.f32	s15, s14
 8001234:	eef1 fa10 	vmrs	APSR_nzcv, fpscr
 8001238:	d41e      	bmi.n	8001278 <BasicSaw+0x88>
 800123a:	ed90 7a00 	vldr	s14, [r0]
 800123e:	eef6 6a00 	vmov.f32	s13, #96	; 0x3f000000  0.5
 8001242:	ee27 7a26 	vmul.f32	s14, s14, s13
 8001246:	ed9f 6a15 	vldr	s12, [pc, #84]	; 800129c <BasicSaw+0xac>
 800124a:	eec7 6a86 	vdiv.f32	s13, s15, s12
 800124e:	eeb0 6a00 	vmov.f32	s12, #0	; 0x40000000  2.0
 8001252:	ee76 6ac6 	vsub.f32	s13, s13, s12
 8001256:	ee27 7a26 	vmul.f32	s14, s14, s13
 800125a:	ed80 7a08 	vstr	s14, [r0, #32]
 800125e:	ed90 7a02 	vldr	s14, [r0, #8]
 8001262:	eddf 6a0f 	vldr	s13, [pc, #60]	; 80012a0 <BasicSaw+0xb0>
 8001266:	ee27 7a26 	vmul.f32	s14, s14, s13
 800126a:	ee77 7a87 	vadd.f32	s15, s15, s14
 800126e:	edc0 7a04 	vstr	s15, [r0, #16]
 8001272:	ed90 0a08 	vldr	s0, [r0, #32]
 8001276:	4770      	bx	lr
 8001278:	ed90 7a00 	vldr	s14, [r0]
 800127c:	eef6 6a00 	vmov.f32	s13, #96	; 0x3f000000  0.5
 8001280:	ee27 7a26 	vmul.f32	s14, s14, s13
 8001284:	ed9f 6a05 	vldr	s12, [pc, #20]	; 800129c <BasicSaw+0xac>
 8001288:	eec7 6a86 	vdiv.f32	s13, s15, s12
 800128c:	ee27 7a26 	vmul.f32	s14, s14, s13
 8001290:	ed80 7a08 	vstr	s14, [r0, #32]
 8001294:	e7e3      	b.n	800125e <BasicSaw+0x6e>
 8001296:	bf00      	nop
 8001298:	40c90fdb 	.word	0x40c90fdb
 800129c:	40490fdb 	.word	0x40490fdb
 80012a0:	394de32f 	.word	0x394de32f

080012a4 <BasicTriangle>:
 80012a4:	e005      	b.n	80012b2 <BasicTriangle+0xe>
 80012a6:	ed9f 7a27 	vldr	s14, [pc, #156]	; 8001344 <BasicTriangle+0xa0>
 80012aa:	ee77 7a87 	vadd.f32	s15, s15, s14
 80012ae:	edc0 7a04 	vstr	s15, [r0, #16]
 80012b2:	edd0 7a04 	vldr	s15, [r0, #16]
 80012b6:	eef5 7ac0 	vcmpe.f32	s15, #0.0
 80012ba:	eef1 fa10 	vmrs	APSR_nzcv, fpscr
 80012be:	d4f2      	bmi.n	80012a6 <BasicTriangle+0x2>
 80012c0:	e005      	b.n	80012ce <BasicTriangle+0x2a>
 80012c2:	ed9f 7a20 	vldr	s14, [pc, #128]	; 8001344 <BasicTriangle+0xa0>
 80012c6:	ee77 7ac7 	vsub.f32	s15, s15, s14
 80012ca:	edc0 7a04 	vstr	s15, [r0, #16]
 80012ce:	edd0 7a04 	vldr	s15, [r0, #16]
 80012d2:	ed9f 7a1c 	vldr	s14, [pc, #112]	; 8001344 <BasicTriangle+0xa0>
 80012d6:	eef4 7ac7 	vcmpe.f32	s15, s14
 80012da:	eef1 fa10 	vmrs	APSR_nzcv, fpscr
 80012de:	daf0      	bge.n	80012c2 <BasicTriangle+0x1e>
 80012e0:	ed9f 7a19 	vldr	s14, [pc, #100]	; 8001348 <BasicTriangle+0xa4>
 80012e4:	eef4 7ac7 	vcmpe.f32	s15, s14
 80012e8:	eef1 fa10 	vmrs	APSR_nzcv, fpscr
 80012ec:	d41a      	bmi.n	8001324 <BasicTriangle+0x80>
 80012ee:	edd0 6a00 	vldr	s13, [r0]
 80012f2:	ed9f 7a16 	vldr	s14, [pc, #88]	; 800134c <BasicTriangle+0xa8>
 80012f6:	ee27 7a87 	vmul.f32	s14, s15, s14
 80012fa:	eeb0 6a08 	vmov.f32	s12, #8	; 0x40400000  3.0
 80012fe:	ee37 7a46 	vsub.f32	s14, s14, s12
 8001302:	ee26 7a87 	vmul.f32	s14, s13, s14
 8001306:	ed80 7a08 	vstr	s14, [r0, #32]
 800130a:	ed90 7a02 	vldr	s14, [r0, #8]
 800130e:	eddf 6a10 	vldr	s13, [pc, #64]	; 8001350 <BasicTriangle+0xac>
 8001312:	ee27 7a26 	vmul.f32	s14, s14, s13
 8001316:	ee77 7a87 	vadd.f32	s15, s15, s14
 800131a:	edc0 7a04 	vstr	s15, [r0, #16]
 800131e:	ed90 0a08 	vldr	s0, [r0, #32]
 8001322:	4770      	bx	lr
 8001324:	edd0 6a00 	vldr	s13, [r0]
 8001328:	ed9f 7a0a 	vldr	s14, [pc, #40]	; 8001354 <BasicTriangle+0xb0>
 800132c:	ee27 7a87 	vmul.f32	s14, s15, s14
 8001330:	eeb7 6a00 	vmov.f32	s12, #112	; 0x3f800000  1.0
 8001334:	ee37 7a06 	vadd.f32	s14, s14, s12
 8001338:	ee26 7a87 	vmul.f32	s14, s13, s14
 800133c:	ed80 7a08 	vstr	s14, [r0, #32]
 8001340:	e7e3      	b.n	800130a <BasicTriangle+0x66>
 8001342:	bf00      	nop
 8001344:	40c90fdb 	.word	0x40c90fdb
 8001348:	40490fdb 	.word	0x40490fdb
 800134c:	3f22f983 	.word	0x3f22f983
 8001350:	394de32f 	.word	0x394de32f
 8001354:	bf22f983 	.word	0xbf22f983

08001358 <waveCompute>:
 8001358:	b510      	push	{r4, lr}
 800135a:	4c06      	ldr	r4, [pc, #24]	; (8001374 <waveCompute+0x1c>)
 800135c:	4620      	mov	r0, r4
 800135e:	f7ff ff43 	bl	80011e8 <OpSetFreq>
 8001362:	4620      	mov	r0, r4
 8001364:	f7ff ff44 	bl	80011f0 <BasicSaw>
 8001368:	eddf 7a03 	vldr	s15, [pc, #12]	; 8001378 <waveCompute+0x20>
 800136c:	ee20 0a27 	vmul.f32	s0, s0, s15
 8001370:	bd10      	pop	{r4, pc}
 8001372:	bf00      	nop
 8001374:	20001144 	.word	0x20001144
 8001378:	3f4ccccd 	.word	0x3f4ccccd

0800137c <SynthOut_amp_set>:
extern Oscillator_t 		op1 ;
extern Oscillator_t 		vibr_lfo;

/*-----------------------------------------------------------*/
void SynthOut_amp_set(uint8_t val){
  vol= (val/ MIDI_MAX)*(val/ MIDI_MAX);// creates a value of --> Zero and 0.007(val=1) up to 1(val=127)
 800137c:	ee07 0a90 	vmov	s15, r0
 8001380:	eef8 6ae7 	vcvt.f32.s32	s13, s15
 8001384:	ed9f 7a04 	vldr	s14, [pc, #16]	; 8001398 <SynthOut_amp_set+0x1c>
 8001388:	eec6 7a87 	vdiv.f32	s15, s13, s14
 800138c:	ee67 7aa7 	vmul.f32	s15, s15, s15
 8001390:	4b02      	ldr	r3, [pc, #8]	; (800139c <SynthOut_amp_set+0x20>)
 8001392:	edc3 7a00 	vstr	s15, [r3]

}
 8001396:	4770      	bx	lr
 8001398:	42fe0000 	.word	0x42fe0000
 800139c:	2000118c 	.word	0x2000118c

080013a0 <Vibrato_amp_set>:
/*-----------------------------------------------------------*/
void Vibrato_amp_set(uint8_t val){
  vibr_lfo.amp = (MAX_VIBRATO_AMP / MIDI_MAX * val)*(MAX_VIBRATO_AMP / MIDI_MAX * val);
 80013a0:	ee07 0a90 	vmov	s15, r0
 80013a4:	eef8 7ae7 	vcvt.f32.s32	s15, s15
 80013a8:	ed9f 7a04 	vldr	s14, [pc, #16]	; 80013bc <Vibrato_amp_set+0x1c>
 80013ac:	ee67 7a87 	vmul.f32	s15, s15, s14
 80013b0:	ee67 7aa7 	vmul.f32	s15, s15, s15
 80013b4:	4b02      	ldr	r3, [pc, #8]	; (80013c0 <Vibrato_amp_set+0x20>)
 80013b6:	edc3 7a00 	vstr	s15, [r3]
}
 80013ba:	4770      	bx	lr
 80013bc:	3b810204 	.word	0x3b810204
 80013c0:	20001168 	.word	0x20001168

080013c4 <VibratoFreq_set>:

/*-----------------------------------------------------------*/
void VibratoFreq_set(uint8_t val)
{
	vibr_lfo.freq = MAX_VIBRATO_FREQ / MIDI_MAX * val;
 80013c4:	ee07 0a90 	vmov	s15, r0
 80013c8:	eef8 7ae7 	vcvt.f32.s32	s15, s15
 80013cc:	ed9f 7a03 	vldr	s14, [pc, #12]	; 80013dc <VibratoFreq_set+0x18>
 80013d0:	ee67 7a87 	vmul.f32	s15, s15, s14
 80013d4:	4b02      	ldr	r3, [pc, #8]	; (80013e0 <VibratoFreq_set+0x1c>)
 80013d6:	edc3 7a02 	vstr	s15, [r3, #8]
}
 80013da:	4770      	bx	lr
 80013dc:	3dc18306 	.word	0x3dc18306
 80013e0:	20001168 	.word	0x20001168

080013e4 <HAL_MspInit>:
/* USER CODE END 0 */
/**
  * Initializes the Global MSP.
  */
void HAL_MspInit(void)
{
 80013e4:	b082      	sub	sp, #8
  /* USER CODE BEGIN MspInit 0 */

  /* USER CODE END MspInit 0 */

  __HAL_RCC_SYSCFG_CLK_ENABLE();
 80013e6:	2100      	movs	r1, #0
 80013e8:	9100      	str	r1, [sp, #0]
 80013ea:	4b0b      	ldr	r3, [pc, #44]	; (8001418 <HAL_MspInit+0x34>)
 80013ec:	6c5a      	ldr	r2, [r3, #68]	; 0x44
 80013ee:	f442 4280 	orr.w	r2, r2, #16384	; 0x4000
 80013f2:	645a      	str	r2, [r3, #68]	; 0x44
 80013f4:	6c5a      	ldr	r2, [r3, #68]	; 0x44
 80013f6:	f402 4280 	and.w	r2, r2, #16384	; 0x4000
 80013fa:	9200      	str	r2, [sp, #0]
 80013fc:	9a00      	ldr	r2, [sp, #0]
  __HAL_RCC_PWR_CLK_ENABLE();
 80013fe:	9101      	str	r1, [sp, #4]
 8001400:	6c1a      	ldr	r2, [r3, #64]	; 0x40
 8001402:	f042 5280 	orr.w	r2, r2, #268435456	; 0x10000000
 8001406:	641a      	str	r2, [r3, #64]	; 0x40
 8001408:	6c1b      	ldr	r3, [r3, #64]	; 0x40
 800140a:	f003 5380 	and.w	r3, r3, #268435456	; 0x10000000
 800140e:	9301      	str	r3, [sp, #4]
 8001410:	9b01      	ldr	r3, [sp, #4]
  /* System interrupt init*/

  /* USER CODE BEGIN MspInit 1 */

  /* USER CODE END MspInit 1 */
}
 8001412:	b002      	add	sp, #8
 8001414:	4770      	bx	lr
 8001416:	bf00      	nop
 8001418:	40023800 	.word	0x40023800

0800141c <HAL_I2S_MspInit>:
* This function configures the hardware resources used in this example
* @param hi2s: I2S handle pointer
* @retval None
*/
void HAL_I2S_MspInit(I2S_HandleTypeDef* hi2s)
{
 800141c:	b530      	push	{r4, r5, lr}
 800141e:	b089      	sub	sp, #36	; 0x24
  GPIO_InitTypeDef GPIO_InitStruct = {0};
 8001420:	2300      	movs	r3, #0
 8001422:	9303      	str	r3, [sp, #12]
 8001424:	9304      	str	r3, [sp, #16]
 8001426:	9305      	str	r3, [sp, #20]
 8001428:	9306      	str	r3, [sp, #24]
 800142a:	9307      	str	r3, [sp, #28]
  if(hi2s->Instance==SPI1)
 800142c:	6802      	ldr	r2, [r0, #0]
 800142e:	4b26      	ldr	r3, [pc, #152]	; (80014c8 <HAL_I2S_MspInit+0xac>)
 8001430:	429a      	cmp	r2, r3
 8001432:	d001      	beq.n	8001438 <HAL_I2S_MspInit+0x1c>
  /* USER CODE BEGIN SPI1_MspInit 1 */

  /* USER CODE END SPI1_MspInit 1 */
  }

}
 8001434:	b009      	add	sp, #36	; 0x24
 8001436:	bd30      	pop	{r4, r5, pc}
 8001438:	4604      	mov	r4, r0
    __HAL_RCC_SPI1_CLK_ENABLE();
 800143a:	2500      	movs	r5, #0
 800143c:	9501      	str	r5, [sp, #4]
 800143e:	f503 3384 	add.w	r3, r3, #67584	; 0x10800
 8001442:	6c5a      	ldr	r2, [r3, #68]	; 0x44
 8001444:	f442 5280 	orr.w	r2, r2, #4096	; 0x1000
 8001448:	645a      	str	r2, [r3, #68]	; 0x44
 800144a:	6c5a      	ldr	r2, [r3, #68]	; 0x44
 800144c:	f402 5280 	and.w	r2, r2, #4096	; 0x1000
 8001450:	9201      	str	r2, [sp, #4]
 8001452:	9a01      	ldr	r2, [sp, #4]
    __HAL_RCC_GPIOA_CLK_ENABLE();
 8001454:	9502      	str	r5, [sp, #8]
 8001456:	6b1a      	ldr	r2, [r3, #48]	; 0x30
 8001458:	f042 0201 	orr.w	r2, r2, #1
 800145c:	631a      	str	r2, [r3, #48]	; 0x30
 800145e:	6b1b      	ldr	r3, [r3, #48]	; 0x30
 8001460:	f003 0301 	and.w	r3, r3, #1
 8001464:	9302      	str	r3, [sp, #8]
 8001466:	9b02      	ldr	r3, [sp, #8]
    GPIO_InitStruct.Pin = GPIO_PIN_4|GPIO_PIN_5|GPIO_PIN_7;
 8001468:	23b0      	movs	r3, #176	; 0xb0
 800146a:	9303      	str	r3, [sp, #12]
    GPIO_InitStruct.Mode = GPIO_MODE_AF_PP;
 800146c:	2302      	movs	r3, #2
 800146e:	9304      	str	r3, [sp, #16]
    GPIO_InitStruct.Alternate = GPIO_AF5_SPI1;
 8001470:	2305      	movs	r3, #5
 8001472:	9307      	str	r3, [sp, #28]
    HAL_GPIO_Init(GPIOA, &GPIO_InitStruct);
 8001474:	a903      	add	r1, sp, #12
 8001476:	4815      	ldr	r0, [pc, #84]	; (80014cc <HAL_I2S_MspInit+0xb0>)
 8001478:	f000 fc10 	bl	8001c9c <HAL_GPIO_Init>
    hdma_spi1_tx.Instance = DMA2_Stream2;
 800147c:	4814      	ldr	r0, [pc, #80]	; (80014d0 <HAL_I2S_MspInit+0xb4>)
 800147e:	4b15      	ldr	r3, [pc, #84]	; (80014d4 <HAL_I2S_MspInit+0xb8>)
 8001480:	6003      	str	r3, [r0, #0]
    hdma_spi1_tx.Init.Channel = DMA_CHANNEL_2;
 8001482:	f04f 6380 	mov.w	r3, #67108864	; 0x4000000
 8001486:	6043      	str	r3, [r0, #4]
    hdma_spi1_tx.Init.Direction = DMA_MEMORY_TO_PERIPH;
 8001488:	2340      	movs	r3, #64	; 0x40
 800148a:	6083      	str	r3, [r0, #8]
    hdma_spi1_tx.Init.PeriphInc = DMA_PINC_DISABLE;
 800148c:	60c5      	str	r5, [r0, #12]
    hdma_spi1_tx.Init.MemInc = DMA_MINC_ENABLE;
 800148e:	f44f 6380 	mov.w	r3, #1024	; 0x400
 8001492:	6103      	str	r3, [r0, #16]
    hdma_spi1_tx.Init.PeriphDataAlignment = DMA_PDATAALIGN_HALFWORD;
 8001494:	f44f 6300 	mov.w	r3, #2048	; 0x800
 8001498:	6143      	str	r3, [r0, #20]
    hdma_spi1_tx.Init.MemDataAlignment = DMA_MDATAALIGN_HALFWORD;
 800149a:	f44f 5300 	mov.w	r3, #8192	; 0x2000
 800149e:	6183      	str	r3, [r0, #24]
    hdma_spi1_tx.Init.Mode = DMA_CIRCULAR;
 80014a0:	f44f 7380 	mov.w	r3, #256	; 0x100
 80014a4:	61c3      	str	r3, [r0, #28]
    hdma_spi1_tx.Init.Priority = DMA_PRIORITY_LOW;
 80014a6:	6205      	str	r5, [r0, #32]
    hdma_spi1_tx.Init.FIFOMode = DMA_FIFOMODE_ENABLE;
 80014a8:	2304      	movs	r3, #4
 80014aa:	6243      	str	r3, [r0, #36]	; 0x24
    hdma_spi1_tx.Init.FIFOThreshold = DMA_FIFO_THRESHOLD_FULL;
 80014ac:	2303      	movs	r3, #3
 80014ae:	6283      	str	r3, [r0, #40]	; 0x28
    hdma_spi1_tx.Init.MemBurst = DMA_MBURST_SINGLE;
 80014b0:	62c5      	str	r5, [r0, #44]	; 0x2c
    hdma_spi1_tx.Init.PeriphBurst = DMA_PBURST_SINGLE;
 80014b2:	6305      	str	r5, [r0, #48]	; 0x30
    if (HAL_DMA_Init(&hdma_spi1_tx) != HAL_OK)
 80014b4:	f000 fa56 	bl	8001964 <HAL_DMA_Init>
 80014b8:	b918      	cbnz	r0, 80014c2 <HAL_I2S_MspInit+0xa6>
    __HAL_LINKDMA(hi2s,hdmatx,hdma_spi1_tx);
 80014ba:	4b05      	ldr	r3, [pc, #20]	; (80014d0 <HAL_I2S_MspInit+0xb4>)
 80014bc:	63a3      	str	r3, [r4, #56]	; 0x38
 80014be:	639c      	str	r4, [r3, #56]	; 0x38
}
 80014c0:	e7b8      	b.n	8001434 <HAL_I2S_MspInit+0x18>
      Error_Handler();
 80014c2:	f7ff fe7f 	bl	80011c4 <Error_Handler>
 80014c6:	e7f8      	b.n	80014ba <HAL_I2S_MspInit+0x9e>
 80014c8:	40013000 	.word	0x40013000
 80014cc:	40020000 	.word	0x40020000
 80014d0:	200010e4 	.word	0x200010e4
 80014d4:	40026440 	.word	0x40026440

080014d8 <HAL_UART_MspInit>:
* This function configures the hardware resources used in this example
* @param huart: UART handle pointer
* @retval None
*/
void HAL_UART_MspInit(UART_HandleTypeDef* huart)
{
 80014d8:	b510      	push	{r4, lr}
 80014da:	b088      	sub	sp, #32
  GPIO_InitTypeDef GPIO_InitStruct = {0};
 80014dc:	2300      	movs	r3, #0
 80014de:	9303      	str	r3, [sp, #12]
 80014e0:	9304      	str	r3, [sp, #16]
 80014e2:	9305      	str	r3, [sp, #20]
 80014e4:	9306      	str	r3, [sp, #24]
 80014e6:	9307      	str	r3, [sp, #28]
  if(huart->Instance==USART2)
 80014e8:	6802      	ldr	r2, [r0, #0]
 80014ea:	4b18      	ldr	r3, [pc, #96]	; (800154c <HAL_UART_MspInit+0x74>)
 80014ec:	429a      	cmp	r2, r3
 80014ee:	d001      	beq.n	80014f4 <HAL_UART_MspInit+0x1c>
  /* USER CODE BEGIN USART2_MspInit 1 */

  /* USER CODE END USART2_MspInit 1 */
  }

}
 80014f0:	b008      	add	sp, #32
 80014f2:	bd10      	pop	{r4, pc}
    __HAL_RCC_USART2_CLK_ENABLE();
 80014f4:	2400      	movs	r4, #0
 80014f6:	9401      	str	r4, [sp, #4]
 80014f8:	f503 33fa 	add.w	r3, r3, #128000	; 0x1f400
 80014fc:	6c1a      	ldr	r2, [r3, #64]	; 0x40
 80014fe:	f442 3200 	orr.w	r2, r2, #131072	; 0x20000
 8001502:	641a      	str	r2, [r3, #64]	; 0x40
 8001504:	6c1a      	ldr	r2, [r3, #64]	; 0x40
 8001506:	f402 3200 	and.w	r2, r2, #131072	; 0x20000
 800150a:	9201      	str	r2, [sp, #4]
 800150c:	9a01      	ldr	r2, [sp, #4]
    __HAL_RCC_GPIOA_CLK_ENABLE();
 800150e:	9402      	str	r4, [sp, #8]
 8001510:	6b1a      	ldr	r2, [r3, #48]	; 0x30
 8001512:	f042 0201 	orr.w	r2, r2, #1
 8001516:	631a      	str	r2, [r3, #48]	; 0x30
 8001518:	6b1b      	ldr	r3, [r3, #48]	; 0x30
 800151a:	f003 0301 	and.w	r3, r3, #1
 800151e:	9302      	str	r3, [sp, #8]
 8001520:	9b02      	ldr	r3, [sp, #8]
    GPIO_InitStruct.Pin = GPIO_PIN_2|GPIO_PIN_3;
 8001522:	230c      	movs	r3, #12
 8001524:	9303      	str	r3, [sp, #12]
    GPIO_InitStruct.Mode = GPIO_MODE_AF_PP;
 8001526:	2302      	movs	r3, #2
 8001528:	9304      	str	r3, [sp, #16]
    GPIO_InitStruct.Speed = GPIO_SPEED_FREQ_VERY_HIGH;
 800152a:	2303      	movs	r3, #3
 800152c:	9306      	str	r3, [sp, #24]
    GPIO_InitStruct.Alternate = GPIO_AF7_USART2;
 800152e:	2307      	movs	r3, #7
 8001530:	9307      	str	r3, [sp, #28]
    HAL_GPIO_Init(GPIOA, &GPIO_InitStruct);
 8001532:	a903      	add	r1, sp, #12
 8001534:	4806      	ldr	r0, [pc, #24]	; (8001550 <HAL_UART_MspInit+0x78>)
 8001536:	f000 fbb1 	bl	8001c9c <HAL_GPIO_Init>
    HAL_NVIC_SetPriority(USART2_IRQn, 0, 0);
 800153a:	4622      	mov	r2, r4
 800153c:	4621      	mov	r1, r4
 800153e:	2026      	movs	r0, #38	; 0x26
 8001540:	f000 f93c 	bl	80017bc <HAL_NVIC_SetPriority>
    HAL_NVIC_EnableIRQ(USART2_IRQn);
 8001544:	2026      	movs	r0, #38	; 0x26
 8001546:	f000 f96d 	bl	8001824 <HAL_NVIC_EnableIRQ>
}
 800154a:	e7d1      	b.n	80014f0 <HAL_UART_MspInit+0x18>
 800154c:	40004400 	.word	0x40004400
 8001550:	40020000 	.word	0x40020000

08001554 <NMI_Handler>:

  /* USER CODE END NonMaskableInt_IRQn 0 */
  /* USER CODE BEGIN NonMaskableInt_IRQn 1 */

  /* USER CODE END NonMaskableInt_IRQn 1 */
}
 8001554:	4770      	bx	lr

08001556 <HardFault_Handler>:

/**
  * @brief This function handles Hard fault interrupt.
  */
void HardFault_Handler(void)
{
 8001556:	e7fe      	b.n	8001556 <HardFault_Handler>

08001558 <MemManage_Handler>:

/**
  * @brief This function handles Memory management fault.
  */
void MemManage_Handler(void)
{
 8001558:	e7fe      	b.n	8001558 <MemManage_Handler>

0800155a <BusFault_Handler>:

/**
  * @brief This function handles Pre-fetch fault, memory access fault.
  */
void BusFault_Handler(void)
{
 800155a:	e7fe      	b.n	800155a <BusFault_Handler>

0800155c <UsageFault_Handler>:

/**
  * @brief This function handles Undefined instruction or illegal state.
  */
void UsageFault_Handler(void)
{
 800155c:	e7fe      	b.n	800155c <UsageFault_Handler>

0800155e <SVC_Handler>:

  /* USER CODE END SVCall_IRQn 0 */
  /* USER CODE BEGIN SVCall_IRQn 1 */

  /* USER CODE END SVCall_IRQn 1 */
}
 800155e:	4770      	bx	lr

08001560 <DebugMon_Handler>:

  /* USER CODE END DebugMonitor_IRQn 0 */
  /* USER CODE BEGIN DebugMonitor_IRQn 1 */

  /* USER CODE END DebugMonitor_IRQn 1 */
}
 8001560:	4770      	bx	lr

08001562 <PendSV_Handler>:

  /* USER CODE END PendSV_IRQn 0 */
  /* USER CODE BEGIN PendSV_IRQn 1 */

  /* USER CODE END PendSV_IRQn 1 */
}
 8001562:	4770      	bx	lr

08001564 <SysTick_Handler>:

/**
  * @brief This function handles System tick timer.
  */
void SysTick_Handler(void)
{
 8001564:	b508      	push	{r3, lr}
  /* USER CODE BEGIN SysTick_IRQn 0 */

  /* USER CODE END SysTick_IRQn 0 */
  HAL_IncTick();
 8001566:	f000 f905 	bl	8001774 <HAL_IncTick>
  /* USER CODE BEGIN SysTick_IRQn 1 */

  /* USER CODE END SysTick_IRQn 1 */
}
 800156a:	bd08      	pop	{r3, pc}

0800156c <USART2_IRQHandler>:

/**
  * @brief This function handles USART2 global interrupt.
  */
void USART2_IRQHandler(void)
{
 800156c:	b508      	push	{r3, lr}
  /* USER CODE BEGIN USART2_IRQn 0 */

  /* USER CODE END USART2_IRQn 0 */
  HAL_UART_IRQHandler(&huart2);
 800156e:	4802      	ldr	r0, [pc, #8]	; (8001578 <USART2_IRQHandler+0xc>)
 8001570:	f001 fe12 	bl	8003198 <HAL_UART_IRQHandler>
  /* USER CODE BEGIN USART2_IRQn 1 */

  /* USER CODE END USART2_IRQn 1 */
}
 8001574:	bd08      	pop	{r3, pc}
 8001576:	bf00      	nop
 8001578:	200010a4 	.word	0x200010a4

0800157c <DMA2_Stream2_IRQHandler>:

/**
  * @brief This function handles DMA2 stream2 global interrupt.
  */
void DMA2_Stream2_IRQHandler(void)
{
 800157c:	b508      	push	{r3, lr}
  /* USER CODE BEGIN DMA2_Stream2_IRQn 0 */

  /* USER CODE END DMA2_Stream2_IRQn 0 */
  HAL_DMA_IRQHandler(&hdma_spi1_tx);
 800157e:	4802      	ldr	r0, [pc, #8]	; (8001588 <DMA2_Stream2_IRQHandler+0xc>)
 8001580:	f000 fa9e 	bl	8001ac0 <HAL_DMA_IRQHandler>
  /* USER CODE BEGIN DMA2_Stream2_IRQn 1 */

  /* USER CODE END DMA2_Stream2_IRQn 1 */
}
 8001584:	bd08      	pop	{r3, pc}
 8001586:	bf00      	nop
 8001588:	200010e4 	.word	0x200010e4

0800158c <SystemInit>:
 800158c:	4b05      	ldr	r3, [pc, #20]	; (80015a4 <SystemInit+0x18>)
 800158e:	f8d3 2088 	ldr.w	r2, [r3, #136]	; 0x88
 8001592:	f442 0270 	orr.w	r2, r2, #15728640	; 0xf00000
 8001596:	f8c3 2088 	str.w	r2, [r3, #136]	; 0x88
 800159a:	f04f 6200 	mov.w	r2, #134217728	; 0x8000000
 800159e:	609a      	str	r2, [r3, #8]
 80015a0:	4770      	bx	lr
 80015a2:	bf00      	nop
 80015a4:	e000ed00 	.word	0xe000ed00

080015a8 <Synth_Init>:

/*===============================================================================================================*/

//this will initialize basic settings to start the synth with
void Synth_Init(void)
{
 80015a8:	b508      	push	{r3, lr}
 80015aa:	ed2d 8b02 	vpush	{d8}
	vol=1;
 80015ae:	4b0b      	ldr	r3, [pc, #44]	; (80015dc <Synth_Init+0x34>)
 80015b0:	f04f 527e 	mov.w	r2, #1065353216	; 0x3f800000
 80015b4:	601a      	str	r2, [r3, #0]
	osc_init(&op1, 0.0f, 587.f);//inits the  &op1 oscillator
 80015b6:	ed9f 8a0a 	vldr	s16, [pc, #40]	; 80015e0 <Synth_Init+0x38>
 80015ba:	eddf 0a0a 	vldr	s1, [pc, #40]	; 80015e4 <Synth_Init+0x3c>
 80015be:	eeb0 0a48 	vmov.f32	s0, s16
 80015c2:	4809      	ldr	r0, [pc, #36]	; (80015e8 <Synth_Init+0x40>)
 80015c4:	f7ff fdff 	bl	80011c6 <osc_init>
	osc_init(&vibr_lfo, 0, VIBRATO_FREQ);//inits vibr LFO and it's freq
 80015c8:	eef2 0a04 	vmov.f32	s1, #36	; 0x41200000  10.0
 80015cc:	eeb0 0a48 	vmov.f32	s0, s16
 80015d0:	4806      	ldr	r0, [pc, #24]	; (80015ec <Synth_Init+0x44>)
 80015d2:	f7ff fdf8 	bl	80011c6 <osc_init>
}
 80015d6:	ecbd 8b02 	vpop	{d8}
 80015da:	bd08      	pop	{r3, pc}
 80015dc:	2000118c 	.word	0x2000118c
 80015e0:	00000000 	.word	0x00000000
 80015e4:	4412c000 	.word	0x4412c000
 80015e8:	20001144 	.word	0x20001144
 80015ec:	20001168 	.word	0x20001168

080015f0 <make_sound>:

/*-------------THIS IS WHERE THE MAGIC HAPPENS!!!-------------------
----(this function will create the samples for the DMA buffer)----*/

void make_sound(uint16_t *buf , uint16_t length){
 80015f0:	e92d 4370 	stmdb	sp!, {r4, r5, r6, r8, r9, lr}
 80015f4:	ed2d 8b02 	vpush	{d8}
 80015f8:	4605      	mov	r5, r0
 80015fa:	460e      	mov	r6, r1


	outp = buf;

	//MIDI note to frequency conversion equation
	f0=440.0 * powf(2.0, (float)(currNote - 69) * 0.08333333) * bendFactor;
 80015fc:	4b38      	ldr	r3, [pc, #224]	; (80016e0 <make_sound+0xf0>)
 80015fe:	7818      	ldrb	r0, [r3, #0]
 8001600:	3845      	subs	r0, #69	; 0x45
 8001602:	ee07 0a90 	vmov	s15, r0
 8001606:	eef8 7ae7 	vcvt.f32.s32	s15, s15
 800160a:	ee17 0a90 	vmov	r0, s15
 800160e:	f7fe ff47 	bl	80004a0 <__aeabi_f2d>
 8001612:	a331      	add	r3, pc, #196	; (adr r3, 80016d8 <make_sound+0xe8>)
 8001614:	e9d3 2300 	ldrd	r2, r3, [r3]
 8001618:	f7fe ff9a 	bl	8000550 <__aeabi_dmul>
 800161c:	f7ff f9aa 	bl	8000974 <__aeabi_d2f>
 8001620:	ee00 0a90 	vmov	s1, r0
 8001624:	eeb0 0a00 	vmov.f32	s0, #0	; 0x40000000  2.0
 8001628:	f001 feae 	bl	8003388 <powf>
 800162c:	ee10 0a10 	vmov	r0, s0
 8001630:	f7fe ff36 	bl	80004a0 <__aeabi_f2d>
 8001634:	2200      	movs	r2, #0
 8001636:	4b2b      	ldr	r3, [pc, #172]	; (80016e4 <make_sound+0xf4>)
 8001638:	f7fe ff8a 	bl	8000550 <__aeabi_dmul>
 800163c:	4680      	mov	r8, r0
 800163e:	4689      	mov	r9, r1
 8001640:	4b29      	ldr	r3, [pc, #164]	; (80016e8 <make_sound+0xf8>)
 8001642:	6818      	ldr	r0, [r3, #0]
 8001644:	f7fe ff2c 	bl	80004a0 <__aeabi_f2d>
 8001648:	4642      	mov	r2, r8
 800164a:	464b      	mov	r3, r9
 800164c:	f7fe ff80 	bl	8000550 <__aeabi_dmul>
 8001650:	f7ff f990 	bl	8000974 <__aeabi_d2f>

	/*--- compute vibrato modulation ---*/
	//the extra math shifts the osc -1 value up to 0, max of 1
	f1 = f0 *  (1+ vibr_lfo.out);
 8001654:	4b25      	ldr	r3, [pc, #148]	; (80016ec <make_sound+0xfc>)
 8001656:	ed93 8a08 	vldr	s16, [r3, #32]
 800165a:	eef7 7a00 	vmov.f32	s15, #112	; 0x3f800000  1.0
 800165e:	ee38 8a27 	vadd.f32	s16, s16, s15
 8001662:	ee07 0a90 	vmov	s15, r0
 8001666:	ee27 8a88 	vmul.f32	s16, s15, s16

	for (pos = 0; pos < length; pos++)
 800166a:	2400      	movs	r4, #0
 800166c:	e00f      	b.n	800168e <make_sound+0x9e>
		yR = (yR > 1.0f) ? 1.0f : yR; //clip too loud right samples
		yR = (yR < -1.0f) ? -1.0f : yR;

		/****** let's hear the new sample *******/

		valueL = (uint16_t)((int16_t)((32767.0f) * yL)); // conversion float -> int
 800166e:	eddf 7a20 	vldr	s15, [pc, #128]	; 80016f0 <make_sound+0x100>
 8001672:	ee20 0a27 	vmul.f32	s0, s0, s15
 8001676:	eebd 0ac0 	vcvt.s32.f32	s0, s0
 800167a:	ee10 3a10 	vmov	r3, s0
 800167e:	b29b      	uxth	r3, r3
		valueR = (uint16_t)((int16_t)((32767.0f) * yR));

		*outp++ = valueL; // left channel sample
 8001680:	462a      	mov	r2, r5
 8001682:	f822 3b04 	strh.w	r3, [r2], #4
		*outp++ = valueR; // right channel sample
 8001686:	806b      	strh	r3, [r5, #2]
	for (pos = 0; pos < length; pos++)
 8001688:	3401      	adds	r4, #1
 800168a:	b2a4      	uxth	r4, r4
		*outp++ = valueR; // right channel sample
 800168c:	4615      	mov	r5, r2
	for (pos = 0; pos < length; pos++)
 800168e:	42b4      	cmp	r4, r6
 8001690:	d21e      	bcs.n	80016d0 <make_sound+0xe0>
		BasicTriangle(&vibr_lfo);
 8001692:	4816      	ldr	r0, [pc, #88]	; (80016ec <make_sound+0xfc>)
 8001694:	f7ff fe06 	bl	80012a4 <BasicTriangle>
		y = waveCompute(f1);
 8001698:	eeb0 0a48 	vmov.f32	s0, s16
 800169c:	f7ff fe5c 	bl	8001358 <waveCompute>
		y *= vol;//volume MIDI CC
 80016a0:	4b14      	ldr	r3, [pc, #80]	; (80016f4 <make_sound+0x104>)
 80016a2:	edd3 7a00 	vldr	s15, [r3]
 80016a6:	ee20 0a27 	vmul.f32	s0, s0, s15
		yL = (yL > 1.0f) ? 1.0f : yL; //clip too loud left samples
 80016aa:	eef7 7a00 	vmov.f32	s15, #112	; 0x3f800000  1.0
 80016ae:	eeb4 0ae7 	vcmpe.f32	s0, s15
 80016b2:	eef1 fa10 	vmrs	APSR_nzcv, fpscr
 80016b6:	dd01      	ble.n	80016bc <make_sound+0xcc>
 80016b8:	eeb0 0a67 	vmov.f32	s0, s15
		yL = (yL < -1.0f) ? -1.0f : yL;
 80016bc:	eeff 7a00 	vmov.f32	s15, #240	; 0xbf800000 -1.0
 80016c0:	eeb4 0ae7 	vcmpe.f32	s0, s15
 80016c4:	eef1 fa10 	vmrs	APSR_nzcv, fpscr
 80016c8:	d5d1      	bpl.n	800166e <make_sound+0x7e>
 80016ca:	eeb0 0a67 	vmov.f32	s0, s15
 80016ce:	e7ce      	b.n	800166e <make_sound+0x7e>

	}


}
 80016d0:	ecbd 8b02 	vpop	{d8}
 80016d4:	e8bd 8370 	ldmia.w	sp!, {r4, r5, r6, r8, r9, pc}
 80016d8:	47044b69 	.word	0x47044b69
 80016dc:	3fb55555 	.word	0x3fb55555
 80016e0:	20000000 	.word	0x20000000
 80016e4:	407b8000 	.word	0x407b8000
 80016e8:	20000004 	.word	0x20000004
 80016ec:	20001168 	.word	0x20001168
 80016f0:	46fffe00 	.word	0x46fffe00
 80016f4:	2000118c 	.word	0x2000118c

080016f8 <HAL_InitTick>:
 80016f8:	b510      	push	{r4, lr}
 80016fa:	4604      	mov	r4, r0
 80016fc:	4b0e      	ldr	r3, [pc, #56]	; (8001738 <HAL_InitTick+0x40>)
 80016fe:	7818      	ldrb	r0, [r3, #0]
 8001700:	f44f 737a 	mov.w	r3, #1000	; 0x3e8
 8001704:	fbb3 f3f0 	udiv	r3, r3, r0
 8001708:	4a0c      	ldr	r2, [pc, #48]	; (800173c <HAL_InitTick+0x44>)
 800170a:	6810      	ldr	r0, [r2, #0]
 800170c:	fbb0 f0f3 	udiv	r0, r0, r3
 8001710:	f000 f896 	bl	8001840 <HAL_SYSTICK_Config>
 8001714:	b968      	cbnz	r0, 8001732 <HAL_InitTick+0x3a>
 8001716:	2c0f      	cmp	r4, #15
 8001718:	d901      	bls.n	800171e <HAL_InitTick+0x26>
 800171a:	2001      	movs	r0, #1
 800171c:	e00a      	b.n	8001734 <HAL_InitTick+0x3c>
 800171e:	2200      	movs	r2, #0
 8001720:	4621      	mov	r1, r4
 8001722:	f04f 30ff 	mov.w	r0, #4294967295
 8001726:	f000 f849 	bl	80017bc <HAL_NVIC_SetPriority>
 800172a:	4b03      	ldr	r3, [pc, #12]	; (8001738 <HAL_InitTick+0x40>)
 800172c:	605c      	str	r4, [r3, #4]
 800172e:	2000      	movs	r0, #0
 8001730:	e000      	b.n	8001734 <HAL_InitTick+0x3c>
 8001732:	2001      	movs	r0, #1
 8001734:	bd10      	pop	{r4, pc}
 8001736:	bf00      	nop
 8001738:	2000000c 	.word	0x2000000c
 800173c:	20000008 	.word	0x20000008

08001740 <HAL_Init>:
 8001740:	b508      	push	{r3, lr}
 8001742:	4b0b      	ldr	r3, [pc, #44]	; (8001770 <HAL_Init+0x30>)
 8001744:	681a      	ldr	r2, [r3, #0]
 8001746:	f442 7200 	orr.w	r2, r2, #512	; 0x200
 800174a:	601a      	str	r2, [r3, #0]
 800174c:	681a      	ldr	r2, [r3, #0]
 800174e:	f442 6280 	orr.w	r2, r2, #1024	; 0x400
 8001752:	601a      	str	r2, [r3, #0]
 8001754:	681a      	ldr	r2, [r3, #0]
 8001756:	f442 7280 	orr.w	r2, r2, #256	; 0x100
 800175a:	601a      	str	r2, [r3, #0]
 800175c:	2003      	movs	r0, #3
 800175e:	f000 f81b 	bl	8001798 <HAL_NVIC_SetPriorityGrouping>
 8001762:	2000      	movs	r0, #0
 8001764:	f7ff ffc8 	bl	80016f8 <HAL_InitTick>
 8001768:	f7ff fe3c 	bl	80013e4 <HAL_MspInit>
 800176c:	2000      	movs	r0, #0
 800176e:	bd08      	pop	{r3, pc}
 8001770:	40023c00 	.word	0x40023c00

08001774 <HAL_IncTick>:
 8001774:	4a03      	ldr	r2, [pc, #12]	; (8001784 <HAL_IncTick+0x10>)
 8001776:	6811      	ldr	r1, [r2, #0]
 8001778:	4b03      	ldr	r3, [pc, #12]	; (8001788 <HAL_IncTick+0x14>)
 800177a:	781b      	ldrb	r3, [r3, #0]
 800177c:	440b      	add	r3, r1
 800177e:	6013      	str	r3, [r2, #0]
 8001780:	4770      	bx	lr
 8001782:	bf00      	nop
 8001784:	20001190 	.word	0x20001190
 8001788:	2000000c 	.word	0x2000000c

0800178c <HAL_GetTick>:
 800178c:	4b01      	ldr	r3, [pc, #4]	; (8001794 <HAL_GetTick+0x8>)
 800178e:	6818      	ldr	r0, [r3, #0]
 8001790:	4770      	bx	lr
 8001792:	bf00      	nop
 8001794:	20001190 	.word	0x20001190

08001798 <HAL_NVIC_SetPriorityGrouping>:
 8001798:	4a07      	ldr	r2, [pc, #28]	; (80017b8 <HAL_NVIC_SetPriorityGrouping+0x20>)
 800179a:	68d3      	ldr	r3, [r2, #12]
 800179c:	f423 63e0 	bic.w	r3, r3, #1792	; 0x700
 80017a0:	041b      	lsls	r3, r3, #16
 80017a2:	0c1b      	lsrs	r3, r3, #16
 80017a4:	0200      	lsls	r0, r0, #8
 80017a6:	f400 60e0 	and.w	r0, r0, #1792	; 0x700
 80017aa:	4318      	orrs	r0, r3
 80017ac:	f040 60bf 	orr.w	r0, r0, #100139008	; 0x5f80000
 80017b0:	f440 3000 	orr.w	r0, r0, #131072	; 0x20000
 80017b4:	60d0      	str	r0, [r2, #12]
 80017b6:	4770      	bx	lr
 80017b8:	e000ed00 	.word	0xe000ed00

080017bc <HAL_NVIC_SetPriority>:
 80017bc:	b430      	push	{r4, r5}
 80017be:	4b17      	ldr	r3, [pc, #92]	; (800181c <HAL_NVIC_SetPriority+0x60>)
 80017c0:	68db      	ldr	r3, [r3, #12]
 80017c2:	f3c3 2302 	ubfx	r3, r3, #8, #3
 80017c6:	f1c3 0407 	rsb	r4, r3, #7
 80017ca:	2c04      	cmp	r4, #4
 80017cc:	bf28      	it	cs
 80017ce:	2404      	movcs	r4, #4
 80017d0:	1d1d      	adds	r5, r3, #4
 80017d2:	2d06      	cmp	r5, #6
 80017d4:	d918      	bls.n	8001808 <HAL_NVIC_SetPriority+0x4c>
 80017d6:	3b03      	subs	r3, #3
 80017d8:	f04f 35ff 	mov.w	r5, #4294967295
 80017dc:	fa05 f404 	lsl.w	r4, r5, r4
 80017e0:	ea21 0104 	bic.w	r1, r1, r4
 80017e4:	4099      	lsls	r1, r3
 80017e6:	fa05 f303 	lsl.w	r3, r5, r3
 80017ea:	ea22 0303 	bic.w	r3, r2, r3
 80017ee:	4319      	orrs	r1, r3
 80017f0:	2800      	cmp	r0, #0
 80017f2:	db0b      	blt.n	800180c <HAL_NVIC_SetPriority+0x50>
 80017f4:	0109      	lsls	r1, r1, #4
 80017f6:	b2c9      	uxtb	r1, r1
 80017f8:	f100 4060 	add.w	r0, r0, #3758096384	; 0xe0000000
 80017fc:	f500 4061 	add.w	r0, r0, #57600	; 0xe100
 8001800:	f880 1300 	strb.w	r1, [r0, #768]	; 0x300
 8001804:	bc30      	pop	{r4, r5}
 8001806:	4770      	bx	lr
 8001808:	2300      	movs	r3, #0
 800180a:	e7e5      	b.n	80017d8 <HAL_NVIC_SetPriority+0x1c>
 800180c:	f000 000f 	and.w	r0, r0, #15
 8001810:	0109      	lsls	r1, r1, #4
 8001812:	b2c9      	uxtb	r1, r1
 8001814:	4b02      	ldr	r3, [pc, #8]	; (8001820 <HAL_NVIC_SetPriority+0x64>)
 8001816:	5419      	strb	r1, [r3, r0]
 8001818:	e7f4      	b.n	8001804 <HAL_NVIC_SetPriority+0x48>
 800181a:	bf00      	nop
 800181c:	e000ed00 	.word	0xe000ed00
 8001820:	e000ed14 	.word	0xe000ed14

08001824 <HAL_NVIC_EnableIRQ>:
 8001824:	2800      	cmp	r0, #0
 8001826:	db07      	blt.n	8001838 <HAL_NVIC_EnableIRQ+0x14>
 8001828:	f000 021f 	and.w	r2, r0, #31
 800182c:	0940      	lsrs	r0, r0, #5
 800182e:	2301      	movs	r3, #1
 8001830:	4093      	lsls	r3, r2
 8001832:	4a02      	ldr	r2, [pc, #8]	; (800183c <HAL_NVIC_EnableIRQ+0x18>)
 8001834:	f842 3020 	str.w	r3, [r2, r0, lsl #2]
 8001838:	4770      	bx	lr
 800183a:	bf00      	nop
 800183c:	e000e100 	.word	0xe000e100

08001840 <HAL_SYSTICK_Config>:
 8001840:	3801      	subs	r0, #1
 8001842:	f1b0 7f80 	cmp.w	r0, #16777216	; 0x1000000
 8001846:	d20a      	bcs.n	800185e <HAL_SYSTICK_Config+0x1e>
 8001848:	4b06      	ldr	r3, [pc, #24]	; (8001864 <HAL_SYSTICK_Config+0x24>)
 800184a:	6058      	str	r0, [r3, #4]
 800184c:	4a06      	ldr	r2, [pc, #24]	; (8001868 <HAL_SYSTICK_Config+0x28>)
 800184e:	21f0      	movs	r1, #240	; 0xf0
 8001850:	f882 1023 	strb.w	r1, [r2, #35]	; 0x23
 8001854:	2000      	movs	r0, #0
 8001856:	6098      	str	r0, [r3, #8]
 8001858:	2207      	movs	r2, #7
 800185a:	601a      	str	r2, [r3, #0]
 800185c:	4770      	bx	lr
 800185e:	2001      	movs	r0, #1
 8001860:	4770      	bx	lr
 8001862:	bf00      	nop
 8001864:	e000e010 	.word	0xe000e010
 8001868:	e000ed00 	.word	0xe000ed00

0800186c <DMA_SetConfig>:
 800186c:	b430      	push	{r4, r5}
 800186e:	6805      	ldr	r5, [r0, #0]
 8001870:	682c      	ldr	r4, [r5, #0]
 8001872:	f424 2480 	bic.w	r4, r4, #262144	; 0x40000
 8001876:	602c      	str	r4, [r5, #0]
 8001878:	6804      	ldr	r4, [r0, #0]
 800187a:	6063      	str	r3, [r4, #4]
 800187c:	6883      	ldr	r3, [r0, #8]
 800187e:	2b40      	cmp	r3, #64	; 0x40
 8001880:	d005      	beq.n	800188e <DMA_SetConfig+0x22>
 8001882:	6803      	ldr	r3, [r0, #0]
 8001884:	6099      	str	r1, [r3, #8]
 8001886:	6803      	ldr	r3, [r0, #0]
 8001888:	60da      	str	r2, [r3, #12]
 800188a:	bc30      	pop	{r4, r5}
 800188c:	4770      	bx	lr
 800188e:	6803      	ldr	r3, [r0, #0]
 8001890:	609a      	str	r2, [r3, #8]
 8001892:	6803      	ldr	r3, [r0, #0]
 8001894:	60d9      	str	r1, [r3, #12]
 8001896:	e7f8      	b.n	800188a <DMA_SetConfig+0x1e>

08001898 <DMA_CalcBaseAndBitshift>:
 8001898:	6802      	ldr	r2, [r0, #0]
 800189a:	b2d3      	uxtb	r3, r2
 800189c:	3b10      	subs	r3, #16
 800189e:	490b      	ldr	r1, [pc, #44]	; (80018cc <DMA_CalcBaseAndBitshift+0x34>)
 80018a0:	fba1 1303 	umull	r1, r3, r1, r3
 80018a4:	091b      	lsrs	r3, r3, #4
 80018a6:	490a      	ldr	r1, [pc, #40]	; (80018d0 <DMA_CalcBaseAndBitshift+0x38>)
 80018a8:	5cc9      	ldrb	r1, [r1, r3]
 80018aa:	65c1      	str	r1, [r0, #92]	; 0x5c
 80018ac:	2b03      	cmp	r3, #3
 80018ae:	d806      	bhi.n	80018be <DMA_CalcBaseAndBitshift+0x26>
 80018b0:	f422 727f 	bic.w	r2, r2, #1020	; 0x3fc
 80018b4:	f022 0203 	bic.w	r2, r2, #3
 80018b8:	6582      	str	r2, [r0, #88]	; 0x58
 80018ba:	6d80      	ldr	r0, [r0, #88]	; 0x58
 80018bc:	4770      	bx	lr
 80018be:	f422 727f 	bic.w	r2, r2, #1020	; 0x3fc
 80018c2:	f022 0203 	bic.w	r2, r2, #3
 80018c6:	3204      	adds	r2, #4
 80018c8:	6582      	str	r2, [r0, #88]	; 0x58
 80018ca:	e7f6      	b.n	80018ba <DMA_CalcBaseAndBitshift+0x22>
 80018cc:	aaaaaaab 	.word	0xaaaaaaab
 80018d0:	08003dc4 	.word	0x08003dc4

080018d4 <DMA_CheckFifoParam>:
 80018d4:	6a83      	ldr	r3, [r0, #40]	; 0x28
 80018d6:	6982      	ldr	r2, [r0, #24]
 80018d8:	b992      	cbnz	r2, 8001900 <DMA_CheckFifoParam+0x2c>
 80018da:	2b01      	cmp	r3, #1
 80018dc:	d00a      	beq.n	80018f4 <DMA_CheckFifoParam+0x20>
 80018de:	b11b      	cbz	r3, 80018e8 <DMA_CheckFifoParam+0x14>
 80018e0:	2b02      	cmp	r3, #2
 80018e2:	d001      	beq.n	80018e8 <DMA_CheckFifoParam+0x14>
 80018e4:	2000      	movs	r0, #0
 80018e6:	4770      	bx	lr
 80018e8:	6ac3      	ldr	r3, [r0, #44]	; 0x2c
 80018ea:	f013 7f80 	tst.w	r3, #16777216	; 0x1000000
 80018ee:	d12c      	bne.n	800194a <DMA_CheckFifoParam+0x76>
 80018f0:	2000      	movs	r0, #0
 80018f2:	4770      	bx	lr
 80018f4:	6ac3      	ldr	r3, [r0, #44]	; 0x2c
 80018f6:	f1b3 7fc0 	cmp.w	r3, #25165824	; 0x1800000
 80018fa:	d028      	beq.n	800194e <DMA_CheckFifoParam+0x7a>
 80018fc:	2000      	movs	r0, #0
 80018fe:	4770      	bx	lr
 8001900:	f5b2 5f00 	cmp.w	r2, #8192	; 0x2000
 8001904:	d005      	beq.n	8001912 <DMA_CheckFifoParam+0x3e>
 8001906:	2b02      	cmp	r3, #2
 8001908:	d929      	bls.n	800195e <DMA_CheckFifoParam+0x8a>
 800190a:	2b03      	cmp	r3, #3
 800190c:	d015      	beq.n	800193a <DMA_CheckFifoParam+0x66>
 800190e:	2000      	movs	r0, #0
 8001910:	4770      	bx	lr
 8001912:	2b03      	cmp	r3, #3
 8001914:	d803      	bhi.n	800191e <DMA_CheckFifoParam+0x4a>
 8001916:	e8df f003 	tbb	[pc, r3]
 800191a:	041c      	.short	0x041c
 800191c:	0a1c      	.short	0x0a1c
 800191e:	2000      	movs	r0, #0
 8001920:	4770      	bx	lr
 8001922:	6ac3      	ldr	r3, [r0, #44]	; 0x2c
 8001924:	f013 7f80 	tst.w	r3, #16777216	; 0x1000000
 8001928:	d115      	bne.n	8001956 <DMA_CheckFifoParam+0x82>
 800192a:	2000      	movs	r0, #0
 800192c:	4770      	bx	lr
 800192e:	6ac3      	ldr	r3, [r0, #44]	; 0x2c
 8001930:	f1b3 7fc0 	cmp.w	r3, #25165824	; 0x1800000
 8001934:	d011      	beq.n	800195a <DMA_CheckFifoParam+0x86>
 8001936:	2000      	movs	r0, #0
 8001938:	4770      	bx	lr
 800193a:	6ac3      	ldr	r3, [r0, #44]	; 0x2c
 800193c:	f013 7f80 	tst.w	r3, #16777216	; 0x1000000
 8001940:	d001      	beq.n	8001946 <DMA_CheckFifoParam+0x72>
 8001942:	2001      	movs	r0, #1
 8001944:	4770      	bx	lr
 8001946:	2000      	movs	r0, #0
 8001948:	4770      	bx	lr
 800194a:	2001      	movs	r0, #1
 800194c:	4770      	bx	lr
 800194e:	2001      	movs	r0, #1
 8001950:	4770      	bx	lr
 8001952:	2001      	movs	r0, #1
 8001954:	4770      	bx	lr
 8001956:	2001      	movs	r0, #1
 8001958:	4770      	bx	lr
 800195a:	2001      	movs	r0, #1
 800195c:	4770      	bx	lr
 800195e:	2001      	movs	r0, #1
 8001960:	4770      	bx	lr
	...

08001964 <HAL_DMA_Init>:
 8001964:	b570      	push	{r4, r5, r6, lr}
 8001966:	4604      	mov	r4, r0
 8001968:	f7ff ff10 	bl	800178c <HAL_GetTick>
 800196c:	2c00      	cmp	r4, #0
 800196e:	d05b      	beq.n	8001a28 <HAL_DMA_Init+0xc4>
 8001970:	4605      	mov	r5, r0
 8001972:	2300      	movs	r3, #0
 8001974:	f884 3034 	strb.w	r3, [r4, #52]	; 0x34
 8001978:	2302      	movs	r3, #2
 800197a:	f884 3035 	strb.w	r3, [r4, #53]	; 0x35
 800197e:	6822      	ldr	r2, [r4, #0]
 8001980:	6813      	ldr	r3, [r2, #0]
 8001982:	f023 0301 	bic.w	r3, r3, #1
 8001986:	6013      	str	r3, [r2, #0]
 8001988:	6823      	ldr	r3, [r4, #0]
 800198a:	681a      	ldr	r2, [r3, #0]
 800198c:	f012 0f01 	tst.w	r2, #1
 8001990:	d00a      	beq.n	80019a8 <HAL_DMA_Init+0x44>
 8001992:	f7ff fefb 	bl	800178c <HAL_GetTick>
 8001996:	1b40      	subs	r0, r0, r5
 8001998:	2805      	cmp	r0, #5
 800199a:	d9f5      	bls.n	8001988 <HAL_DMA_Init+0x24>
 800199c:	2320      	movs	r3, #32
 800199e:	6563      	str	r3, [r4, #84]	; 0x54
 80019a0:	2003      	movs	r0, #3
 80019a2:	f884 0035 	strb.w	r0, [r4, #53]	; 0x35
 80019a6:	bd70      	pop	{r4, r5, r6, pc}
 80019a8:	681a      	ldr	r2, [r3, #0]
 80019aa:	4820      	ldr	r0, [pc, #128]	; (8001a2c <HAL_DMA_Init+0xc8>)
 80019ac:	4010      	ands	r0, r2
 80019ae:	6861      	ldr	r1, [r4, #4]
 80019b0:	68a2      	ldr	r2, [r4, #8]
 80019b2:	430a      	orrs	r2, r1
 80019b4:	68e1      	ldr	r1, [r4, #12]
 80019b6:	430a      	orrs	r2, r1
 80019b8:	6921      	ldr	r1, [r4, #16]
 80019ba:	430a      	orrs	r2, r1
 80019bc:	6961      	ldr	r1, [r4, #20]
 80019be:	430a      	orrs	r2, r1
 80019c0:	69a1      	ldr	r1, [r4, #24]
 80019c2:	430a      	orrs	r2, r1
 80019c4:	69e1      	ldr	r1, [r4, #28]
 80019c6:	430a      	orrs	r2, r1
 80019c8:	6a21      	ldr	r1, [r4, #32]
 80019ca:	430a      	orrs	r2, r1
 80019cc:	4302      	orrs	r2, r0
 80019ce:	6a61      	ldr	r1, [r4, #36]	; 0x24
 80019d0:	2904      	cmp	r1, #4
 80019d2:	d01e      	beq.n	8001a12 <HAL_DMA_Init+0xae>
 80019d4:	601a      	str	r2, [r3, #0]
 80019d6:	6826      	ldr	r6, [r4, #0]
 80019d8:	6975      	ldr	r5, [r6, #20]
 80019da:	f025 0507 	bic.w	r5, r5, #7
 80019de:	6a63      	ldr	r3, [r4, #36]	; 0x24
 80019e0:	431d      	orrs	r5, r3
 80019e2:	2b04      	cmp	r3, #4
 80019e4:	d107      	bne.n	80019f6 <HAL_DMA_Init+0x92>
 80019e6:	6aa3      	ldr	r3, [r4, #40]	; 0x28
 80019e8:	431d      	orrs	r5, r3
 80019ea:	6ae3      	ldr	r3, [r4, #44]	; 0x2c
 80019ec:	b11b      	cbz	r3, 80019f6 <HAL_DMA_Init+0x92>
 80019ee:	4620      	mov	r0, r4
 80019f0:	f7ff ff70 	bl	80018d4 <DMA_CheckFifoParam>
 80019f4:	b990      	cbnz	r0, 8001a1c <HAL_DMA_Init+0xb8>
 80019f6:	6175      	str	r5, [r6, #20]
 80019f8:	4620      	mov	r0, r4
 80019fa:	f7ff ff4d 	bl	8001898 <DMA_CalcBaseAndBitshift>
 80019fe:	6de2      	ldr	r2, [r4, #92]	; 0x5c
 8001a00:	233f      	movs	r3, #63	; 0x3f
 8001a02:	4093      	lsls	r3, r2
 8001a04:	6083      	str	r3, [r0, #8]
 8001a06:	2000      	movs	r0, #0
 8001a08:	6560      	str	r0, [r4, #84]	; 0x54
 8001a0a:	2301      	movs	r3, #1
 8001a0c:	f884 3035 	strb.w	r3, [r4, #53]	; 0x35
 8001a10:	e7c9      	b.n	80019a6 <HAL_DMA_Init+0x42>
 8001a12:	6ae1      	ldr	r1, [r4, #44]	; 0x2c
 8001a14:	6b20      	ldr	r0, [r4, #48]	; 0x30
 8001a16:	4301      	orrs	r1, r0
 8001a18:	430a      	orrs	r2, r1
 8001a1a:	e7db      	b.n	80019d4 <HAL_DMA_Init+0x70>
 8001a1c:	2340      	movs	r3, #64	; 0x40
 8001a1e:	6563      	str	r3, [r4, #84]	; 0x54
 8001a20:	2001      	movs	r0, #1
 8001a22:	f884 0035 	strb.w	r0, [r4, #53]	; 0x35
 8001a26:	e7be      	b.n	80019a6 <HAL_DMA_Init+0x42>
 8001a28:	2001      	movs	r0, #1
 8001a2a:	e7bc      	b.n	80019a6 <HAL_DMA_Init+0x42>
 8001a2c:	f010803f 	.word	0xf010803f

08001a30 <HAL_DMA_Start_IT>:
 8001a30:	b538      	push	{r3, r4, r5, lr}
 8001a32:	6d85      	ldr	r5, [r0, #88]	; 0x58
 8001a34:	f890 4034 	ldrb.w	r4, [r0, #52]	; 0x34
 8001a38:	2c01      	cmp	r4, #1
 8001a3a:	d02c      	beq.n	8001a96 <HAL_DMA_Start_IT+0x66>
 8001a3c:	2401      	movs	r4, #1
 8001a3e:	f880 4034 	strb.w	r4, [r0, #52]	; 0x34
 8001a42:	f890 4035 	ldrb.w	r4, [r0, #53]	; 0x35
 8001a46:	b2e4      	uxtb	r4, r4
 8001a48:	2c01      	cmp	r4, #1
 8001a4a:	d004      	beq.n	8001a56 <HAL_DMA_Start_IT+0x26>
 8001a4c:	2300      	movs	r3, #0
 8001a4e:	f880 3034 	strb.w	r3, [r0, #52]	; 0x34
 8001a52:	2002      	movs	r0, #2
 8001a54:	bd38      	pop	{r3, r4, r5, pc}
 8001a56:	4604      	mov	r4, r0
 8001a58:	2002      	movs	r0, #2
 8001a5a:	f884 0035 	strb.w	r0, [r4, #53]	; 0x35
 8001a5e:	2000      	movs	r0, #0
 8001a60:	6560      	str	r0, [r4, #84]	; 0x54
 8001a62:	4620      	mov	r0, r4
 8001a64:	f7ff ff02 	bl	800186c <DMA_SetConfig>
 8001a68:	6de2      	ldr	r2, [r4, #92]	; 0x5c
 8001a6a:	233f      	movs	r3, #63	; 0x3f
 8001a6c:	4093      	lsls	r3, r2
 8001a6e:	60ab      	str	r3, [r5, #8]
 8001a70:	6822      	ldr	r2, [r4, #0]
 8001a72:	6813      	ldr	r3, [r2, #0]
 8001a74:	f043 0316 	orr.w	r3, r3, #22
 8001a78:	6013      	str	r3, [r2, #0]
 8001a7a:	6c23      	ldr	r3, [r4, #64]	; 0x40
 8001a7c:	b123      	cbz	r3, 8001a88 <HAL_DMA_Start_IT+0x58>
 8001a7e:	6822      	ldr	r2, [r4, #0]
 8001a80:	6813      	ldr	r3, [r2, #0]
 8001a82:	f043 0308 	orr.w	r3, r3, #8
 8001a86:	6013      	str	r3, [r2, #0]
 8001a88:	6822      	ldr	r2, [r4, #0]
 8001a8a:	6813      	ldr	r3, [r2, #0]
 8001a8c:	f043 0301 	orr.w	r3, r3, #1
 8001a90:	6013      	str	r3, [r2, #0]
 8001a92:	2000      	movs	r0, #0
 8001a94:	e7de      	b.n	8001a54 <HAL_DMA_Start_IT+0x24>
 8001a96:	2002      	movs	r0, #2
 8001a98:	e7dc      	b.n	8001a54 <HAL_DMA_Start_IT+0x24>

08001a9a <HAL_DMA_Abort_IT>:
 8001a9a:	f890 3035 	ldrb.w	r3, [r0, #53]	; 0x35
 8001a9e:	b2db      	uxtb	r3, r3
 8001aa0:	2b02      	cmp	r3, #2
 8001aa2:	d003      	beq.n	8001aac <HAL_DMA_Abort_IT+0x12>
 8001aa4:	2380      	movs	r3, #128	; 0x80
 8001aa6:	6543      	str	r3, [r0, #84]	; 0x54
 8001aa8:	2001      	movs	r0, #1
 8001aaa:	4770      	bx	lr
 8001aac:	2305      	movs	r3, #5
 8001aae:	f880 3035 	strb.w	r3, [r0, #53]	; 0x35
 8001ab2:	6802      	ldr	r2, [r0, #0]
 8001ab4:	6813      	ldr	r3, [r2, #0]
 8001ab6:	f023 0301 	bic.w	r3, r3, #1
 8001aba:	6013      	str	r3, [r2, #0]
 8001abc:	2000      	movs	r0, #0
 8001abe:	4770      	bx	lr

08001ac0 <HAL_DMA_IRQHandler>:
 8001ac0:	b5f0      	push	{r4, r5, r6, r7, lr}
 8001ac2:	b083      	sub	sp, #12
 8001ac4:	4604      	mov	r4, r0
 8001ac6:	2300      	movs	r3, #0
 8001ac8:	9301      	str	r3, [sp, #4]
 8001aca:	4b72      	ldr	r3, [pc, #456]	; (8001c94 <HAL_DMA_IRQHandler+0x1d4>)
 8001acc:	681d      	ldr	r5, [r3, #0]
 8001ace:	4b72      	ldr	r3, [pc, #456]	; (8001c98 <HAL_DMA_IRQHandler+0x1d8>)
 8001ad0:	fba3 3505 	umull	r3, r5, r3, r5
 8001ad4:	0aad      	lsrs	r5, r5, #10
 8001ad6:	6d87      	ldr	r7, [r0, #88]	; 0x58
 8001ad8:	683e      	ldr	r6, [r7, #0]
 8001ada:	6dc2      	ldr	r2, [r0, #92]	; 0x5c
 8001adc:	2308      	movs	r3, #8
 8001ade:	4093      	lsls	r3, r2
 8001ae0:	4233      	tst	r3, r6
 8001ae2:	d010      	beq.n	8001b06 <HAL_DMA_IRQHandler+0x46>
 8001ae4:	6803      	ldr	r3, [r0, #0]
 8001ae6:	681a      	ldr	r2, [r3, #0]
 8001ae8:	f012 0f04 	tst.w	r2, #4
 8001aec:	d00b      	beq.n	8001b06 <HAL_DMA_IRQHandler+0x46>
 8001aee:	681a      	ldr	r2, [r3, #0]
 8001af0:	f022 0204 	bic.w	r2, r2, #4
 8001af4:	601a      	str	r2, [r3, #0]
 8001af6:	6dc2      	ldr	r2, [r0, #92]	; 0x5c
 8001af8:	2308      	movs	r3, #8
 8001afa:	4093      	lsls	r3, r2
 8001afc:	60bb      	str	r3, [r7, #8]
 8001afe:	6d43      	ldr	r3, [r0, #84]	; 0x54
 8001b00:	f043 0301 	orr.w	r3, r3, #1
 8001b04:	6543      	str	r3, [r0, #84]	; 0x54
 8001b06:	6de2      	ldr	r2, [r4, #92]	; 0x5c
 8001b08:	2301      	movs	r3, #1
 8001b0a:	4093      	lsls	r3, r2
 8001b0c:	4233      	tst	r3, r6
 8001b0e:	d009      	beq.n	8001b24 <HAL_DMA_IRQHandler+0x64>
 8001b10:	6822      	ldr	r2, [r4, #0]
 8001b12:	6952      	ldr	r2, [r2, #20]
 8001b14:	f012 0f80 	tst.w	r2, #128	; 0x80
 8001b18:	d004      	beq.n	8001b24 <HAL_DMA_IRQHandler+0x64>
 8001b1a:	60bb      	str	r3, [r7, #8]
 8001b1c:	6d63      	ldr	r3, [r4, #84]	; 0x54
 8001b1e:	f043 0302 	orr.w	r3, r3, #2
 8001b22:	6563      	str	r3, [r4, #84]	; 0x54
 8001b24:	6de2      	ldr	r2, [r4, #92]	; 0x5c
 8001b26:	2304      	movs	r3, #4
 8001b28:	4093      	lsls	r3, r2
 8001b2a:	4233      	tst	r3, r6
 8001b2c:	d009      	beq.n	8001b42 <HAL_DMA_IRQHandler+0x82>
 8001b2e:	6822      	ldr	r2, [r4, #0]
 8001b30:	6812      	ldr	r2, [r2, #0]
 8001b32:	f012 0f02 	tst.w	r2, #2
 8001b36:	d004      	beq.n	8001b42 <HAL_DMA_IRQHandler+0x82>
 8001b38:	60bb      	str	r3, [r7, #8]
 8001b3a:	6d63      	ldr	r3, [r4, #84]	; 0x54
 8001b3c:	f043 0304 	orr.w	r3, r3, #4
 8001b40:	6563      	str	r3, [r4, #84]	; 0x54
 8001b42:	6de2      	ldr	r2, [r4, #92]	; 0x5c
 8001b44:	2310      	movs	r3, #16
 8001b46:	4093      	lsls	r3, r2
 8001b48:	4233      	tst	r3, r6
 8001b4a:	d024      	beq.n	8001b96 <HAL_DMA_IRQHandler+0xd6>
 8001b4c:	6822      	ldr	r2, [r4, #0]
 8001b4e:	6812      	ldr	r2, [r2, #0]
 8001b50:	f012 0f08 	tst.w	r2, #8
 8001b54:	d01f      	beq.n	8001b96 <HAL_DMA_IRQHandler+0xd6>
 8001b56:	60bb      	str	r3, [r7, #8]
 8001b58:	6823      	ldr	r3, [r4, #0]
 8001b5a:	681a      	ldr	r2, [r3, #0]
 8001b5c:	f412 2f80 	tst.w	r2, #262144	; 0x40000
 8001b60:	d00d      	beq.n	8001b7e <HAL_DMA_IRQHandler+0xbe>
 8001b62:	681b      	ldr	r3, [r3, #0]
 8001b64:	f413 2f00 	tst.w	r3, #524288	; 0x80000
 8001b68:	d104      	bne.n	8001b74 <HAL_DMA_IRQHandler+0xb4>
 8001b6a:	6c23      	ldr	r3, [r4, #64]	; 0x40
 8001b6c:	b19b      	cbz	r3, 8001b96 <HAL_DMA_IRQHandler+0xd6>
 8001b6e:	4620      	mov	r0, r4
 8001b70:	4798      	blx	r3
 8001b72:	e010      	b.n	8001b96 <HAL_DMA_IRQHandler+0xd6>
 8001b74:	6ca3      	ldr	r3, [r4, #72]	; 0x48
 8001b76:	b173      	cbz	r3, 8001b96 <HAL_DMA_IRQHandler+0xd6>
 8001b78:	4620      	mov	r0, r4
 8001b7a:	4798      	blx	r3
 8001b7c:	e00b      	b.n	8001b96 <HAL_DMA_IRQHandler+0xd6>
 8001b7e:	681a      	ldr	r2, [r3, #0]
 8001b80:	f412 7f80 	tst.w	r2, #256	; 0x100
 8001b84:	d103      	bne.n	8001b8e <HAL_DMA_IRQHandler+0xce>
 8001b86:	681a      	ldr	r2, [r3, #0]
 8001b88:	f022 0208 	bic.w	r2, r2, #8
 8001b8c:	601a      	str	r2, [r3, #0]
 8001b8e:	6c23      	ldr	r3, [r4, #64]	; 0x40
 8001b90:	b10b      	cbz	r3, 8001b96 <HAL_DMA_IRQHandler+0xd6>
 8001b92:	4620      	mov	r0, r4
 8001b94:	4798      	blx	r3
 8001b96:	6de2      	ldr	r2, [r4, #92]	; 0x5c
 8001b98:	2320      	movs	r3, #32
 8001b9a:	4093      	lsls	r3, r2
 8001b9c:	4233      	tst	r3, r6
 8001b9e:	d055      	beq.n	8001c4c <HAL_DMA_IRQHandler+0x18c>
 8001ba0:	6822      	ldr	r2, [r4, #0]
 8001ba2:	6812      	ldr	r2, [r2, #0]
 8001ba4:	f012 0f10 	tst.w	r2, #16
 8001ba8:	d050      	beq.n	8001c4c <HAL_DMA_IRQHandler+0x18c>
 8001baa:	60bb      	str	r3, [r7, #8]
 8001bac:	f894 3035 	ldrb.w	r3, [r4, #53]	; 0x35
 8001bb0:	b2db      	uxtb	r3, r3
 8001bb2:	2b05      	cmp	r3, #5
 8001bb4:	d00e      	beq.n	8001bd4 <HAL_DMA_IRQHandler+0x114>
 8001bb6:	6823      	ldr	r3, [r4, #0]
 8001bb8:	681a      	ldr	r2, [r3, #0]
 8001bba:	f412 2f80 	tst.w	r2, #262144	; 0x40000
 8001bbe:	d033      	beq.n	8001c28 <HAL_DMA_IRQHandler+0x168>
 8001bc0:	681b      	ldr	r3, [r3, #0]
 8001bc2:	f413 2f00 	tst.w	r3, #524288	; 0x80000
 8001bc6:	d12a      	bne.n	8001c1e <HAL_DMA_IRQHandler+0x15e>
 8001bc8:	6c63      	ldr	r3, [r4, #68]	; 0x44
 8001bca:	2b00      	cmp	r3, #0
 8001bcc:	d03e      	beq.n	8001c4c <HAL_DMA_IRQHandler+0x18c>
 8001bce:	4620      	mov	r0, r4
 8001bd0:	4798      	blx	r3
 8001bd2:	e03b      	b.n	8001c4c <HAL_DMA_IRQHandler+0x18c>
 8001bd4:	6822      	ldr	r2, [r4, #0]
 8001bd6:	6813      	ldr	r3, [r2, #0]
 8001bd8:	f023 0316 	bic.w	r3, r3, #22
 8001bdc:	6013      	str	r3, [r2, #0]
 8001bde:	6822      	ldr	r2, [r4, #0]
 8001be0:	6953      	ldr	r3, [r2, #20]
 8001be2:	f023 0380 	bic.w	r3, r3, #128	; 0x80
 8001be6:	6153      	str	r3, [r2, #20]
 8001be8:	6c23      	ldr	r3, [r4, #64]	; 0x40
 8001bea:	b1a3      	cbz	r3, 8001c16 <HAL_DMA_IRQHandler+0x156>
 8001bec:	6822      	ldr	r2, [r4, #0]
 8001bee:	6813      	ldr	r3, [r2, #0]
 8001bf0:	f023 0308 	bic.w	r3, r3, #8
 8001bf4:	6013      	str	r3, [r2, #0]
 8001bf6:	6de2      	ldr	r2, [r4, #92]	; 0x5c
 8001bf8:	233f      	movs	r3, #63	; 0x3f
 8001bfa:	4093      	lsls	r3, r2
 8001bfc:	60bb      	str	r3, [r7, #8]
 8001bfe:	2300      	movs	r3, #0
 8001c00:	f884 3034 	strb.w	r3, [r4, #52]	; 0x34
 8001c04:	2301      	movs	r3, #1
 8001c06:	f884 3035 	strb.w	r3, [r4, #53]	; 0x35
 8001c0a:	6d23      	ldr	r3, [r4, #80]	; 0x50
 8001c0c:	2b00      	cmp	r3, #0
 8001c0e:	d03f      	beq.n	8001c90 <HAL_DMA_IRQHandler+0x1d0>
 8001c10:	4620      	mov	r0, r4
 8001c12:	4798      	blx	r3
 8001c14:	e03c      	b.n	8001c90 <HAL_DMA_IRQHandler+0x1d0>
 8001c16:	6ca3      	ldr	r3, [r4, #72]	; 0x48
 8001c18:	2b00      	cmp	r3, #0
 8001c1a:	d1e7      	bne.n	8001bec <HAL_DMA_IRQHandler+0x12c>
 8001c1c:	e7eb      	b.n	8001bf6 <HAL_DMA_IRQHandler+0x136>
 8001c1e:	6be3      	ldr	r3, [r4, #60]	; 0x3c
 8001c20:	b1a3      	cbz	r3, 8001c4c <HAL_DMA_IRQHandler+0x18c>
 8001c22:	4620      	mov	r0, r4
 8001c24:	4798      	blx	r3
 8001c26:	e011      	b.n	8001c4c <HAL_DMA_IRQHandler+0x18c>
 8001c28:	681a      	ldr	r2, [r3, #0]
 8001c2a:	f412 7f80 	tst.w	r2, #256	; 0x100
 8001c2e:	d109      	bne.n	8001c44 <HAL_DMA_IRQHandler+0x184>
 8001c30:	681a      	ldr	r2, [r3, #0]
 8001c32:	f022 0210 	bic.w	r2, r2, #16
 8001c36:	601a      	str	r2, [r3, #0]
 8001c38:	2300      	movs	r3, #0
 8001c3a:	f884 3034 	strb.w	r3, [r4, #52]	; 0x34
 8001c3e:	2301      	movs	r3, #1
 8001c40:	f884 3035 	strb.w	r3, [r4, #53]	; 0x35
 8001c44:	6be3      	ldr	r3, [r4, #60]	; 0x3c
 8001c46:	b10b      	cbz	r3, 8001c4c <HAL_DMA_IRQHandler+0x18c>
 8001c48:	4620      	mov	r0, r4
 8001c4a:	4798      	blx	r3
 8001c4c:	6d63      	ldr	r3, [r4, #84]	; 0x54
 8001c4e:	b1fb      	cbz	r3, 8001c90 <HAL_DMA_IRQHandler+0x1d0>
 8001c50:	6d63      	ldr	r3, [r4, #84]	; 0x54
 8001c52:	f013 0f01 	tst.w	r3, #1
 8001c56:	d017      	beq.n	8001c88 <HAL_DMA_IRQHandler+0x1c8>
 8001c58:	2305      	movs	r3, #5
 8001c5a:	f884 3035 	strb.w	r3, [r4, #53]	; 0x35
 8001c5e:	6822      	ldr	r2, [r4, #0]
 8001c60:	6813      	ldr	r3, [r2, #0]
 8001c62:	f023 0301 	bic.w	r3, r3, #1
 8001c66:	6013      	str	r3, [r2, #0]
 8001c68:	9b01      	ldr	r3, [sp, #4]
 8001c6a:	3301      	adds	r3, #1
 8001c6c:	9301      	str	r3, [sp, #4]
 8001c6e:	42ab      	cmp	r3, r5
 8001c70:	d804      	bhi.n	8001c7c <HAL_DMA_IRQHandler+0x1bc>
 8001c72:	6823      	ldr	r3, [r4, #0]
 8001c74:	681b      	ldr	r3, [r3, #0]
 8001c76:	f013 0f01 	tst.w	r3, #1
 8001c7a:	d1f5      	bne.n	8001c68 <HAL_DMA_IRQHandler+0x1a8>
 8001c7c:	2300      	movs	r3, #0
 8001c7e:	f884 3034 	strb.w	r3, [r4, #52]	; 0x34
 8001c82:	2301      	movs	r3, #1
 8001c84:	f884 3035 	strb.w	r3, [r4, #53]	; 0x35
 8001c88:	6ce3      	ldr	r3, [r4, #76]	; 0x4c
 8001c8a:	b10b      	cbz	r3, 8001c90 <HAL_DMA_IRQHandler+0x1d0>
 8001c8c:	4620      	mov	r0, r4
 8001c8e:	4798      	blx	r3
 8001c90:	b003      	add	sp, #12
 8001c92:	bdf0      	pop	{r4, r5, r6, r7, pc}
 8001c94:	20000008 	.word	0x20000008
 8001c98:	1b4e81b5 	.word	0x1b4e81b5

08001c9c <HAL_GPIO_Init>:
 8001c9c:	2300      	movs	r3, #0
 8001c9e:	2b0f      	cmp	r3, #15
 8001ca0:	f200 80c5 	bhi.w	8001e2e <HAL_GPIO_Init+0x192>
 8001ca4:	b5f0      	push	{r4, r5, r6, r7, lr}
 8001ca6:	b083      	sub	sp, #12
 8001ca8:	e039      	b.n	8001d1e <HAL_GPIO_Init+0x82>
 8001caa:	2204      	movs	r2, #4
 8001cac:	e000      	b.n	8001cb0 <HAL_GPIO_Init+0x14>
 8001cae:	2200      	movs	r2, #0
 8001cb0:	40aa      	lsls	r2, r5
 8001cb2:	433a      	orrs	r2, r7
 8001cb4:	3402      	adds	r4, #2
 8001cb6:	4d5e      	ldr	r5, [pc, #376]	; (8001e30 <HAL_GPIO_Init+0x194>)
 8001cb8:	f845 2024 	str.w	r2, [r5, r4, lsl #2]
 8001cbc:	4a5d      	ldr	r2, [pc, #372]	; (8001e34 <HAL_GPIO_Init+0x198>)
 8001cbe:	6814      	ldr	r4, [r2, #0]
 8001cc0:	43f2      	mvns	r2, r6
 8001cc2:	ea02 0504 	and.w	r5, r2, r4
 8001cc6:	684f      	ldr	r7, [r1, #4]
 8001cc8:	f417 3f80 	tst.w	r7, #65536	; 0x10000
 8001ccc:	d001      	beq.n	8001cd2 <HAL_GPIO_Init+0x36>
 8001cce:	ea46 0504 	orr.w	r5, r6, r4
 8001cd2:	4c58      	ldr	r4, [pc, #352]	; (8001e34 <HAL_GPIO_Init+0x198>)
 8001cd4:	6025      	str	r5, [r4, #0]
 8001cd6:	6864      	ldr	r4, [r4, #4]
 8001cd8:	ea02 0504 	and.w	r5, r2, r4
 8001cdc:	684f      	ldr	r7, [r1, #4]
 8001cde:	f417 3f00 	tst.w	r7, #131072	; 0x20000
 8001ce2:	d001      	beq.n	8001ce8 <HAL_GPIO_Init+0x4c>
 8001ce4:	ea46 0504 	orr.w	r5, r6, r4
 8001ce8:	4c52      	ldr	r4, [pc, #328]	; (8001e34 <HAL_GPIO_Init+0x198>)
 8001cea:	6065      	str	r5, [r4, #4]
 8001cec:	68a4      	ldr	r4, [r4, #8]
 8001cee:	ea02 0504 	and.w	r5, r2, r4
 8001cf2:	684f      	ldr	r7, [r1, #4]
 8001cf4:	f417 1f80 	tst.w	r7, #1048576	; 0x100000
 8001cf8:	d001      	beq.n	8001cfe <HAL_GPIO_Init+0x62>
 8001cfa:	ea46 0504 	orr.w	r5, r6, r4
 8001cfe:	4c4d      	ldr	r4, [pc, #308]	; (8001e34 <HAL_GPIO_Init+0x198>)
 8001d00:	60a5      	str	r5, [r4, #8]
 8001d02:	68e4      	ldr	r4, [r4, #12]
 8001d04:	4022      	ands	r2, r4
 8001d06:	684d      	ldr	r5, [r1, #4]
 8001d08:	f415 1f00 	tst.w	r5, #2097152	; 0x200000
 8001d0c:	d001      	beq.n	8001d12 <HAL_GPIO_Init+0x76>
 8001d0e:	ea46 0204 	orr.w	r2, r6, r4
 8001d12:	4c48      	ldr	r4, [pc, #288]	; (8001e34 <HAL_GPIO_Init+0x198>)
 8001d14:	60e2      	str	r2, [r4, #12]
 8001d16:	3301      	adds	r3, #1
 8001d18:	2b0f      	cmp	r3, #15
 8001d1a:	f200 8086 	bhi.w	8001e2a <HAL_GPIO_Init+0x18e>
 8001d1e:	2201      	movs	r2, #1
 8001d20:	409a      	lsls	r2, r3
 8001d22:	680c      	ldr	r4, [r1, #0]
 8001d24:	ea04 0602 	and.w	r6, r4, r2
 8001d28:	42b2      	cmp	r2, r6
 8001d2a:	d1f4      	bne.n	8001d16 <HAL_GPIO_Init+0x7a>
 8001d2c:	684c      	ldr	r4, [r1, #4]
 8001d2e:	1e65      	subs	r5, r4, #1
 8001d30:	2d01      	cmp	r5, #1
 8001d32:	d903      	bls.n	8001d3c <HAL_GPIO_Init+0xa0>
 8001d34:	2c11      	cmp	r4, #17
 8001d36:	d001      	beq.n	8001d3c <HAL_GPIO_Init+0xa0>
 8001d38:	2c12      	cmp	r4, #18
 8001d3a:	d112      	bne.n	8001d62 <HAL_GPIO_Init+0xc6>
 8001d3c:	6885      	ldr	r5, [r0, #8]
 8001d3e:	005f      	lsls	r7, r3, #1
 8001d40:	2403      	movs	r4, #3
 8001d42:	40bc      	lsls	r4, r7
 8001d44:	ea25 0504 	bic.w	r5, r5, r4
 8001d48:	68cc      	ldr	r4, [r1, #12]
 8001d4a:	40bc      	lsls	r4, r7
 8001d4c:	432c      	orrs	r4, r5
 8001d4e:	6084      	str	r4, [r0, #8]
 8001d50:	6845      	ldr	r5, [r0, #4]
 8001d52:	ea25 0502 	bic.w	r5, r5, r2
 8001d56:	684c      	ldr	r4, [r1, #4]
 8001d58:	f3c4 1200 	ubfx	r2, r4, #4, #1
 8001d5c:	409a      	lsls	r2, r3
 8001d5e:	432a      	orrs	r2, r5
 8001d60:	6042      	str	r2, [r0, #4]
 8001d62:	68c4      	ldr	r4, [r0, #12]
 8001d64:	005f      	lsls	r7, r3, #1
 8001d66:	2203      	movs	r2, #3
 8001d68:	40ba      	lsls	r2, r7
 8001d6a:	43d2      	mvns	r2, r2
 8001d6c:	4014      	ands	r4, r2
 8001d6e:	688d      	ldr	r5, [r1, #8]
 8001d70:	40bd      	lsls	r5, r7
 8001d72:	4325      	orrs	r5, r4
 8001d74:	60c5      	str	r5, [r0, #12]
 8001d76:	684c      	ldr	r4, [r1, #4]
 8001d78:	2c02      	cmp	r4, #2
 8001d7a:	d001      	beq.n	8001d80 <HAL_GPIO_Init+0xe4>
 8001d7c:	2c12      	cmp	r4, #18
 8001d7e:	d113      	bne.n	8001da8 <HAL_GPIO_Init+0x10c>
 8001d80:	08dd      	lsrs	r5, r3, #3
 8001d82:	3508      	adds	r5, #8
 8001d84:	f850 e025 	ldr.w	lr, [r0, r5, lsl #2]
 8001d88:	f003 0407 	and.w	r4, r3, #7
 8001d8c:	ea4f 0c84 	mov.w	ip, r4, lsl #2
 8001d90:	240f      	movs	r4, #15
 8001d92:	fa04 f40c 	lsl.w	r4, r4, ip
 8001d96:	ea2e 0e04 	bic.w	lr, lr, r4
 8001d9a:	690c      	ldr	r4, [r1, #16]
 8001d9c:	fa04 f40c 	lsl.w	r4, r4, ip
 8001da0:	ea44 040e 	orr.w	r4, r4, lr
 8001da4:	f840 4025 	str.w	r4, [r0, r5, lsl #2]
 8001da8:	6804      	ldr	r4, [r0, #0]
 8001daa:	4022      	ands	r2, r4
 8001dac:	684c      	ldr	r4, [r1, #4]
 8001dae:	f004 0403 	and.w	r4, r4, #3
 8001db2:	40bc      	lsls	r4, r7
 8001db4:	4322      	orrs	r2, r4
 8001db6:	6002      	str	r2, [r0, #0]
 8001db8:	684a      	ldr	r2, [r1, #4]
 8001dba:	f012 5f80 	tst.w	r2, #268435456	; 0x10000000
 8001dbe:	d0aa      	beq.n	8001d16 <HAL_GPIO_Init+0x7a>
 8001dc0:	2200      	movs	r2, #0
 8001dc2:	9201      	str	r2, [sp, #4]
 8001dc4:	4a1c      	ldr	r2, [pc, #112]	; (8001e38 <HAL_GPIO_Init+0x19c>)
 8001dc6:	6c54      	ldr	r4, [r2, #68]	; 0x44
 8001dc8:	f444 4480 	orr.w	r4, r4, #16384	; 0x4000
 8001dcc:	6454      	str	r4, [r2, #68]	; 0x44
 8001dce:	6c52      	ldr	r2, [r2, #68]	; 0x44
 8001dd0:	f402 4280 	and.w	r2, r2, #16384	; 0x4000
 8001dd4:	9201      	str	r2, [sp, #4]
 8001dd6:	9a01      	ldr	r2, [sp, #4]
 8001dd8:	089c      	lsrs	r4, r3, #2
 8001dda:	1ca5      	adds	r5, r4, #2
 8001ddc:	4a14      	ldr	r2, [pc, #80]	; (8001e30 <HAL_GPIO_Init+0x194>)
 8001dde:	f852 7025 	ldr.w	r7, [r2, r5, lsl #2]
 8001de2:	f003 0203 	and.w	r2, r3, #3
 8001de6:	0095      	lsls	r5, r2, #2
 8001de8:	220f      	movs	r2, #15
 8001dea:	40aa      	lsls	r2, r5
 8001dec:	ea27 0702 	bic.w	r7, r7, r2
 8001df0:	4a12      	ldr	r2, [pc, #72]	; (8001e3c <HAL_GPIO_Init+0x1a0>)
 8001df2:	4290      	cmp	r0, r2
 8001df4:	f43f af5b 	beq.w	8001cae <HAL_GPIO_Init+0x12>
 8001df8:	f502 6280 	add.w	r2, r2, #1024	; 0x400
 8001dfc:	4290      	cmp	r0, r2
 8001dfe:	d00e      	beq.n	8001e1e <HAL_GPIO_Init+0x182>
 8001e00:	f502 6280 	add.w	r2, r2, #1024	; 0x400
 8001e04:	4290      	cmp	r0, r2
 8001e06:	d00c      	beq.n	8001e22 <HAL_GPIO_Init+0x186>
 8001e08:	f502 6280 	add.w	r2, r2, #1024	; 0x400
 8001e0c:	4290      	cmp	r0, r2
 8001e0e:	d00a      	beq.n	8001e26 <HAL_GPIO_Init+0x18a>
 8001e10:	f502 6280 	add.w	r2, r2, #1024	; 0x400
 8001e14:	4290      	cmp	r0, r2
 8001e16:	f43f af48 	beq.w	8001caa <HAL_GPIO_Init+0xe>
 8001e1a:	2207      	movs	r2, #7
 8001e1c:	e748      	b.n	8001cb0 <HAL_GPIO_Init+0x14>
 8001e1e:	2201      	movs	r2, #1
 8001e20:	e746      	b.n	8001cb0 <HAL_GPIO_Init+0x14>
 8001e22:	2202      	movs	r2, #2
 8001e24:	e744      	b.n	8001cb0 <HAL_GPIO_Init+0x14>
 8001e26:	2203      	movs	r2, #3
 8001e28:	e742      	b.n	8001cb0 <HAL_GPIO_Init+0x14>
 8001e2a:	b003      	add	sp, #12
 8001e2c:	bdf0      	pop	{r4, r5, r6, r7, pc}
 8001e2e:	4770      	bx	lr
 8001e30:	40013800 	.word	0x40013800
 8001e34:	40013c00 	.word	0x40013c00
 8001e38:	40023800 	.word	0x40023800
 8001e3c:	40020000 	.word	0x40020000

08001e40 <HAL_I2S_Init>:
 8001e40:	2800      	cmp	r0, #0
 8001e42:	f000 80bf 	beq.w	8001fc4 <HAL_I2S_Init+0x184>
 8001e46:	b570      	push	{r4, r5, r6, lr}
 8001e48:	4604      	mov	r4, r0
 8001e4a:	f890 3041 	ldrb.w	r3, [r0, #65]	; 0x41
 8001e4e:	2b00      	cmp	r3, #0
 8001e50:	d051      	beq.n	8001ef6 <HAL_I2S_Init+0xb6>
 8001e52:	2202      	movs	r2, #2
 8001e54:	f884 2041 	strb.w	r2, [r4, #65]	; 0x41
 8001e58:	6821      	ldr	r1, [r4, #0]
 8001e5a:	69cb      	ldr	r3, [r1, #28]
 8001e5c:	f423 637b 	bic.w	r3, r3, #4016	; 0xfb0
 8001e60:	f023 030f 	bic.w	r3, r3, #15
 8001e64:	61cb      	str	r3, [r1, #28]
 8001e66:	6823      	ldr	r3, [r4, #0]
 8001e68:	621a      	str	r2, [r3, #32]
 8001e6a:	6963      	ldr	r3, [r4, #20]
 8001e6c:	4293      	cmp	r3, r2
 8001e6e:	d063      	beq.n	8001f38 <HAL_I2S_Init+0xf8>
 8001e70:	68e3      	ldr	r3, [r4, #12]
 8001e72:	2b00      	cmp	r3, #0
 8001e74:	d146      	bne.n	8001f04 <HAL_I2S_Init+0xc4>
 8001e76:	2510      	movs	r5, #16
 8001e78:	68a3      	ldr	r3, [r4, #8]
 8001e7a:	2b20      	cmp	r3, #32
 8001e7c:	d800      	bhi.n	8001e80 <HAL_I2S_Init+0x40>
 8001e7e:	006d      	lsls	r5, r5, #1
 8001e80:	2001      	movs	r0, #1
 8001e82:	f000 ff45 	bl	8002d10 <HAL_RCCEx_GetPeriphCLKFreq>
 8001e86:	6923      	ldr	r3, [r4, #16]
 8001e88:	f5b3 7f00 	cmp.w	r3, #512	; 0x200
 8001e8c:	d03c      	beq.n	8001f08 <HAL_I2S_Init+0xc8>
 8001e8e:	fbb0 f0f5 	udiv	r0, r0, r5
 8001e92:	eb00 0080 	add.w	r0, r0, r0, lsl #2
 8001e96:	0043      	lsls	r3, r0, #1
 8001e98:	6962      	ldr	r2, [r4, #20]
 8001e9a:	fbb3 f3f2 	udiv	r3, r3, r2
 8001e9e:	3305      	adds	r3, #5
 8001ea0:	4a49      	ldr	r2, [pc, #292]	; (8001fc8 <HAL_I2S_Init+0x188>)
 8001ea2:	fba2 2303 	umull	r2, r3, r2, r3
 8001ea6:	08db      	lsrs	r3, r3, #3
 8001ea8:	f003 0201 	and.w	r2, r3, #1
 8001eac:	1a9b      	subs	r3, r3, r2
 8001eae:	085b      	lsrs	r3, r3, #1
 8001eb0:	0212      	lsls	r2, r2, #8
 8001eb2:	1e99      	subs	r1, r3, #2
 8001eb4:	29fd      	cmp	r1, #253	; 0xfd
 8001eb6:	d841      	bhi.n	8001f3c <HAL_I2S_Init+0xfc>
 8001eb8:	6921      	ldr	r1, [r4, #16]
 8001eba:	430a      	orrs	r2, r1
 8001ebc:	6821      	ldr	r1, [r4, #0]
 8001ebe:	4313      	orrs	r3, r2
 8001ec0:	620b      	str	r3, [r1, #32]
 8001ec2:	6821      	ldr	r1, [r4, #0]
 8001ec4:	69cb      	ldr	r3, [r1, #28]
 8001ec6:	f423 637b 	bic.w	r3, r3, #4016	; 0xfb0
 8001eca:	f023 030f 	bic.w	r3, r3, #15
 8001ece:	6862      	ldr	r2, [r4, #4]
 8001ed0:	68a0      	ldr	r0, [r4, #8]
 8001ed2:	4302      	orrs	r2, r0
 8001ed4:	68e0      	ldr	r0, [r4, #12]
 8001ed6:	4302      	orrs	r2, r0
 8001ed8:	69a0      	ldr	r0, [r4, #24]
 8001eda:	4302      	orrs	r2, r0
 8001edc:	4313      	orrs	r3, r2
 8001ede:	f443 6300 	orr.w	r3, r3, #2048	; 0x800
 8001ee2:	61cb      	str	r3, [r1, #28]
 8001ee4:	6a23      	ldr	r3, [r4, #32]
 8001ee6:	2b01      	cmp	r3, #1
 8001ee8:	d02e      	beq.n	8001f48 <HAL_I2S_Init+0x108>
 8001eea:	2000      	movs	r0, #0
 8001eec:	6460      	str	r0, [r4, #68]	; 0x44
 8001eee:	2301      	movs	r3, #1
 8001ef0:	f884 3041 	strb.w	r3, [r4, #65]	; 0x41
 8001ef4:	bd70      	pop	{r4, r5, r6, pc}
 8001ef6:	f880 3040 	strb.w	r3, [r0, #64]	; 0x40
 8001efa:	4b34      	ldr	r3, [pc, #208]	; (8001fcc <HAL_I2S_Init+0x18c>)
 8001efc:	6343      	str	r3, [r0, #52]	; 0x34
 8001efe:	f7ff fa8d 	bl	800141c <HAL_I2S_MspInit>
 8001f02:	e7a6      	b.n	8001e52 <HAL_I2S_Init+0x12>
 8001f04:	2520      	movs	r5, #32
 8001f06:	e7b7      	b.n	8001e78 <HAL_I2S_Init+0x38>
 8001f08:	68e3      	ldr	r3, [r4, #12]
 8001f0a:	b153      	cbz	r3, 8001f22 <HAL_I2S_Init+0xe2>
 8001f0c:	00ad      	lsls	r5, r5, #2
 8001f0e:	fbb0 f0f5 	udiv	r0, r0, r5
 8001f12:	eb00 0080 	add.w	r0, r0, r0, lsl #2
 8001f16:	0043      	lsls	r3, r0, #1
 8001f18:	6962      	ldr	r2, [r4, #20]
 8001f1a:	fbb3 f3f2 	udiv	r3, r3, r2
 8001f1e:	3305      	adds	r3, #5
 8001f20:	e7be      	b.n	8001ea0 <HAL_I2S_Init+0x60>
 8001f22:	00ed      	lsls	r5, r5, #3
 8001f24:	fbb0 f0f5 	udiv	r0, r0, r5
 8001f28:	eb00 0080 	add.w	r0, r0, r0, lsl #2
 8001f2c:	0043      	lsls	r3, r0, #1
 8001f2e:	6962      	ldr	r2, [r4, #20]
 8001f30:	fbb3 f3f2 	udiv	r3, r3, r2
 8001f34:	3305      	adds	r3, #5
 8001f36:	e7b3      	b.n	8001ea0 <HAL_I2S_Init+0x60>
 8001f38:	2200      	movs	r2, #0
 8001f3a:	e7ba      	b.n	8001eb2 <HAL_I2S_Init+0x72>
 8001f3c:	6c63      	ldr	r3, [r4, #68]	; 0x44
 8001f3e:	f043 0310 	orr.w	r3, r3, #16
 8001f42:	6463      	str	r3, [r4, #68]	; 0x44
 8001f44:	2001      	movs	r0, #1
 8001f46:	e7d5      	b.n	8001ef4 <HAL_I2S_Init+0xb4>
 8001f48:	4b21      	ldr	r3, [pc, #132]	; (8001fd0 <HAL_I2S_Init+0x190>)
 8001f4a:	6363      	str	r3, [r4, #52]	; 0x34
 8001f4c:	6822      	ldr	r2, [r4, #0]
 8001f4e:	4b21      	ldr	r3, [pc, #132]	; (8001fd4 <HAL_I2S_Init+0x194>)
 8001f50:	429a      	cmp	r2, r3
 8001f52:	d01f      	beq.n	8001f94 <HAL_I2S_Init+0x154>
 8001f54:	f04f 2240 	mov.w	r2, #1073758208	; 0x40004000
 8001f58:	69d3      	ldr	r3, [r2, #28]
 8001f5a:	f423 637b 	bic.w	r3, r3, #4016	; 0xfb0
 8001f5e:	f023 030f 	bic.w	r3, r3, #15
 8001f62:	61d3      	str	r3, [r2, #28]
 8001f64:	6822      	ldr	r2, [r4, #0]
 8001f66:	4b1b      	ldr	r3, [pc, #108]	; (8001fd4 <HAL_I2S_Init+0x194>)
 8001f68:	429a      	cmp	r2, r3
 8001f6a:	d015      	beq.n	8001f98 <HAL_I2S_Init+0x158>
 8001f6c:	f04f 2340 	mov.w	r3, #1073758208	; 0x40004000
 8001f70:	2202      	movs	r2, #2
 8001f72:	621a      	str	r2, [r3, #32]
 8001f74:	6822      	ldr	r2, [r4, #0]
 8001f76:	4b17      	ldr	r3, [pc, #92]	; (8001fd4 <HAL_I2S_Init+0x194>)
 8001f78:	429a      	cmp	r2, r3
 8001f7a:	d010      	beq.n	8001f9e <HAL_I2S_Init+0x15e>
 8001f7c:	f04f 2140 	mov.w	r1, #1073758208	; 0x40004000
 8001f80:	69ca      	ldr	r2, [r1, #28]
 8001f82:	b292      	uxth	r2, r2
 8001f84:	6863      	ldr	r3, [r4, #4]
 8001f86:	f5b3 7f00 	cmp.w	r3, #512	; 0x200
 8001f8a:	d00a      	beq.n	8001fa2 <HAL_I2S_Init+0x162>
 8001f8c:	b9c3      	cbnz	r3, 8001fc0 <HAL_I2S_Init+0x180>
 8001f8e:	f44f 7680 	mov.w	r6, #256	; 0x100
 8001f92:	e008      	b.n	8001fa6 <HAL_I2S_Init+0x166>
 8001f94:	4a10      	ldr	r2, [pc, #64]	; (8001fd8 <HAL_I2S_Init+0x198>)
 8001f96:	e7df      	b.n	8001f58 <HAL_I2S_Init+0x118>
 8001f98:	f5a3 6380 	sub.w	r3, r3, #1024	; 0x400
 8001f9c:	e7e8      	b.n	8001f70 <HAL_I2S_Init+0x130>
 8001f9e:	490e      	ldr	r1, [pc, #56]	; (8001fd8 <HAL_I2S_Init+0x198>)
 8001fa0:	e7ee      	b.n	8001f80 <HAL_I2S_Init+0x140>
 8001fa2:	f44f 7680 	mov.w	r6, #256	; 0x100
 8001fa6:	68a0      	ldr	r0, [r4, #8]
 8001fa8:	68e5      	ldr	r5, [r4, #12]
 8001faa:	8b23      	ldrh	r3, [r4, #24]
 8001fac:	432b      	orrs	r3, r5
 8001fae:	b29b      	uxth	r3, r3
 8001fb0:	4303      	orrs	r3, r0
 8001fb2:	b29b      	uxth	r3, r3
 8001fb4:	4333      	orrs	r3, r6
 8001fb6:	4313      	orrs	r3, r2
 8001fb8:	f443 6300 	orr.w	r3, r3, #2048	; 0x800
 8001fbc:	61cb      	str	r3, [r1, #28]
 8001fbe:	e794      	b.n	8001eea <HAL_I2S_Init+0xaa>
 8001fc0:	2600      	movs	r6, #0
 8001fc2:	e7f0      	b.n	8001fa6 <HAL_I2S_Init+0x166>
 8001fc4:	2001      	movs	r0, #1
 8001fc6:	4770      	bx	lr
 8001fc8:	cccccccd 	.word	0xcccccccd
 8001fcc:	08002157 	.word	0x08002157
 8001fd0:	08002389 	.word	0x08002389
 8001fd4:	40003800 	.word	0x40003800
 8001fd8:	40003400 	.word	0x40003400

08001fdc <HAL_I2S_Transmit_DMA>:
 8001fdc:	2900      	cmp	r1, #0
 8001fde:	d05d      	beq.n	800209c <HAL_I2S_Transmit_DMA+0xc0>
 8001fe0:	b510      	push	{r4, lr}
 8001fe2:	2a00      	cmp	r2, #0
 8001fe4:	d05d      	beq.n	80020a2 <HAL_I2S_Transmit_DMA+0xc6>
 8001fe6:	f890 3040 	ldrb.w	r3, [r0, #64]	; 0x40
 8001fea:	b2db      	uxtb	r3, r3
 8001fec:	2b01      	cmp	r3, #1
 8001fee:	d05b      	beq.n	80020a8 <HAL_I2S_Transmit_DMA+0xcc>
 8001ff0:	2301      	movs	r3, #1
 8001ff2:	f880 3040 	strb.w	r3, [r0, #64]	; 0x40
 8001ff6:	f890 3041 	ldrb.w	r3, [r0, #65]	; 0x41
 8001ffa:	b2db      	uxtb	r3, r3
 8001ffc:	2b01      	cmp	r3, #1
 8001ffe:	d110      	bne.n	8002022 <HAL_I2S_Transmit_DMA+0x46>
 8002000:	2303      	movs	r3, #3
 8002002:	f880 3041 	strb.w	r3, [r0, #65]	; 0x41
 8002006:	2300      	movs	r3, #0
 8002008:	6443      	str	r3, [r0, #68]	; 0x44
 800200a:	6241      	str	r1, [r0, #36]	; 0x24
 800200c:	6803      	ldr	r3, [r0, #0]
 800200e:	69db      	ldr	r3, [r3, #28]
 8002010:	f003 0307 	and.w	r3, r3, #7
 8002014:	2b03      	cmp	r3, #3
 8002016:	d009      	beq.n	800202c <HAL_I2S_Transmit_DMA+0x50>
 8002018:	2b05      	cmp	r3, #5
 800201a:	d007      	beq.n	800202c <HAL_I2S_Transmit_DMA+0x50>
 800201c:	8502      	strh	r2, [r0, #40]	; 0x28
 800201e:	8542      	strh	r2, [r0, #42]	; 0x2a
 8002020:	e008      	b.n	8002034 <HAL_I2S_Transmit_DMA+0x58>
 8002022:	2300      	movs	r3, #0
 8002024:	f880 3040 	strb.w	r3, [r0, #64]	; 0x40
 8002028:	2302      	movs	r3, #2
 800202a:	e03b      	b.n	80020a4 <HAL_I2S_Transmit_DMA+0xc8>
 800202c:	0052      	lsls	r2, r2, #1
 800202e:	b292      	uxth	r2, r2
 8002030:	8502      	strh	r2, [r0, #40]	; 0x28
 8002032:	8542      	strh	r2, [r0, #42]	; 0x2a
 8002034:	4604      	mov	r4, r0
 8002036:	6b83      	ldr	r3, [r0, #56]	; 0x38
 8002038:	4a1c      	ldr	r2, [pc, #112]	; (80020ac <HAL_I2S_Transmit_DMA+0xd0>)
 800203a:	641a      	str	r2, [r3, #64]	; 0x40
 800203c:	6b83      	ldr	r3, [r0, #56]	; 0x38
 800203e:	4a1c      	ldr	r2, [pc, #112]	; (80020b0 <HAL_I2S_Transmit_DMA+0xd4>)
 8002040:	63da      	str	r2, [r3, #60]	; 0x3c
 8002042:	6b83      	ldr	r3, [r0, #56]	; 0x38
 8002044:	4a1b      	ldr	r2, [pc, #108]	; (80020b4 <HAL_I2S_Transmit_DMA+0xd8>)
 8002046:	64da      	str	r2, [r3, #76]	; 0x4c
 8002048:	6802      	ldr	r2, [r0, #0]
 800204a:	8d03      	ldrh	r3, [r0, #40]	; 0x28
 800204c:	320c      	adds	r2, #12
 800204e:	6a41      	ldr	r1, [r0, #36]	; 0x24
 8002050:	6b80      	ldr	r0, [r0, #56]	; 0x38
 8002052:	f7ff fced 	bl	8001a30 <HAL_DMA_Start_IT>
 8002056:	4603      	mov	r3, r0
 8002058:	b9a8      	cbnz	r0, 8002086 <HAL_I2S_Transmit_DMA+0xaa>
 800205a:	6822      	ldr	r2, [r4, #0]
 800205c:	69d1      	ldr	r1, [r2, #28]
 800205e:	f411 6f80 	tst.w	r1, #1024	; 0x400
 8002062:	d103      	bne.n	800206c <HAL_I2S_Transmit_DMA+0x90>
 8002064:	69d1      	ldr	r1, [r2, #28]
 8002066:	f441 6180 	orr.w	r1, r1, #1024	; 0x400
 800206a:	61d1      	str	r1, [r2, #28]
 800206c:	6822      	ldr	r2, [r4, #0]
 800206e:	6851      	ldr	r1, [r2, #4]
 8002070:	f011 0f02 	tst.w	r1, #2
 8002074:	d103      	bne.n	800207e <HAL_I2S_Transmit_DMA+0xa2>
 8002076:	6851      	ldr	r1, [r2, #4]
 8002078:	f041 0102 	orr.w	r1, r1, #2
 800207c:	6051      	str	r1, [r2, #4]
 800207e:	2200      	movs	r2, #0
 8002080:	f884 2040 	strb.w	r2, [r4, #64]	; 0x40
 8002084:	e00e      	b.n	80020a4 <HAL_I2S_Transmit_DMA+0xc8>
 8002086:	6c63      	ldr	r3, [r4, #68]	; 0x44
 8002088:	f043 0308 	orr.w	r3, r3, #8
 800208c:	6463      	str	r3, [r4, #68]	; 0x44
 800208e:	2301      	movs	r3, #1
 8002090:	f884 3041 	strb.w	r3, [r4, #65]	; 0x41
 8002094:	2200      	movs	r2, #0
 8002096:	f884 2040 	strb.w	r2, [r4, #64]	; 0x40
 800209a:	e003      	b.n	80020a4 <HAL_I2S_Transmit_DMA+0xc8>
 800209c:	2301      	movs	r3, #1
 800209e:	4618      	mov	r0, r3
 80020a0:	4770      	bx	lr
 80020a2:	2301      	movs	r3, #1
 80020a4:	4618      	mov	r0, r3
 80020a6:	bd10      	pop	{r4, pc}
 80020a8:	2302      	movs	r3, #2
 80020aa:	e7fb      	b.n	80020a4 <HAL_I2S_Transmit_DMA+0xc8>
 80020ac:	080020b9 	.word	0x080020b9
 80020b0:	080020f9 	.word	0x080020f9
 80020b4:	08002227 	.word	0x08002227

080020b8 <I2S_DMATxHalfCplt>:
 80020b8:	b508      	push	{r3, lr}
 80020ba:	6b80      	ldr	r0, [r0, #56]	; 0x38
 80020bc:	f7fe feae 	bl	8000e1c <HAL_I2S_TxHalfCpltCallback>
 80020c0:	bd08      	pop	{r3, pc}

080020c2 <I2S_Transmit_IT>:
 80020c2:	b508      	push	{r3, lr}
 80020c4:	6a42      	ldr	r2, [r0, #36]	; 0x24
 80020c6:	6803      	ldr	r3, [r0, #0]
 80020c8:	8812      	ldrh	r2, [r2, #0]
 80020ca:	60da      	str	r2, [r3, #12]
 80020cc:	6a43      	ldr	r3, [r0, #36]	; 0x24
 80020ce:	3302      	adds	r3, #2
 80020d0:	6243      	str	r3, [r0, #36]	; 0x24
 80020d2:	8d43      	ldrh	r3, [r0, #42]	; 0x2a
 80020d4:	3b01      	subs	r3, #1
 80020d6:	b29b      	uxth	r3, r3
 80020d8:	8543      	strh	r3, [r0, #42]	; 0x2a
 80020da:	8d43      	ldrh	r3, [r0, #42]	; 0x2a
 80020dc:	b29b      	uxth	r3, r3
 80020de:	b103      	cbz	r3, 80020e2 <I2S_Transmit_IT+0x20>
 80020e0:	bd08      	pop	{r3, pc}
 80020e2:	6802      	ldr	r2, [r0, #0]
 80020e4:	6853      	ldr	r3, [r2, #4]
 80020e6:	f023 03a0 	bic.w	r3, r3, #160	; 0xa0
 80020ea:	6053      	str	r3, [r2, #4]
 80020ec:	2301      	movs	r3, #1
 80020ee:	f880 3041 	strb.w	r3, [r0, #65]	; 0x41
 80020f2:	f7fe fe9d 	bl	8000e30 <HAL_I2S_TxCpltCallback>
 80020f6:	e7f3      	b.n	80020e0 <I2S_Transmit_IT+0x1e>

080020f8 <I2S_DMATxCplt>:
 80020f8:	b508      	push	{r3, lr}
 80020fa:	6b83      	ldr	r3, [r0, #56]	; 0x38
 80020fc:	69c2      	ldr	r2, [r0, #28]
 80020fe:	b94a      	cbnz	r2, 8002114 <I2S_DMATxCplt+0x1c>
 8002100:	6819      	ldr	r1, [r3, #0]
 8002102:	684a      	ldr	r2, [r1, #4]
 8002104:	f022 0202 	bic.w	r2, r2, #2
 8002108:	604a      	str	r2, [r1, #4]
 800210a:	2200      	movs	r2, #0
 800210c:	855a      	strh	r2, [r3, #42]	; 0x2a
 800210e:	2201      	movs	r2, #1
 8002110:	f883 2041 	strb.w	r2, [r3, #65]	; 0x41
 8002114:	4618      	mov	r0, r3
 8002116:	f7fe fe8b 	bl	8000e30 <HAL_I2S_TxCpltCallback>
 800211a:	bd08      	pop	{r3, pc}

0800211c <HAL_I2S_RxCpltCallback>:
 800211c:	4770      	bx	lr

0800211e <I2S_Receive_IT>:
 800211e:	b508      	push	{r3, lr}
 8002120:	6803      	ldr	r3, [r0, #0]
 8002122:	68da      	ldr	r2, [r3, #12]
 8002124:	6ac3      	ldr	r3, [r0, #44]	; 0x2c
 8002126:	801a      	strh	r2, [r3, #0]
 8002128:	6ac3      	ldr	r3, [r0, #44]	; 0x2c
 800212a:	3302      	adds	r3, #2
 800212c:	62c3      	str	r3, [r0, #44]	; 0x2c
 800212e:	8e43      	ldrh	r3, [r0, #50]	; 0x32
 8002130:	3b01      	subs	r3, #1
 8002132:	b29b      	uxth	r3, r3
 8002134:	8643      	strh	r3, [r0, #50]	; 0x32
 8002136:	8e43      	ldrh	r3, [r0, #50]	; 0x32
 8002138:	b29b      	uxth	r3, r3
 800213a:	b103      	cbz	r3, 800213e <I2S_Receive_IT+0x20>
 800213c:	bd08      	pop	{r3, pc}
 800213e:	6802      	ldr	r2, [r0, #0]
 8002140:	6853      	ldr	r3, [r2, #4]
 8002142:	f023 0360 	bic.w	r3, r3, #96	; 0x60
 8002146:	6053      	str	r3, [r2, #4]
 8002148:	2301      	movs	r3, #1
 800214a:	f880 3041 	strb.w	r3, [r0, #65]	; 0x41
 800214e:	f7ff ffe5 	bl	800211c <HAL_I2S_RxCpltCallback>
 8002152:	e7f3      	b.n	800213c <I2S_Receive_IT+0x1e>

08002154 <HAL_I2S_ErrorCallback>:
 8002154:	4770      	bx	lr

08002156 <I2S_IRQHandler>:
 8002156:	b510      	push	{r4, lr}
 8002158:	b084      	sub	sp, #16
 800215a:	4604      	mov	r4, r0
 800215c:	6802      	ldr	r2, [r0, #0]
 800215e:	6893      	ldr	r3, [r2, #8]
 8002160:	9303      	str	r3, [sp, #12]
 8002162:	f890 3041 	ldrb.w	r3, [r0, #65]	; 0x41
 8002166:	b2db      	uxtb	r3, r3
 8002168:	2b04      	cmp	r3, #4
 800216a:	d006      	beq.n	800217a <I2S_IRQHandler+0x24>
 800216c:	f894 3041 	ldrb.w	r3, [r4, #65]	; 0x41
 8002170:	b2db      	uxtb	r3, r3
 8002172:	2b03      	cmp	r3, #3
 8002174:	d02c      	beq.n	80021d0 <I2S_IRQHandler+0x7a>
 8002176:	b004      	add	sp, #16
 8002178:	bd10      	pop	{r4, pc}
 800217a:	9b03      	ldr	r3, [sp, #12]
 800217c:	f013 0f01 	tst.w	r3, #1
 8002180:	d003      	beq.n	800218a <I2S_IRQHandler+0x34>
 8002182:	6853      	ldr	r3, [r2, #4]
 8002184:	f013 0f40 	tst.w	r3, #64	; 0x40
 8002188:	d11f      	bne.n	80021ca <I2S_IRQHandler+0x74>
 800218a:	9b03      	ldr	r3, [sp, #12]
 800218c:	f013 0f40 	tst.w	r3, #64	; 0x40
 8002190:	d0ec      	beq.n	800216c <I2S_IRQHandler+0x16>
 8002192:	6823      	ldr	r3, [r4, #0]
 8002194:	685a      	ldr	r2, [r3, #4]
 8002196:	f012 0f20 	tst.w	r2, #32
 800219a:	d0e7      	beq.n	800216c <I2S_IRQHandler+0x16>
 800219c:	685a      	ldr	r2, [r3, #4]
 800219e:	f022 0260 	bic.w	r2, r2, #96	; 0x60
 80021a2:	605a      	str	r2, [r3, #4]
 80021a4:	2300      	movs	r3, #0
 80021a6:	9301      	str	r3, [sp, #4]
 80021a8:	6823      	ldr	r3, [r4, #0]
 80021aa:	68da      	ldr	r2, [r3, #12]
 80021ac:	9201      	str	r2, [sp, #4]
 80021ae:	689b      	ldr	r3, [r3, #8]
 80021b0:	9301      	str	r3, [sp, #4]
 80021b2:	9b01      	ldr	r3, [sp, #4]
 80021b4:	2301      	movs	r3, #1
 80021b6:	f884 3041 	strb.w	r3, [r4, #65]	; 0x41
 80021ba:	6c63      	ldr	r3, [r4, #68]	; 0x44
 80021bc:	f043 0302 	orr.w	r3, r3, #2
 80021c0:	6463      	str	r3, [r4, #68]	; 0x44
 80021c2:	4620      	mov	r0, r4
 80021c4:	f7ff ffc6 	bl	8002154 <HAL_I2S_ErrorCallback>
 80021c8:	e7d0      	b.n	800216c <I2S_IRQHandler+0x16>
 80021ca:	f7ff ffa8 	bl	800211e <I2S_Receive_IT>
 80021ce:	e7dc      	b.n	800218a <I2S_IRQHandler+0x34>
 80021d0:	9b03      	ldr	r3, [sp, #12]
 80021d2:	f013 0f02 	tst.w	r3, #2
 80021d6:	d004      	beq.n	80021e2 <I2S_IRQHandler+0x8c>
 80021d8:	6823      	ldr	r3, [r4, #0]
 80021da:	685b      	ldr	r3, [r3, #4]
 80021dc:	f013 0f80 	tst.w	r3, #128	; 0x80
 80021e0:	d11d      	bne.n	800221e <I2S_IRQHandler+0xc8>
 80021e2:	9b03      	ldr	r3, [sp, #12]
 80021e4:	f013 0f08 	tst.w	r3, #8
 80021e8:	d0c5      	beq.n	8002176 <I2S_IRQHandler+0x20>
 80021ea:	6823      	ldr	r3, [r4, #0]
 80021ec:	685a      	ldr	r2, [r3, #4]
 80021ee:	f012 0f20 	tst.w	r2, #32
 80021f2:	d0c0      	beq.n	8002176 <I2S_IRQHandler+0x20>
 80021f4:	685a      	ldr	r2, [r3, #4]
 80021f6:	f022 02a0 	bic.w	r2, r2, #160	; 0xa0
 80021fa:	605a      	str	r2, [r3, #4]
 80021fc:	2300      	movs	r3, #0
 80021fe:	9302      	str	r3, [sp, #8]
 8002200:	6823      	ldr	r3, [r4, #0]
 8002202:	689b      	ldr	r3, [r3, #8]
 8002204:	9302      	str	r3, [sp, #8]
 8002206:	9b02      	ldr	r3, [sp, #8]
 8002208:	2301      	movs	r3, #1
 800220a:	f884 3041 	strb.w	r3, [r4, #65]	; 0x41
 800220e:	6c63      	ldr	r3, [r4, #68]	; 0x44
 8002210:	f043 0304 	orr.w	r3, r3, #4
 8002214:	6463      	str	r3, [r4, #68]	; 0x44
 8002216:	4620      	mov	r0, r4
 8002218:	f7ff ff9c 	bl	8002154 <HAL_I2S_ErrorCallback>
 800221c:	e7ab      	b.n	8002176 <I2S_IRQHandler+0x20>
 800221e:	4620      	mov	r0, r4
 8002220:	f7ff ff4f 	bl	80020c2 <I2S_Transmit_IT>
 8002224:	e7dd      	b.n	80021e2 <I2S_IRQHandler+0x8c>

08002226 <I2S_DMAError>:
 8002226:	b508      	push	{r3, lr}
 8002228:	6b80      	ldr	r0, [r0, #56]	; 0x38
 800222a:	6802      	ldr	r2, [r0, #0]
 800222c:	6853      	ldr	r3, [r2, #4]
 800222e:	f023 0303 	bic.w	r3, r3, #3
 8002232:	6053      	str	r3, [r2, #4]
 8002234:	2300      	movs	r3, #0
 8002236:	8543      	strh	r3, [r0, #42]	; 0x2a
 8002238:	8643      	strh	r3, [r0, #50]	; 0x32
 800223a:	2301      	movs	r3, #1
 800223c:	f880 3041 	strb.w	r3, [r0, #65]	; 0x41
 8002240:	6c43      	ldr	r3, [r0, #68]	; 0x44
 8002242:	f043 0308 	orr.w	r3, r3, #8
 8002246:	6443      	str	r3, [r0, #68]	; 0x44
 8002248:	f7ff ff84 	bl	8002154 <HAL_I2S_ErrorCallback>
 800224c:	bd08      	pop	{r3, pc}

0800224e <HAL_I2SEx_TxRxCpltCallback>:
 800224e:	4770      	bx	lr

08002250 <I2SEx_TxISR_I2S>:
 8002250:	b508      	push	{r3, lr}
 8002252:	6a43      	ldr	r3, [r0, #36]	; 0x24
 8002254:	1c9a      	adds	r2, r3, #2
 8002256:	6242      	str	r2, [r0, #36]	; 0x24
 8002258:	6802      	ldr	r2, [r0, #0]
 800225a:	881b      	ldrh	r3, [r3, #0]
 800225c:	60d3      	str	r3, [r2, #12]
 800225e:	8d43      	ldrh	r3, [r0, #42]	; 0x2a
 8002260:	3b01      	subs	r3, #1
 8002262:	b29b      	uxth	r3, r3
 8002264:	8543      	strh	r3, [r0, #42]	; 0x2a
 8002266:	8d43      	ldrh	r3, [r0, #42]	; 0x2a
 8002268:	b29b      	uxth	r3, r3
 800226a:	b93b      	cbnz	r3, 800227c <I2SEx_TxISR_I2S+0x2c>
 800226c:	6802      	ldr	r2, [r0, #0]
 800226e:	6853      	ldr	r3, [r2, #4]
 8002270:	f023 03a0 	bic.w	r3, r3, #160	; 0xa0
 8002274:	6053      	str	r3, [r2, #4]
 8002276:	8e43      	ldrh	r3, [r0, #50]	; 0x32
 8002278:	b29b      	uxth	r3, r3
 800227a:	b103      	cbz	r3, 800227e <I2SEx_TxISR_I2S+0x2e>
 800227c:	bd08      	pop	{r3, pc}
 800227e:	2301      	movs	r3, #1
 8002280:	f880 3041 	strb.w	r3, [r0, #65]	; 0x41
 8002284:	f7ff ffe3 	bl	800224e <HAL_I2SEx_TxRxCpltCallback>
 8002288:	e7f8      	b.n	800227c <I2SEx_TxISR_I2S+0x2c>
	...

0800228c <I2SEx_RxISR_I2SExt>:
 800228c:	b508      	push	{r3, lr}
 800228e:	6802      	ldr	r2, [r0, #0]
 8002290:	4b14      	ldr	r3, [pc, #80]	; (80022e4 <I2SEx_RxISR_I2SExt+0x58>)
 8002292:	429a      	cmp	r2, r3
 8002294:	d01b      	beq.n	80022ce <I2SEx_RxISR_I2SExt+0x42>
 8002296:	f04f 2340 	mov.w	r3, #1073758208	; 0x40004000
 800229a:	68da      	ldr	r2, [r3, #12]
 800229c:	6ac3      	ldr	r3, [r0, #44]	; 0x2c
 800229e:	1c99      	adds	r1, r3, #2
 80022a0:	62c1      	str	r1, [r0, #44]	; 0x2c
 80022a2:	801a      	strh	r2, [r3, #0]
 80022a4:	8e43      	ldrh	r3, [r0, #50]	; 0x32
 80022a6:	3b01      	subs	r3, #1
 80022a8:	b29b      	uxth	r3, r3
 80022aa:	8643      	strh	r3, [r0, #50]	; 0x32
 80022ac:	8e43      	ldrh	r3, [r0, #50]	; 0x32
 80022ae:	b29b      	uxth	r3, r3
 80022b0:	b963      	cbnz	r3, 80022cc <I2SEx_RxISR_I2SExt+0x40>
 80022b2:	6802      	ldr	r2, [r0, #0]
 80022b4:	4b0b      	ldr	r3, [pc, #44]	; (80022e4 <I2SEx_RxISR_I2SExt+0x58>)
 80022b6:	429a      	cmp	r2, r3
 80022b8:	d00c      	beq.n	80022d4 <I2SEx_RxISR_I2SExt+0x48>
 80022ba:	f04f 2240 	mov.w	r2, #1073758208	; 0x40004000
 80022be:	6853      	ldr	r3, [r2, #4]
 80022c0:	f023 0360 	bic.w	r3, r3, #96	; 0x60
 80022c4:	6053      	str	r3, [r2, #4]
 80022c6:	8d43      	ldrh	r3, [r0, #42]	; 0x2a
 80022c8:	b29b      	uxth	r3, r3
 80022ca:	b12b      	cbz	r3, 80022d8 <I2SEx_RxISR_I2SExt+0x4c>
 80022cc:	bd08      	pop	{r3, pc}
 80022ce:	f5a3 6380 	sub.w	r3, r3, #1024	; 0x400
 80022d2:	e7e2      	b.n	800229a <I2SEx_RxISR_I2SExt+0xe>
 80022d4:	4a04      	ldr	r2, [pc, #16]	; (80022e8 <I2SEx_RxISR_I2SExt+0x5c>)
 80022d6:	e7f2      	b.n	80022be <I2SEx_RxISR_I2SExt+0x32>
 80022d8:	2301      	movs	r3, #1
 80022da:	f880 3041 	strb.w	r3, [r0, #65]	; 0x41
 80022de:	f7ff ffb6 	bl	800224e <HAL_I2SEx_TxRxCpltCallback>
 80022e2:	e7f3      	b.n	80022cc <I2SEx_RxISR_I2SExt+0x40>
 80022e4:	40003800 	.word	0x40003800
 80022e8:	40003400 	.word	0x40003400

080022ec <I2SEx_TxISR_I2SExt>:
 80022ec:	b508      	push	{r3, lr}
 80022ee:	6a43      	ldr	r3, [r0, #36]	; 0x24
 80022f0:	1c9a      	adds	r2, r3, #2
 80022f2:	6242      	str	r2, [r0, #36]	; 0x24
 80022f4:	881a      	ldrh	r2, [r3, #0]
 80022f6:	6801      	ldr	r1, [r0, #0]
 80022f8:	4b12      	ldr	r3, [pc, #72]	; (8002344 <I2SEx_TxISR_I2SExt+0x58>)
 80022fa:	4299      	cmp	r1, r3
 80022fc:	d017      	beq.n	800232e <I2SEx_TxISR_I2SExt+0x42>
 80022fe:	f04f 2340 	mov.w	r3, #1073758208	; 0x40004000
 8002302:	60da      	str	r2, [r3, #12]
 8002304:	8d43      	ldrh	r3, [r0, #42]	; 0x2a
 8002306:	3b01      	subs	r3, #1
 8002308:	b29b      	uxth	r3, r3
 800230a:	8543      	strh	r3, [r0, #42]	; 0x2a
 800230c:	8d43      	ldrh	r3, [r0, #42]	; 0x2a
 800230e:	b29b      	uxth	r3, r3
 8002310:	b963      	cbnz	r3, 800232c <I2SEx_TxISR_I2SExt+0x40>
 8002312:	6802      	ldr	r2, [r0, #0]
 8002314:	4b0b      	ldr	r3, [pc, #44]	; (8002344 <I2SEx_TxISR_I2SExt+0x58>)
 8002316:	429a      	cmp	r2, r3
 8002318:	d00c      	beq.n	8002334 <I2SEx_TxISR_I2SExt+0x48>
 800231a:	f04f 2240 	mov.w	r2, #1073758208	; 0x40004000
 800231e:	6853      	ldr	r3, [r2, #4]
 8002320:	f023 03a0 	bic.w	r3, r3, #160	; 0xa0
 8002324:	6053      	str	r3, [r2, #4]
 8002326:	8e43      	ldrh	r3, [r0, #50]	; 0x32
 8002328:	b29b      	uxth	r3, r3
 800232a:	b12b      	cbz	r3, 8002338 <I2SEx_TxISR_I2SExt+0x4c>
 800232c:	bd08      	pop	{r3, pc}
 800232e:	f5a3 6380 	sub.w	r3, r3, #1024	; 0x400
 8002332:	e7e6      	b.n	8002302 <I2SEx_TxISR_I2SExt+0x16>
 8002334:	4a04      	ldr	r2, [pc, #16]	; (8002348 <I2SEx_TxISR_I2SExt+0x5c>)
 8002336:	e7f2      	b.n	800231e <I2SEx_TxISR_I2SExt+0x32>
 8002338:	2301      	movs	r3, #1
 800233a:	f880 3041 	strb.w	r3, [r0, #65]	; 0x41
 800233e:	f7ff ff86 	bl	800224e <HAL_I2SEx_TxRxCpltCallback>
 8002342:	e7f3      	b.n	800232c <I2SEx_TxISR_I2SExt+0x40>
 8002344:	40003800 	.word	0x40003800
 8002348:	40003400 	.word	0x40003400

0800234c <I2SEx_RxISR_I2S>:
 800234c:	b508      	push	{r3, lr}
 800234e:	6803      	ldr	r3, [r0, #0]
 8002350:	68da      	ldr	r2, [r3, #12]
 8002352:	6ac3      	ldr	r3, [r0, #44]	; 0x2c
 8002354:	1c99      	adds	r1, r3, #2
 8002356:	62c1      	str	r1, [r0, #44]	; 0x2c
 8002358:	801a      	strh	r2, [r3, #0]
 800235a:	8e43      	ldrh	r3, [r0, #50]	; 0x32
 800235c:	3b01      	subs	r3, #1
 800235e:	b29b      	uxth	r3, r3
 8002360:	8643      	strh	r3, [r0, #50]	; 0x32
 8002362:	8e43      	ldrh	r3, [r0, #50]	; 0x32
 8002364:	b29b      	uxth	r3, r3
 8002366:	b93b      	cbnz	r3, 8002378 <I2SEx_RxISR_I2S+0x2c>
 8002368:	6802      	ldr	r2, [r0, #0]
 800236a:	6853      	ldr	r3, [r2, #4]
 800236c:	f023 0360 	bic.w	r3, r3, #96	; 0x60
 8002370:	6053      	str	r3, [r2, #4]
 8002372:	8d43      	ldrh	r3, [r0, #42]	; 0x2a
 8002374:	b29b      	uxth	r3, r3
 8002376:	b103      	cbz	r3, 800237a <I2SEx_RxISR_I2S+0x2e>
 8002378:	bd08      	pop	{r3, pc}
 800237a:	2301      	movs	r3, #1
 800237c:	f880 3041 	strb.w	r3, [r0, #65]	; 0x41
 8002380:	f7ff ff65 	bl	800224e <HAL_I2SEx_TxRxCpltCallback>
 8002384:	e7f8      	b.n	8002378 <I2SEx_RxISR_I2S+0x2c>
	...

08002388 <HAL_I2SEx_FullDuplex_IRQHandler>:
 8002388:	b510      	push	{r4, lr}
 800238a:	b086      	sub	sp, #24
 800238c:	4604      	mov	r4, r0
 800238e:	6803      	ldr	r3, [r0, #0]
 8002390:	689a      	ldr	r2, [r3, #8]
 8002392:	9205      	str	r2, [sp, #20]
 8002394:	4a70      	ldr	r2, [pc, #448]	; (8002558 <HAL_I2SEx_FullDuplex_IRQHandler+0x1d0>)
 8002396:	4293      	cmp	r3, r2
 8002398:	d06f      	beq.n	800247a <HAL_I2SEx_FullDuplex_IRQHandler+0xf2>
 800239a:	f04f 2240 	mov.w	r2, #1073758208	; 0x40004000
 800239e:	6891      	ldr	r1, [r2, #8]
 80023a0:	9104      	str	r1, [sp, #16]
 80023a2:	685b      	ldr	r3, [r3, #4]
 80023a4:	9303      	str	r3, [sp, #12]
 80023a6:	6853      	ldr	r3, [r2, #4]
 80023a8:	9302      	str	r3, [sp, #8]
 80023aa:	6863      	ldr	r3, [r4, #4]
 80023ac:	f5b3 7f00 	cmp.w	r3, #512	; 0x200
 80023b0:	d001      	beq.n	80023b6 <HAL_I2SEx_FullDuplex_IRQHandler+0x2e>
 80023b2:	2b00      	cmp	r3, #0
 80023b4:	d170      	bne.n	8002498 <HAL_I2SEx_FullDuplex_IRQHandler+0x110>
 80023b6:	9b05      	ldr	r3, [sp, #20]
 80023b8:	f013 0f02 	tst.w	r3, #2
 80023bc:	d003      	beq.n	80023c6 <HAL_I2SEx_FullDuplex_IRQHandler+0x3e>
 80023be:	9b03      	ldr	r3, [sp, #12]
 80023c0:	f013 0f80 	tst.w	r3, #128	; 0x80
 80023c4:	d15c      	bne.n	8002480 <HAL_I2SEx_FullDuplex_IRQHandler+0xf8>
 80023c6:	9b04      	ldr	r3, [sp, #16]
 80023c8:	f013 0f01 	tst.w	r3, #1
 80023cc:	d003      	beq.n	80023d6 <HAL_I2SEx_FullDuplex_IRQHandler+0x4e>
 80023ce:	9b02      	ldr	r3, [sp, #8]
 80023d0:	f013 0f40 	tst.w	r3, #64	; 0x40
 80023d4:	d158      	bne.n	8002488 <HAL_I2SEx_FullDuplex_IRQHandler+0x100>
 80023d6:	9b04      	ldr	r3, [sp, #16]
 80023d8:	f013 0f40 	tst.w	r3, #64	; 0x40
 80023dc:	d024      	beq.n	8002428 <HAL_I2SEx_FullDuplex_IRQHandler+0xa0>
 80023de:	9b02      	ldr	r3, [sp, #8]
 80023e0:	f013 0f20 	tst.w	r3, #32
 80023e4:	d020      	beq.n	8002428 <HAL_I2SEx_FullDuplex_IRQHandler+0xa0>
 80023e6:	6822      	ldr	r2, [r4, #0]
 80023e8:	4b5b      	ldr	r3, [pc, #364]	; (8002558 <HAL_I2SEx_FullDuplex_IRQHandler+0x1d0>)
 80023ea:	429a      	cmp	r2, r3
 80023ec:	d050      	beq.n	8002490 <HAL_I2SEx_FullDuplex_IRQHandler+0x108>
 80023ee:	f04f 2240 	mov.w	r2, #1073758208	; 0x40004000
 80023f2:	6853      	ldr	r3, [r2, #4]
 80023f4:	f023 0360 	bic.w	r3, r3, #96	; 0x60
 80023f8:	6053      	str	r3, [r2, #4]
 80023fa:	6822      	ldr	r2, [r4, #0]
 80023fc:	6853      	ldr	r3, [r2, #4]
 80023fe:	f023 03a0 	bic.w	r3, r3, #160	; 0xa0
 8002402:	6053      	str	r3, [r2, #4]
 8002404:	2300      	movs	r3, #0
 8002406:	9300      	str	r3, [sp, #0]
 8002408:	6823      	ldr	r3, [r4, #0]
 800240a:	68da      	ldr	r2, [r3, #12]
 800240c:	9200      	str	r2, [sp, #0]
 800240e:	689b      	ldr	r3, [r3, #8]
 8002410:	9300      	str	r3, [sp, #0]
 8002412:	9b00      	ldr	r3, [sp, #0]
 8002414:	2301      	movs	r3, #1
 8002416:	f884 3041 	strb.w	r3, [r4, #65]	; 0x41
 800241a:	6c63      	ldr	r3, [r4, #68]	; 0x44
 800241c:	f043 0302 	orr.w	r3, r3, #2
 8002420:	6463      	str	r3, [r4, #68]	; 0x44
 8002422:	4620      	mov	r0, r4
 8002424:	f7ff fe96 	bl	8002154 <HAL_I2S_ErrorCallback>
 8002428:	9b05      	ldr	r3, [sp, #20]
 800242a:	f013 0f08 	tst.w	r3, #8
 800242e:	d022      	beq.n	8002476 <HAL_I2SEx_FullDuplex_IRQHandler+0xee>
 8002430:	9b03      	ldr	r3, [sp, #12]
 8002432:	f013 0f20 	tst.w	r3, #32
 8002436:	d01e      	beq.n	8002476 <HAL_I2SEx_FullDuplex_IRQHandler+0xee>
 8002438:	6822      	ldr	r2, [r4, #0]
 800243a:	6853      	ldr	r3, [r2, #4]
 800243c:	f023 03a0 	bic.w	r3, r3, #160	; 0xa0
 8002440:	6053      	str	r3, [r2, #4]
 8002442:	6822      	ldr	r2, [r4, #0]
 8002444:	4b44      	ldr	r3, [pc, #272]	; (8002558 <HAL_I2SEx_FullDuplex_IRQHandler+0x1d0>)
 8002446:	429a      	cmp	r2, r3
 8002448:	d024      	beq.n	8002494 <HAL_I2SEx_FullDuplex_IRQHandler+0x10c>
 800244a:	f04f 2240 	mov.w	r2, #1073758208	; 0x40004000
 800244e:	6853      	ldr	r3, [r2, #4]
 8002450:	f023 0360 	bic.w	r3, r3, #96	; 0x60
 8002454:	6053      	str	r3, [r2, #4]
 8002456:	2300      	movs	r3, #0
 8002458:	9301      	str	r3, [sp, #4]
 800245a:	6823      	ldr	r3, [r4, #0]
 800245c:	689b      	ldr	r3, [r3, #8]
 800245e:	9301      	str	r3, [sp, #4]
 8002460:	9b01      	ldr	r3, [sp, #4]
 8002462:	2301      	movs	r3, #1
 8002464:	f884 3041 	strb.w	r3, [r4, #65]	; 0x41
 8002468:	6c63      	ldr	r3, [r4, #68]	; 0x44
 800246a:	f043 0304 	orr.w	r3, r3, #4
 800246e:	6463      	str	r3, [r4, #68]	; 0x44
 8002470:	4620      	mov	r0, r4
 8002472:	f7ff fe6f 	bl	8002154 <HAL_I2S_ErrorCallback>
 8002476:	b006      	add	sp, #24
 8002478:	bd10      	pop	{r4, pc}
 800247a:	f5a2 6280 	sub.w	r2, r2, #1024	; 0x400
 800247e:	e78e      	b.n	800239e <HAL_I2SEx_FullDuplex_IRQHandler+0x16>
 8002480:	4620      	mov	r0, r4
 8002482:	f7ff fee5 	bl	8002250 <I2SEx_TxISR_I2S>
 8002486:	e79e      	b.n	80023c6 <HAL_I2SEx_FullDuplex_IRQHandler+0x3e>
 8002488:	4620      	mov	r0, r4
 800248a:	f7ff feff 	bl	800228c <I2SEx_RxISR_I2SExt>
 800248e:	e7a2      	b.n	80023d6 <HAL_I2SEx_FullDuplex_IRQHandler+0x4e>
 8002490:	4a32      	ldr	r2, [pc, #200]	; (800255c <HAL_I2SEx_FullDuplex_IRQHandler+0x1d4>)
 8002492:	e7ae      	b.n	80023f2 <HAL_I2SEx_FullDuplex_IRQHandler+0x6a>
 8002494:	4a31      	ldr	r2, [pc, #196]	; (800255c <HAL_I2SEx_FullDuplex_IRQHandler+0x1d4>)
 8002496:	e7da      	b.n	800244e <HAL_I2SEx_FullDuplex_IRQHandler+0xc6>
 8002498:	9b04      	ldr	r3, [sp, #16]
 800249a:	f013 0f02 	tst.w	r3, #2
 800249e:	d003      	beq.n	80024a8 <HAL_I2SEx_FullDuplex_IRQHandler+0x120>
 80024a0:	9b02      	ldr	r3, [sp, #8]
 80024a2:	f013 0f80 	tst.w	r3, #128	; 0x80
 80024a6:	d14a      	bne.n	800253e <HAL_I2SEx_FullDuplex_IRQHandler+0x1b6>
 80024a8:	9b05      	ldr	r3, [sp, #20]
 80024aa:	f013 0f01 	tst.w	r3, #1
 80024ae:	d003      	beq.n	80024b8 <HAL_I2SEx_FullDuplex_IRQHandler+0x130>
 80024b0:	9b03      	ldr	r3, [sp, #12]
 80024b2:	f013 0f40 	tst.w	r3, #64	; 0x40
 80024b6:	d146      	bne.n	8002546 <HAL_I2SEx_FullDuplex_IRQHandler+0x1be>
 80024b8:	9b05      	ldr	r3, [sp, #20]
 80024ba:	f013 0f40 	tst.w	r3, #64	; 0x40
 80024be:	d01c      	beq.n	80024fa <HAL_I2SEx_FullDuplex_IRQHandler+0x172>
 80024c0:	9b03      	ldr	r3, [sp, #12]
 80024c2:	f013 0f20 	tst.w	r3, #32
 80024c6:	d018      	beq.n	80024fa <HAL_I2SEx_FullDuplex_IRQHandler+0x172>
 80024c8:	6822      	ldr	r2, [r4, #0]
 80024ca:	6853      	ldr	r3, [r2, #4]
 80024cc:	f023 0360 	bic.w	r3, r3, #96	; 0x60
 80024d0:	6053      	str	r3, [r2, #4]
 80024d2:	6822      	ldr	r2, [r4, #0]
 80024d4:	4b20      	ldr	r3, [pc, #128]	; (8002558 <HAL_I2SEx_FullDuplex_IRQHandler+0x1d0>)
 80024d6:	429a      	cmp	r2, r3
 80024d8:	d039      	beq.n	800254e <HAL_I2SEx_FullDuplex_IRQHandler+0x1c6>
 80024da:	f04f 2240 	mov.w	r2, #1073758208	; 0x40004000
 80024de:	6853      	ldr	r3, [r2, #4]
 80024e0:	f023 03a0 	bic.w	r3, r3, #160	; 0xa0
 80024e4:	6053      	str	r3, [r2, #4]
 80024e6:	2301      	movs	r3, #1
 80024e8:	f884 3041 	strb.w	r3, [r4, #65]	; 0x41
 80024ec:	6c63      	ldr	r3, [r4, #68]	; 0x44
 80024ee:	f043 0302 	orr.w	r3, r3, #2
 80024f2:	6463      	str	r3, [r4, #68]	; 0x44
 80024f4:	4620      	mov	r0, r4
 80024f6:	f7ff fe2d 	bl	8002154 <HAL_I2S_ErrorCallback>
 80024fa:	9b04      	ldr	r3, [sp, #16]
 80024fc:	f013 0f08 	tst.w	r3, #8
 8002500:	d0b9      	beq.n	8002476 <HAL_I2SEx_FullDuplex_IRQHandler+0xee>
 8002502:	9b02      	ldr	r3, [sp, #8]
 8002504:	f013 0f20 	tst.w	r3, #32
 8002508:	d0b5      	beq.n	8002476 <HAL_I2SEx_FullDuplex_IRQHandler+0xee>
 800250a:	6822      	ldr	r2, [r4, #0]
 800250c:	4b12      	ldr	r3, [pc, #72]	; (8002558 <HAL_I2SEx_FullDuplex_IRQHandler+0x1d0>)
 800250e:	429a      	cmp	r2, r3
 8002510:	d01f      	beq.n	8002552 <HAL_I2SEx_FullDuplex_IRQHandler+0x1ca>
 8002512:	f04f 2240 	mov.w	r2, #1073758208	; 0x40004000
 8002516:	6853      	ldr	r3, [r2, #4]
 8002518:	f023 03a0 	bic.w	r3, r3, #160	; 0xa0
 800251c:	6053      	str	r3, [r2, #4]
 800251e:	6822      	ldr	r2, [r4, #0]
 8002520:	6853      	ldr	r3, [r2, #4]
 8002522:	f023 0360 	bic.w	r3, r3, #96	; 0x60
 8002526:	6053      	str	r3, [r2, #4]
 8002528:	2301      	movs	r3, #1
 800252a:	f884 3041 	strb.w	r3, [r4, #65]	; 0x41
 800252e:	6c63      	ldr	r3, [r4, #68]	; 0x44
 8002530:	f043 0304 	orr.w	r3, r3, #4
 8002534:	6463      	str	r3, [r4, #68]	; 0x44
 8002536:	4620      	mov	r0, r4
 8002538:	f7ff fe0c 	bl	8002154 <HAL_I2S_ErrorCallback>
 800253c:	e79b      	b.n	8002476 <HAL_I2SEx_FullDuplex_IRQHandler+0xee>
 800253e:	4620      	mov	r0, r4
 8002540:	f7ff fed4 	bl	80022ec <I2SEx_TxISR_I2SExt>
 8002544:	e7b0      	b.n	80024a8 <HAL_I2SEx_FullDuplex_IRQHandler+0x120>
 8002546:	4620      	mov	r0, r4
 8002548:	f7ff ff00 	bl	800234c <I2SEx_RxISR_I2S>
 800254c:	e7b4      	b.n	80024b8 <HAL_I2SEx_FullDuplex_IRQHandler+0x130>
 800254e:	4a03      	ldr	r2, [pc, #12]	; (800255c <HAL_I2SEx_FullDuplex_IRQHandler+0x1d4>)
 8002550:	e7c5      	b.n	80024de <HAL_I2SEx_FullDuplex_IRQHandler+0x156>
 8002552:	4a02      	ldr	r2, [pc, #8]	; (800255c <HAL_I2SEx_FullDuplex_IRQHandler+0x1d4>)
 8002554:	e7df      	b.n	8002516 <HAL_I2SEx_FullDuplex_IRQHandler+0x18e>
 8002556:	bf00      	nop
 8002558:	40003800 	.word	0x40003800
 800255c:	40003400 	.word	0x40003400

08002560 <HAL_RCC_OscConfig>:
 8002560:	2800      	cmp	r0, #0
 8002562:	f000 81e4 	beq.w	800292e <HAL_RCC_OscConfig+0x3ce>
 8002566:	b570      	push	{r4, r5, r6, lr}
 8002568:	b082      	sub	sp, #8
 800256a:	4604      	mov	r4, r0
 800256c:	6803      	ldr	r3, [r0, #0]
 800256e:	f013 0f01 	tst.w	r3, #1
 8002572:	d03b      	beq.n	80025ec <HAL_RCC_OscConfig+0x8c>
 8002574:	4ba7      	ldr	r3, [pc, #668]	; (8002814 <HAL_RCC_OscConfig+0x2b4>)
 8002576:	689b      	ldr	r3, [r3, #8]
 8002578:	f003 030c 	and.w	r3, r3, #12
 800257c:	2b04      	cmp	r3, #4
 800257e:	d02c      	beq.n	80025da <HAL_RCC_OscConfig+0x7a>
 8002580:	4ba4      	ldr	r3, [pc, #656]	; (8002814 <HAL_RCC_OscConfig+0x2b4>)
 8002582:	689b      	ldr	r3, [r3, #8]
 8002584:	f003 030c 	and.w	r3, r3, #12
 8002588:	2b08      	cmp	r3, #8
 800258a:	d021      	beq.n	80025d0 <HAL_RCC_OscConfig+0x70>
 800258c:	6863      	ldr	r3, [r4, #4]
 800258e:	f5b3 3f80 	cmp.w	r3, #65536	; 0x10000
 8002592:	d04f      	beq.n	8002634 <HAL_RCC_OscConfig+0xd4>
 8002594:	f5b3 2fa0 	cmp.w	r3, #327680	; 0x50000
 8002598:	d052      	beq.n	8002640 <HAL_RCC_OscConfig+0xe0>
 800259a:	4b9e      	ldr	r3, [pc, #632]	; (8002814 <HAL_RCC_OscConfig+0x2b4>)
 800259c:	681a      	ldr	r2, [r3, #0]
 800259e:	f422 3280 	bic.w	r2, r2, #65536	; 0x10000
 80025a2:	601a      	str	r2, [r3, #0]
 80025a4:	681a      	ldr	r2, [r3, #0]
 80025a6:	f422 2280 	bic.w	r2, r2, #262144	; 0x40000
 80025aa:	601a      	str	r2, [r3, #0]
 80025ac:	6863      	ldr	r3, [r4, #4]
 80025ae:	2b00      	cmp	r3, #0
 80025b0:	d050      	beq.n	8002654 <HAL_RCC_OscConfig+0xf4>
 80025b2:	f7ff f8eb 	bl	800178c <HAL_GetTick>
 80025b6:	4605      	mov	r5, r0
 80025b8:	4b96      	ldr	r3, [pc, #600]	; (8002814 <HAL_RCC_OscConfig+0x2b4>)
 80025ba:	681b      	ldr	r3, [r3, #0]
 80025bc:	f413 3f00 	tst.w	r3, #131072	; 0x20000
 80025c0:	d114      	bne.n	80025ec <HAL_RCC_OscConfig+0x8c>
 80025c2:	f7ff f8e3 	bl	800178c <HAL_GetTick>
 80025c6:	1b40      	subs	r0, r0, r5
 80025c8:	2864      	cmp	r0, #100	; 0x64
 80025ca:	d9f5      	bls.n	80025b8 <HAL_RCC_OscConfig+0x58>
 80025cc:	2003      	movs	r0, #3
 80025ce:	e1b3      	b.n	8002938 <HAL_RCC_OscConfig+0x3d8>
 80025d0:	4b90      	ldr	r3, [pc, #576]	; (8002814 <HAL_RCC_OscConfig+0x2b4>)
 80025d2:	685b      	ldr	r3, [r3, #4]
 80025d4:	f413 0f80 	tst.w	r3, #4194304	; 0x400000
 80025d8:	d0d8      	beq.n	800258c <HAL_RCC_OscConfig+0x2c>
 80025da:	4b8e      	ldr	r3, [pc, #568]	; (8002814 <HAL_RCC_OscConfig+0x2b4>)
 80025dc:	681b      	ldr	r3, [r3, #0]
 80025de:	f413 3f00 	tst.w	r3, #131072	; 0x20000
 80025e2:	d003      	beq.n	80025ec <HAL_RCC_OscConfig+0x8c>
 80025e4:	6863      	ldr	r3, [r4, #4]
 80025e6:	2b00      	cmp	r3, #0
 80025e8:	f000 81a3 	beq.w	8002932 <HAL_RCC_OscConfig+0x3d2>
 80025ec:	6823      	ldr	r3, [r4, #0]
 80025ee:	f013 0f02 	tst.w	r3, #2
 80025f2:	d055      	beq.n	80026a0 <HAL_RCC_OscConfig+0x140>
 80025f4:	4b87      	ldr	r3, [pc, #540]	; (8002814 <HAL_RCC_OscConfig+0x2b4>)
 80025f6:	689b      	ldr	r3, [r3, #8]
 80025f8:	f013 0f0c 	tst.w	r3, #12
 80025fc:	d03e      	beq.n	800267c <HAL_RCC_OscConfig+0x11c>
 80025fe:	4b85      	ldr	r3, [pc, #532]	; (8002814 <HAL_RCC_OscConfig+0x2b4>)
 8002600:	689b      	ldr	r3, [r3, #8]
 8002602:	f003 030c 	and.w	r3, r3, #12
 8002606:	2b08      	cmp	r3, #8
 8002608:	d033      	beq.n	8002672 <HAL_RCC_OscConfig+0x112>
 800260a:	68e3      	ldr	r3, [r4, #12]
 800260c:	2b00      	cmp	r3, #0
 800260e:	d068      	beq.n	80026e2 <HAL_RCC_OscConfig+0x182>
 8002610:	4b81      	ldr	r3, [pc, #516]	; (8002818 <HAL_RCC_OscConfig+0x2b8>)
 8002612:	2201      	movs	r2, #1
 8002614:	601a      	str	r2, [r3, #0]
 8002616:	f7ff f8b9 	bl	800178c <HAL_GetTick>
 800261a:	4605      	mov	r5, r0
 800261c:	4b7d      	ldr	r3, [pc, #500]	; (8002814 <HAL_RCC_OscConfig+0x2b4>)
 800261e:	681b      	ldr	r3, [r3, #0]
 8002620:	f013 0f02 	tst.w	r3, #2
 8002624:	d154      	bne.n	80026d0 <HAL_RCC_OscConfig+0x170>
 8002626:	f7ff f8b1 	bl	800178c <HAL_GetTick>
 800262a:	1b40      	subs	r0, r0, r5
 800262c:	2802      	cmp	r0, #2
 800262e:	d9f5      	bls.n	800261c <HAL_RCC_OscConfig+0xbc>
 8002630:	2003      	movs	r0, #3
 8002632:	e181      	b.n	8002938 <HAL_RCC_OscConfig+0x3d8>
 8002634:	4a77      	ldr	r2, [pc, #476]	; (8002814 <HAL_RCC_OscConfig+0x2b4>)
 8002636:	6813      	ldr	r3, [r2, #0]
 8002638:	f443 3380 	orr.w	r3, r3, #65536	; 0x10000
 800263c:	6013      	str	r3, [r2, #0]
 800263e:	e7b5      	b.n	80025ac <HAL_RCC_OscConfig+0x4c>
 8002640:	4b74      	ldr	r3, [pc, #464]	; (8002814 <HAL_RCC_OscConfig+0x2b4>)
 8002642:	681a      	ldr	r2, [r3, #0]
 8002644:	f442 2280 	orr.w	r2, r2, #262144	; 0x40000
 8002648:	601a      	str	r2, [r3, #0]
 800264a:	681a      	ldr	r2, [r3, #0]
 800264c:	f442 3280 	orr.w	r2, r2, #65536	; 0x10000
 8002650:	601a      	str	r2, [r3, #0]
 8002652:	e7ab      	b.n	80025ac <HAL_RCC_OscConfig+0x4c>
 8002654:	f7ff f89a 	bl	800178c <HAL_GetTick>
 8002658:	4605      	mov	r5, r0
 800265a:	4b6e      	ldr	r3, [pc, #440]	; (8002814 <HAL_RCC_OscConfig+0x2b4>)
 800265c:	681b      	ldr	r3, [r3, #0]
 800265e:	f413 3f00 	tst.w	r3, #131072	; 0x20000
 8002662:	d0c3      	beq.n	80025ec <HAL_RCC_OscConfig+0x8c>
 8002664:	f7ff f892 	bl	800178c <HAL_GetTick>
 8002668:	1b40      	subs	r0, r0, r5
 800266a:	2864      	cmp	r0, #100	; 0x64
 800266c:	d9f5      	bls.n	800265a <HAL_RCC_OscConfig+0xfa>
 800266e:	2003      	movs	r0, #3
 8002670:	e162      	b.n	8002938 <HAL_RCC_OscConfig+0x3d8>
 8002672:	4b68      	ldr	r3, [pc, #416]	; (8002814 <HAL_RCC_OscConfig+0x2b4>)
 8002674:	685b      	ldr	r3, [r3, #4]
 8002676:	f413 0f80 	tst.w	r3, #4194304	; 0x400000
 800267a:	d1c6      	bne.n	800260a <HAL_RCC_OscConfig+0xaa>
 800267c:	4b65      	ldr	r3, [pc, #404]	; (8002814 <HAL_RCC_OscConfig+0x2b4>)
 800267e:	681b      	ldr	r3, [r3, #0]
 8002680:	f013 0f02 	tst.w	r3, #2
 8002684:	d004      	beq.n	8002690 <HAL_RCC_OscConfig+0x130>
 8002686:	68e3      	ldr	r3, [r4, #12]
 8002688:	2b01      	cmp	r3, #1
 800268a:	d001      	beq.n	8002690 <HAL_RCC_OscConfig+0x130>
 800268c:	2001      	movs	r0, #1
 800268e:	e153      	b.n	8002938 <HAL_RCC_OscConfig+0x3d8>
 8002690:	4a60      	ldr	r2, [pc, #384]	; (8002814 <HAL_RCC_OscConfig+0x2b4>)
 8002692:	6813      	ldr	r3, [r2, #0]
 8002694:	f023 03f8 	bic.w	r3, r3, #248	; 0xf8
 8002698:	6921      	ldr	r1, [r4, #16]
 800269a:	ea43 03c1 	orr.w	r3, r3, r1, lsl #3
 800269e:	6013      	str	r3, [r2, #0]
 80026a0:	6823      	ldr	r3, [r4, #0]
 80026a2:	f013 0f08 	tst.w	r3, #8
 80026a6:	d040      	beq.n	800272a <HAL_RCC_OscConfig+0x1ca>
 80026a8:	6963      	ldr	r3, [r4, #20]
 80026aa:	b363      	cbz	r3, 8002706 <HAL_RCC_OscConfig+0x1a6>
 80026ac:	4b5b      	ldr	r3, [pc, #364]	; (800281c <HAL_RCC_OscConfig+0x2bc>)
 80026ae:	2201      	movs	r2, #1
 80026b0:	601a      	str	r2, [r3, #0]
 80026b2:	f7ff f86b 	bl	800178c <HAL_GetTick>
 80026b6:	4605      	mov	r5, r0
 80026b8:	4b56      	ldr	r3, [pc, #344]	; (8002814 <HAL_RCC_OscConfig+0x2b4>)
 80026ba:	6f5b      	ldr	r3, [r3, #116]	; 0x74
 80026bc:	f013 0f02 	tst.w	r3, #2
 80026c0:	d133      	bne.n	800272a <HAL_RCC_OscConfig+0x1ca>
 80026c2:	f7ff f863 	bl	800178c <HAL_GetTick>
 80026c6:	1b40      	subs	r0, r0, r5
 80026c8:	2802      	cmp	r0, #2
 80026ca:	d9f5      	bls.n	80026b8 <HAL_RCC_OscConfig+0x158>
 80026cc:	2003      	movs	r0, #3
 80026ce:	e133      	b.n	8002938 <HAL_RCC_OscConfig+0x3d8>
 80026d0:	4a50      	ldr	r2, [pc, #320]	; (8002814 <HAL_RCC_OscConfig+0x2b4>)
 80026d2:	6813      	ldr	r3, [r2, #0]
 80026d4:	f023 03f8 	bic.w	r3, r3, #248	; 0xf8
 80026d8:	6921      	ldr	r1, [r4, #16]
 80026da:	ea43 03c1 	orr.w	r3, r3, r1, lsl #3
 80026de:	6013      	str	r3, [r2, #0]
 80026e0:	e7de      	b.n	80026a0 <HAL_RCC_OscConfig+0x140>
 80026e2:	4b4d      	ldr	r3, [pc, #308]	; (8002818 <HAL_RCC_OscConfig+0x2b8>)
 80026e4:	2200      	movs	r2, #0
 80026e6:	601a      	str	r2, [r3, #0]
 80026e8:	f7ff f850 	bl	800178c <HAL_GetTick>
 80026ec:	4605      	mov	r5, r0
 80026ee:	4b49      	ldr	r3, [pc, #292]	; (8002814 <HAL_RCC_OscConfig+0x2b4>)
 80026f0:	681b      	ldr	r3, [r3, #0]
 80026f2:	f013 0f02 	tst.w	r3, #2
 80026f6:	d0d3      	beq.n	80026a0 <HAL_RCC_OscConfig+0x140>
 80026f8:	f7ff f848 	bl	800178c <HAL_GetTick>
 80026fc:	1b40      	subs	r0, r0, r5
 80026fe:	2802      	cmp	r0, #2
 8002700:	d9f5      	bls.n	80026ee <HAL_RCC_OscConfig+0x18e>
 8002702:	2003      	movs	r0, #3
 8002704:	e118      	b.n	8002938 <HAL_RCC_OscConfig+0x3d8>
 8002706:	4b45      	ldr	r3, [pc, #276]	; (800281c <HAL_RCC_OscConfig+0x2bc>)
 8002708:	2200      	movs	r2, #0
 800270a:	601a      	str	r2, [r3, #0]
 800270c:	f7ff f83e 	bl	800178c <HAL_GetTick>
 8002710:	4605      	mov	r5, r0
 8002712:	4b40      	ldr	r3, [pc, #256]	; (8002814 <HAL_RCC_OscConfig+0x2b4>)
 8002714:	6f5b      	ldr	r3, [r3, #116]	; 0x74
 8002716:	f013 0f02 	tst.w	r3, #2
 800271a:	d006      	beq.n	800272a <HAL_RCC_OscConfig+0x1ca>
 800271c:	f7ff f836 	bl	800178c <HAL_GetTick>
 8002720:	1b40      	subs	r0, r0, r5
 8002722:	2802      	cmp	r0, #2
 8002724:	d9f5      	bls.n	8002712 <HAL_RCC_OscConfig+0x1b2>
 8002726:	2003      	movs	r0, #3
 8002728:	e106      	b.n	8002938 <HAL_RCC_OscConfig+0x3d8>
 800272a:	6823      	ldr	r3, [r4, #0]
 800272c:	f013 0f04 	tst.w	r3, #4
 8002730:	d079      	beq.n	8002826 <HAL_RCC_OscConfig+0x2c6>
 8002732:	4b38      	ldr	r3, [pc, #224]	; (8002814 <HAL_RCC_OscConfig+0x2b4>)
 8002734:	6c1b      	ldr	r3, [r3, #64]	; 0x40
 8002736:	f013 5f80 	tst.w	r3, #268435456	; 0x10000000
 800273a:	d133      	bne.n	80027a4 <HAL_RCC_OscConfig+0x244>
 800273c:	2300      	movs	r3, #0
 800273e:	9301      	str	r3, [sp, #4]
 8002740:	4b34      	ldr	r3, [pc, #208]	; (8002814 <HAL_RCC_OscConfig+0x2b4>)
 8002742:	6c1a      	ldr	r2, [r3, #64]	; 0x40
 8002744:	f042 5280 	orr.w	r2, r2, #268435456	; 0x10000000
 8002748:	641a      	str	r2, [r3, #64]	; 0x40
 800274a:	6c1b      	ldr	r3, [r3, #64]	; 0x40
 800274c:	f003 5380 	and.w	r3, r3, #268435456	; 0x10000000
 8002750:	9301      	str	r3, [sp, #4]
 8002752:	9b01      	ldr	r3, [sp, #4]
 8002754:	2501      	movs	r5, #1
 8002756:	4b32      	ldr	r3, [pc, #200]	; (8002820 <HAL_RCC_OscConfig+0x2c0>)
 8002758:	681b      	ldr	r3, [r3, #0]
 800275a:	f413 7f80 	tst.w	r3, #256	; 0x100
 800275e:	d023      	beq.n	80027a8 <HAL_RCC_OscConfig+0x248>
 8002760:	68a3      	ldr	r3, [r4, #8]
 8002762:	2b01      	cmp	r3, #1
 8002764:	d034      	beq.n	80027d0 <HAL_RCC_OscConfig+0x270>
 8002766:	2b05      	cmp	r3, #5
 8002768:	d038      	beq.n	80027dc <HAL_RCC_OscConfig+0x27c>
 800276a:	4b2a      	ldr	r3, [pc, #168]	; (8002814 <HAL_RCC_OscConfig+0x2b4>)
 800276c:	6f1a      	ldr	r2, [r3, #112]	; 0x70
 800276e:	f022 0201 	bic.w	r2, r2, #1
 8002772:	671a      	str	r2, [r3, #112]	; 0x70
 8002774:	6f1a      	ldr	r2, [r3, #112]	; 0x70
 8002776:	f022 0204 	bic.w	r2, r2, #4
 800277a:	671a      	str	r2, [r3, #112]	; 0x70
 800277c:	68a3      	ldr	r3, [r4, #8]
 800277e:	2b00      	cmp	r3, #0
 8002780:	d036      	beq.n	80027f0 <HAL_RCC_OscConfig+0x290>
 8002782:	f7ff f803 	bl	800178c <HAL_GetTick>
 8002786:	4606      	mov	r6, r0
 8002788:	4b22      	ldr	r3, [pc, #136]	; (8002814 <HAL_RCC_OscConfig+0x2b4>)
 800278a:	6f1b      	ldr	r3, [r3, #112]	; 0x70
 800278c:	f013 0f02 	tst.w	r3, #2
 8002790:	d148      	bne.n	8002824 <HAL_RCC_OscConfig+0x2c4>
 8002792:	f7fe fffb 	bl	800178c <HAL_GetTick>
 8002796:	1b80      	subs	r0, r0, r6
 8002798:	f241 3388 	movw	r3, #5000	; 0x1388
 800279c:	4298      	cmp	r0, r3
 800279e:	d9f3      	bls.n	8002788 <HAL_RCC_OscConfig+0x228>
 80027a0:	2003      	movs	r0, #3
 80027a2:	e0c9      	b.n	8002938 <HAL_RCC_OscConfig+0x3d8>
 80027a4:	2500      	movs	r5, #0
 80027a6:	e7d6      	b.n	8002756 <HAL_RCC_OscConfig+0x1f6>
 80027a8:	4a1d      	ldr	r2, [pc, #116]	; (8002820 <HAL_RCC_OscConfig+0x2c0>)
 80027aa:	6813      	ldr	r3, [r2, #0]
 80027ac:	f443 7380 	orr.w	r3, r3, #256	; 0x100
 80027b0:	6013      	str	r3, [r2, #0]
 80027b2:	f7fe ffeb 	bl	800178c <HAL_GetTick>
 80027b6:	4606      	mov	r6, r0
 80027b8:	4b19      	ldr	r3, [pc, #100]	; (8002820 <HAL_RCC_OscConfig+0x2c0>)
 80027ba:	681b      	ldr	r3, [r3, #0]
 80027bc:	f413 7f80 	tst.w	r3, #256	; 0x100
 80027c0:	d1ce      	bne.n	8002760 <HAL_RCC_OscConfig+0x200>
 80027c2:	f7fe ffe3 	bl	800178c <HAL_GetTick>
 80027c6:	1b80      	subs	r0, r0, r6
 80027c8:	2802      	cmp	r0, #2
 80027ca:	d9f5      	bls.n	80027b8 <HAL_RCC_OscConfig+0x258>
 80027cc:	2003      	movs	r0, #3
 80027ce:	e0b3      	b.n	8002938 <HAL_RCC_OscConfig+0x3d8>
 80027d0:	4a10      	ldr	r2, [pc, #64]	; (8002814 <HAL_RCC_OscConfig+0x2b4>)
 80027d2:	6f13      	ldr	r3, [r2, #112]	; 0x70
 80027d4:	f043 0301 	orr.w	r3, r3, #1
 80027d8:	6713      	str	r3, [r2, #112]	; 0x70
 80027da:	e7cf      	b.n	800277c <HAL_RCC_OscConfig+0x21c>
 80027dc:	4b0d      	ldr	r3, [pc, #52]	; (8002814 <HAL_RCC_OscConfig+0x2b4>)
 80027de:	6f1a      	ldr	r2, [r3, #112]	; 0x70
 80027e0:	f042 0204 	orr.w	r2, r2, #4
 80027e4:	671a      	str	r2, [r3, #112]	; 0x70
 80027e6:	6f1a      	ldr	r2, [r3, #112]	; 0x70
 80027e8:	f042 0201 	orr.w	r2, r2, #1
 80027ec:	671a      	str	r2, [r3, #112]	; 0x70
 80027ee:	e7c5      	b.n	800277c <HAL_RCC_OscConfig+0x21c>
 80027f0:	f7fe ffcc 	bl	800178c <HAL_GetTick>
 80027f4:	4606      	mov	r6, r0
 80027f6:	4b07      	ldr	r3, [pc, #28]	; (8002814 <HAL_RCC_OscConfig+0x2b4>)
 80027f8:	6f1b      	ldr	r3, [r3, #112]	; 0x70
 80027fa:	f013 0f02 	tst.w	r3, #2
 80027fe:	d011      	beq.n	8002824 <HAL_RCC_OscConfig+0x2c4>
 8002800:	f7fe ffc4 	bl	800178c <HAL_GetTick>
 8002804:	1b80      	subs	r0, r0, r6
 8002806:	f241 3388 	movw	r3, #5000	; 0x1388
 800280a:	4298      	cmp	r0, r3
 800280c:	d9f3      	bls.n	80027f6 <HAL_RCC_OscConfig+0x296>
 800280e:	2003      	movs	r0, #3
 8002810:	e092      	b.n	8002938 <HAL_RCC_OscConfig+0x3d8>
 8002812:	bf00      	nop
 8002814:	40023800 	.word	0x40023800
 8002818:	42470000 	.word	0x42470000
 800281c:	42470e80 	.word	0x42470e80
 8002820:	40007000 	.word	0x40007000
 8002824:	b9ed      	cbnz	r5, 8002862 <HAL_RCC_OscConfig+0x302>
 8002826:	69a3      	ldr	r3, [r4, #24]
 8002828:	2b00      	cmp	r3, #0
 800282a:	f000 8084 	beq.w	8002936 <HAL_RCC_OscConfig+0x3d6>
 800282e:	4a45      	ldr	r2, [pc, #276]	; (8002944 <HAL_RCC_OscConfig+0x3e4>)
 8002830:	6892      	ldr	r2, [r2, #8]
 8002832:	f002 020c 	and.w	r2, r2, #12
 8002836:	2a08      	cmp	r2, #8
 8002838:	d051      	beq.n	80028de <HAL_RCC_OscConfig+0x37e>
 800283a:	2b02      	cmp	r3, #2
 800283c:	d017      	beq.n	800286e <HAL_RCC_OscConfig+0x30e>
 800283e:	4b42      	ldr	r3, [pc, #264]	; (8002948 <HAL_RCC_OscConfig+0x3e8>)
 8002840:	2200      	movs	r2, #0
 8002842:	601a      	str	r2, [r3, #0]
 8002844:	f7fe ffa2 	bl	800178c <HAL_GetTick>
 8002848:	4604      	mov	r4, r0
 800284a:	4b3e      	ldr	r3, [pc, #248]	; (8002944 <HAL_RCC_OscConfig+0x3e4>)
 800284c:	681b      	ldr	r3, [r3, #0]
 800284e:	f013 7f00 	tst.w	r3, #33554432	; 0x2000000
 8002852:	d042      	beq.n	80028da <HAL_RCC_OscConfig+0x37a>
 8002854:	f7fe ff9a 	bl	800178c <HAL_GetTick>
 8002858:	1b00      	subs	r0, r0, r4
 800285a:	2802      	cmp	r0, #2
 800285c:	d9f5      	bls.n	800284a <HAL_RCC_OscConfig+0x2ea>
 800285e:	2003      	movs	r0, #3
 8002860:	e06a      	b.n	8002938 <HAL_RCC_OscConfig+0x3d8>
 8002862:	4a38      	ldr	r2, [pc, #224]	; (8002944 <HAL_RCC_OscConfig+0x3e4>)
 8002864:	6c13      	ldr	r3, [r2, #64]	; 0x40
 8002866:	f023 5380 	bic.w	r3, r3, #268435456	; 0x10000000
 800286a:	6413      	str	r3, [r2, #64]	; 0x40
 800286c:	e7db      	b.n	8002826 <HAL_RCC_OscConfig+0x2c6>
 800286e:	4b36      	ldr	r3, [pc, #216]	; (8002948 <HAL_RCC_OscConfig+0x3e8>)
 8002870:	2200      	movs	r2, #0
 8002872:	601a      	str	r2, [r3, #0]
 8002874:	f7fe ff8a 	bl	800178c <HAL_GetTick>
 8002878:	4605      	mov	r5, r0
 800287a:	4b32      	ldr	r3, [pc, #200]	; (8002944 <HAL_RCC_OscConfig+0x3e4>)
 800287c:	681b      	ldr	r3, [r3, #0]
 800287e:	f013 7f00 	tst.w	r3, #33554432	; 0x2000000
 8002882:	d006      	beq.n	8002892 <HAL_RCC_OscConfig+0x332>
 8002884:	f7fe ff82 	bl	800178c <HAL_GetTick>
 8002888:	1b40      	subs	r0, r0, r5
 800288a:	2802      	cmp	r0, #2
 800288c:	d9f5      	bls.n	800287a <HAL_RCC_OscConfig+0x31a>
 800288e:	2003      	movs	r0, #3
 8002890:	e052      	b.n	8002938 <HAL_RCC_OscConfig+0x3d8>
 8002892:	69e3      	ldr	r3, [r4, #28]
 8002894:	6a22      	ldr	r2, [r4, #32]
 8002896:	4313      	orrs	r3, r2
 8002898:	6a62      	ldr	r2, [r4, #36]	; 0x24
 800289a:	ea43 1382 	orr.w	r3, r3, r2, lsl #6
 800289e:	6aa2      	ldr	r2, [r4, #40]	; 0x28
 80028a0:	0852      	lsrs	r2, r2, #1
 80028a2:	3a01      	subs	r2, #1
 80028a4:	ea43 4302 	orr.w	r3, r3, r2, lsl #16
 80028a8:	6ae2      	ldr	r2, [r4, #44]	; 0x2c
 80028aa:	ea43 6302 	orr.w	r3, r3, r2, lsl #24
 80028ae:	4a25      	ldr	r2, [pc, #148]	; (8002944 <HAL_RCC_OscConfig+0x3e4>)
 80028b0:	6053      	str	r3, [r2, #4]
 80028b2:	4b25      	ldr	r3, [pc, #148]	; (8002948 <HAL_RCC_OscConfig+0x3e8>)
 80028b4:	2201      	movs	r2, #1
 80028b6:	601a      	str	r2, [r3, #0]
 80028b8:	f7fe ff68 	bl	800178c <HAL_GetTick>
 80028bc:	4604      	mov	r4, r0
 80028be:	4b21      	ldr	r3, [pc, #132]	; (8002944 <HAL_RCC_OscConfig+0x3e4>)
 80028c0:	681b      	ldr	r3, [r3, #0]
 80028c2:	f013 7f00 	tst.w	r3, #33554432	; 0x2000000
 80028c6:	d106      	bne.n	80028d6 <HAL_RCC_OscConfig+0x376>
 80028c8:	f7fe ff60 	bl	800178c <HAL_GetTick>
 80028cc:	1b00      	subs	r0, r0, r4
 80028ce:	2802      	cmp	r0, #2
 80028d0:	d9f5      	bls.n	80028be <HAL_RCC_OscConfig+0x35e>
 80028d2:	2003      	movs	r0, #3
 80028d4:	e030      	b.n	8002938 <HAL_RCC_OscConfig+0x3d8>
 80028d6:	2000      	movs	r0, #0
 80028d8:	e02e      	b.n	8002938 <HAL_RCC_OscConfig+0x3d8>
 80028da:	2000      	movs	r0, #0
 80028dc:	e02c      	b.n	8002938 <HAL_RCC_OscConfig+0x3d8>
 80028de:	2b01      	cmp	r3, #1
 80028e0:	d02c      	beq.n	800293c <HAL_RCC_OscConfig+0x3dc>
 80028e2:	4b18      	ldr	r3, [pc, #96]	; (8002944 <HAL_RCC_OscConfig+0x3e4>)
 80028e4:	685b      	ldr	r3, [r3, #4]
 80028e6:	f403 0180 	and.w	r1, r3, #4194304	; 0x400000
 80028ea:	69e2      	ldr	r2, [r4, #28]
 80028ec:	4291      	cmp	r1, r2
 80028ee:	d001      	beq.n	80028f4 <HAL_RCC_OscConfig+0x394>
 80028f0:	2001      	movs	r0, #1
 80028f2:	e021      	b.n	8002938 <HAL_RCC_OscConfig+0x3d8>
 80028f4:	f003 023f 	and.w	r2, r3, #63	; 0x3f
 80028f8:	6a21      	ldr	r1, [r4, #32]
 80028fa:	428a      	cmp	r2, r1
 80028fc:	d001      	beq.n	8002902 <HAL_RCC_OscConfig+0x3a2>
 80028fe:	2001      	movs	r0, #1
 8002900:	e01a      	b.n	8002938 <HAL_RCC_OscConfig+0x3d8>
 8002902:	6a61      	ldr	r1, [r4, #36]	; 0x24
 8002904:	f647 72c0 	movw	r2, #32704	; 0x7fc0
 8002908:	401a      	ands	r2, r3
 800290a:	428a      	cmp	r2, r1
 800290c:	d001      	beq.n	8002912 <HAL_RCC_OscConfig+0x3b2>
 800290e:	2001      	movs	r0, #1
 8002910:	e012      	b.n	8002938 <HAL_RCC_OscConfig+0x3d8>
 8002912:	f403 3240 	and.w	r2, r3, #196608	; 0x30000
 8002916:	6aa1      	ldr	r1, [r4, #40]	; 0x28
 8002918:	428a      	cmp	r2, r1
 800291a:	d001      	beq.n	8002920 <HAL_RCC_OscConfig+0x3c0>
 800291c:	2001      	movs	r0, #1
 800291e:	e00b      	b.n	8002938 <HAL_RCC_OscConfig+0x3d8>
 8002920:	f003 6370 	and.w	r3, r3, #251658240	; 0xf000000
 8002924:	6ae2      	ldr	r2, [r4, #44]	; 0x2c
 8002926:	4293      	cmp	r3, r2
 8002928:	d00a      	beq.n	8002940 <HAL_RCC_OscConfig+0x3e0>
 800292a:	2001      	movs	r0, #1
 800292c:	e004      	b.n	8002938 <HAL_RCC_OscConfig+0x3d8>
 800292e:	2001      	movs	r0, #1
 8002930:	4770      	bx	lr
 8002932:	2001      	movs	r0, #1
 8002934:	e000      	b.n	8002938 <HAL_RCC_OscConfig+0x3d8>
 8002936:	2000      	movs	r0, #0
 8002938:	b002      	add	sp, #8
 800293a:	bd70      	pop	{r4, r5, r6, pc}
 800293c:	2001      	movs	r0, #1
 800293e:	e7fb      	b.n	8002938 <HAL_RCC_OscConfig+0x3d8>
 8002940:	2000      	movs	r0, #0
 8002942:	e7f9      	b.n	8002938 <HAL_RCC_OscConfig+0x3d8>
 8002944:	40023800 	.word	0x40023800
 8002948:	42470060 	.word	0x42470060

0800294c <HAL_RCC_GetSysClockFreq>:
 800294c:	4b26      	ldr	r3, [pc, #152]	; (80029e8 <HAL_RCC_GetSysClockFreq+0x9c>)
 800294e:	689b      	ldr	r3, [r3, #8]
 8002950:	f003 030c 	and.w	r3, r3, #12
 8002954:	2b04      	cmp	r3, #4
 8002956:	d044      	beq.n	80029e2 <HAL_RCC_GetSysClockFreq+0x96>
 8002958:	2b08      	cmp	r3, #8
 800295a:	d001      	beq.n	8002960 <HAL_RCC_GetSysClockFreq+0x14>
 800295c:	4823      	ldr	r0, [pc, #140]	; (80029ec <HAL_RCC_GetSysClockFreq+0xa0>)
 800295e:	4770      	bx	lr
 8002960:	e92d 4bf0 	stmdb	sp!, {r4, r5, r6, r7, r8, r9, fp, lr}
 8002964:	4b20      	ldr	r3, [pc, #128]	; (80029e8 <HAL_RCC_GetSysClockFreq+0x9c>)
 8002966:	685a      	ldr	r2, [r3, #4]
 8002968:	f002 023f 	and.w	r2, r2, #63	; 0x3f
 800296c:	685b      	ldr	r3, [r3, #4]
 800296e:	f413 0f80 	tst.w	r3, #4194304	; 0x400000
 8002972:	d013      	beq.n	800299c <HAL_RCC_GetSysClockFreq+0x50>
 8002974:	4b1c      	ldr	r3, [pc, #112]	; (80029e8 <HAL_RCC_GetSysClockFreq+0x9c>)
 8002976:	6859      	ldr	r1, [r3, #4]
 8002978:	f3c1 1188 	ubfx	r1, r1, #6, #9
 800297c:	2300      	movs	r3, #0
 800297e:	481c      	ldr	r0, [pc, #112]	; (80029f0 <HAL_RCC_GetSysClockFreq+0xa4>)
 8002980:	fba1 0100 	umull	r0, r1, r1, r0
 8002984:	f7fe f846 	bl	8000a14 <__aeabi_uldivmod>
 8002988:	4b17      	ldr	r3, [pc, #92]	; (80029e8 <HAL_RCC_GetSysClockFreq+0x9c>)
 800298a:	685b      	ldr	r3, [r3, #4]
 800298c:	f3c3 4301 	ubfx	r3, r3, #16, #2
 8002990:	3301      	adds	r3, #1
 8002992:	005b      	lsls	r3, r3, #1
 8002994:	fbb0 f0f3 	udiv	r0, r0, r3
 8002998:	e8bd 8bf0 	ldmia.w	sp!, {r4, r5, r6, r7, r8, r9, fp, pc}
 800299c:	4b12      	ldr	r3, [pc, #72]	; (80029e8 <HAL_RCC_GetSysClockFreq+0x9c>)
 800299e:	685b      	ldr	r3, [r3, #4]
 80029a0:	f3c3 1388 	ubfx	r3, r3, #6, #9
 80029a4:	461e      	mov	r6, r3
 80029a6:	2700      	movs	r7, #0
 80029a8:	015c      	lsls	r4, r3, #5
 80029aa:	2500      	movs	r5, #0
 80029ac:	1ae4      	subs	r4, r4, r3
 80029ae:	eb65 0507 	sbc.w	r5, r5, r7
 80029b2:	01a9      	lsls	r1, r5, #6
 80029b4:	ea41 6194 	orr.w	r1, r1, r4, lsr #26
 80029b8:	01a0      	lsls	r0, r4, #6
 80029ba:	1b00      	subs	r0, r0, r4
 80029bc:	eb61 0105 	sbc.w	r1, r1, r5
 80029c0:	00cb      	lsls	r3, r1, #3
 80029c2:	ea43 7350 	orr.w	r3, r3, r0, lsr #29
 80029c6:	00c4      	lsls	r4, r0, #3
 80029c8:	19a0      	adds	r0, r4, r6
 80029ca:	eb43 0107 	adc.w	r1, r3, r7
 80029ce:	028b      	lsls	r3, r1, #10
 80029d0:	ea43 5390 	orr.w	r3, r3, r0, lsr #22
 80029d4:	0284      	lsls	r4, r0, #10
 80029d6:	4620      	mov	r0, r4
 80029d8:	4619      	mov	r1, r3
 80029da:	2300      	movs	r3, #0
 80029dc:	f7fe f81a 	bl	8000a14 <__aeabi_uldivmod>
 80029e0:	e7d2      	b.n	8002988 <HAL_RCC_GetSysClockFreq+0x3c>
 80029e2:	4803      	ldr	r0, [pc, #12]	; (80029f0 <HAL_RCC_GetSysClockFreq+0xa4>)
 80029e4:	4770      	bx	lr
 80029e6:	bf00      	nop
 80029e8:	40023800 	.word	0x40023800
 80029ec:	00f42400 	.word	0x00f42400
 80029f0:	017d7840 	.word	0x017d7840

080029f4 <HAL_RCC_ClockConfig>:
 80029f4:	2800      	cmp	r0, #0
 80029f6:	f000 809e 	beq.w	8002b36 <HAL_RCC_ClockConfig+0x142>
 80029fa:	b570      	push	{r4, r5, r6, lr}
 80029fc:	4604      	mov	r4, r0
 80029fe:	4b50      	ldr	r3, [pc, #320]	; (8002b40 <HAL_RCC_ClockConfig+0x14c>)
 8002a00:	681b      	ldr	r3, [r3, #0]
 8002a02:	f003 030f 	and.w	r3, r3, #15
 8002a06:	428b      	cmp	r3, r1
 8002a08:	d209      	bcs.n	8002a1e <HAL_RCC_ClockConfig+0x2a>
 8002a0a:	b2cb      	uxtb	r3, r1
 8002a0c:	4a4c      	ldr	r2, [pc, #304]	; (8002b40 <HAL_RCC_ClockConfig+0x14c>)
 8002a0e:	7013      	strb	r3, [r2, #0]
 8002a10:	6813      	ldr	r3, [r2, #0]
 8002a12:	f003 030f 	and.w	r3, r3, #15
 8002a16:	428b      	cmp	r3, r1
 8002a18:	d001      	beq.n	8002a1e <HAL_RCC_ClockConfig+0x2a>
 8002a1a:	2001      	movs	r0, #1
 8002a1c:	bd70      	pop	{r4, r5, r6, pc}
 8002a1e:	6823      	ldr	r3, [r4, #0]
 8002a20:	f013 0f02 	tst.w	r3, #2
 8002a24:	d017      	beq.n	8002a56 <HAL_RCC_ClockConfig+0x62>
 8002a26:	f013 0f04 	tst.w	r3, #4
 8002a2a:	d004      	beq.n	8002a36 <HAL_RCC_ClockConfig+0x42>
 8002a2c:	4a45      	ldr	r2, [pc, #276]	; (8002b44 <HAL_RCC_ClockConfig+0x150>)
 8002a2e:	6893      	ldr	r3, [r2, #8]
 8002a30:	f443 53e0 	orr.w	r3, r3, #7168	; 0x1c00
 8002a34:	6093      	str	r3, [r2, #8]
 8002a36:	6823      	ldr	r3, [r4, #0]
 8002a38:	f013 0f08 	tst.w	r3, #8
 8002a3c:	d004      	beq.n	8002a48 <HAL_RCC_ClockConfig+0x54>
 8002a3e:	4a41      	ldr	r2, [pc, #260]	; (8002b44 <HAL_RCC_ClockConfig+0x150>)
 8002a40:	6893      	ldr	r3, [r2, #8]
 8002a42:	f443 4360 	orr.w	r3, r3, #57344	; 0xe000
 8002a46:	6093      	str	r3, [r2, #8]
 8002a48:	4a3e      	ldr	r2, [pc, #248]	; (8002b44 <HAL_RCC_ClockConfig+0x150>)
 8002a4a:	6893      	ldr	r3, [r2, #8]
 8002a4c:	f023 03f0 	bic.w	r3, r3, #240	; 0xf0
 8002a50:	68a0      	ldr	r0, [r4, #8]
 8002a52:	4303      	orrs	r3, r0
 8002a54:	6093      	str	r3, [r2, #8]
 8002a56:	460d      	mov	r5, r1
 8002a58:	6823      	ldr	r3, [r4, #0]
 8002a5a:	f013 0f01 	tst.w	r3, #1
 8002a5e:	d032      	beq.n	8002ac6 <HAL_RCC_ClockConfig+0xd2>
 8002a60:	6863      	ldr	r3, [r4, #4]
 8002a62:	2b01      	cmp	r3, #1
 8002a64:	d021      	beq.n	8002aaa <HAL_RCC_ClockConfig+0xb6>
 8002a66:	1e9a      	subs	r2, r3, #2
 8002a68:	2a01      	cmp	r2, #1
 8002a6a:	d925      	bls.n	8002ab8 <HAL_RCC_ClockConfig+0xc4>
 8002a6c:	4a35      	ldr	r2, [pc, #212]	; (8002b44 <HAL_RCC_ClockConfig+0x150>)
 8002a6e:	6812      	ldr	r2, [r2, #0]
 8002a70:	f012 0f02 	tst.w	r2, #2
 8002a74:	d061      	beq.n	8002b3a <HAL_RCC_ClockConfig+0x146>
 8002a76:	4933      	ldr	r1, [pc, #204]	; (8002b44 <HAL_RCC_ClockConfig+0x150>)
 8002a78:	688a      	ldr	r2, [r1, #8]
 8002a7a:	f022 0203 	bic.w	r2, r2, #3
 8002a7e:	4313      	orrs	r3, r2
 8002a80:	608b      	str	r3, [r1, #8]
 8002a82:	f7fe fe83 	bl	800178c <HAL_GetTick>
 8002a86:	4606      	mov	r6, r0
 8002a88:	4b2e      	ldr	r3, [pc, #184]	; (8002b44 <HAL_RCC_ClockConfig+0x150>)
 8002a8a:	689b      	ldr	r3, [r3, #8]
 8002a8c:	f003 030c 	and.w	r3, r3, #12
 8002a90:	6862      	ldr	r2, [r4, #4]
 8002a92:	ebb3 0f82 	cmp.w	r3, r2, lsl #2
 8002a96:	d016      	beq.n	8002ac6 <HAL_RCC_ClockConfig+0xd2>
 8002a98:	f7fe fe78 	bl	800178c <HAL_GetTick>
 8002a9c:	1b80      	subs	r0, r0, r6
 8002a9e:	f241 3388 	movw	r3, #5000	; 0x1388
 8002aa2:	4298      	cmp	r0, r3
 8002aa4:	d9f0      	bls.n	8002a88 <HAL_RCC_ClockConfig+0x94>
 8002aa6:	2003      	movs	r0, #3
 8002aa8:	e7b8      	b.n	8002a1c <HAL_RCC_ClockConfig+0x28>
 8002aaa:	4a26      	ldr	r2, [pc, #152]	; (8002b44 <HAL_RCC_ClockConfig+0x150>)
 8002aac:	6812      	ldr	r2, [r2, #0]
 8002aae:	f412 3f00 	tst.w	r2, #131072	; 0x20000
 8002ab2:	d1e0      	bne.n	8002a76 <HAL_RCC_ClockConfig+0x82>
 8002ab4:	2001      	movs	r0, #1
 8002ab6:	e7b1      	b.n	8002a1c <HAL_RCC_ClockConfig+0x28>
 8002ab8:	4a22      	ldr	r2, [pc, #136]	; (8002b44 <HAL_RCC_ClockConfig+0x150>)
 8002aba:	6812      	ldr	r2, [r2, #0]
 8002abc:	f012 7f00 	tst.w	r2, #33554432	; 0x2000000
 8002ac0:	d1d9      	bne.n	8002a76 <HAL_RCC_ClockConfig+0x82>
 8002ac2:	2001      	movs	r0, #1
 8002ac4:	e7aa      	b.n	8002a1c <HAL_RCC_ClockConfig+0x28>
 8002ac6:	4b1e      	ldr	r3, [pc, #120]	; (8002b40 <HAL_RCC_ClockConfig+0x14c>)
 8002ac8:	681b      	ldr	r3, [r3, #0]
 8002aca:	f003 030f 	and.w	r3, r3, #15
 8002ace:	42ab      	cmp	r3, r5
 8002ad0:	d909      	bls.n	8002ae6 <HAL_RCC_ClockConfig+0xf2>
 8002ad2:	b2ea      	uxtb	r2, r5
 8002ad4:	4b1a      	ldr	r3, [pc, #104]	; (8002b40 <HAL_RCC_ClockConfig+0x14c>)
 8002ad6:	701a      	strb	r2, [r3, #0]
 8002ad8:	681b      	ldr	r3, [r3, #0]
 8002ada:	f003 030f 	and.w	r3, r3, #15
 8002ade:	42ab      	cmp	r3, r5
 8002ae0:	d001      	beq.n	8002ae6 <HAL_RCC_ClockConfig+0xf2>
 8002ae2:	2001      	movs	r0, #1
 8002ae4:	e79a      	b.n	8002a1c <HAL_RCC_ClockConfig+0x28>
 8002ae6:	6823      	ldr	r3, [r4, #0]
 8002ae8:	f013 0f04 	tst.w	r3, #4
 8002aec:	d006      	beq.n	8002afc <HAL_RCC_ClockConfig+0x108>
 8002aee:	4a15      	ldr	r2, [pc, #84]	; (8002b44 <HAL_RCC_ClockConfig+0x150>)
 8002af0:	6893      	ldr	r3, [r2, #8]
 8002af2:	f423 53e0 	bic.w	r3, r3, #7168	; 0x1c00
 8002af6:	68e1      	ldr	r1, [r4, #12]
 8002af8:	430b      	orrs	r3, r1
 8002afa:	6093      	str	r3, [r2, #8]
 8002afc:	6823      	ldr	r3, [r4, #0]
 8002afe:	f013 0f08 	tst.w	r3, #8
 8002b02:	d007      	beq.n	8002b14 <HAL_RCC_ClockConfig+0x120>
 8002b04:	4a0f      	ldr	r2, [pc, #60]	; (8002b44 <HAL_RCC_ClockConfig+0x150>)
 8002b06:	6893      	ldr	r3, [r2, #8]
 8002b08:	f423 4360 	bic.w	r3, r3, #57344	; 0xe000
 8002b0c:	6921      	ldr	r1, [r4, #16]
 8002b0e:	ea43 03c1 	orr.w	r3, r3, r1, lsl #3
 8002b12:	6093      	str	r3, [r2, #8]
 8002b14:	f7ff ff1a 	bl	800294c <HAL_RCC_GetSysClockFreq>
 8002b18:	4b0a      	ldr	r3, [pc, #40]	; (8002b44 <HAL_RCC_ClockConfig+0x150>)
 8002b1a:	689b      	ldr	r3, [r3, #8]
 8002b1c:	f3c3 1303 	ubfx	r3, r3, #4, #4
 8002b20:	4a09      	ldr	r2, [pc, #36]	; (8002b48 <HAL_RCC_ClockConfig+0x154>)
 8002b22:	5cd3      	ldrb	r3, [r2, r3]
 8002b24:	40d8      	lsrs	r0, r3
 8002b26:	4b09      	ldr	r3, [pc, #36]	; (8002b4c <HAL_RCC_ClockConfig+0x158>)
 8002b28:	6018      	str	r0, [r3, #0]
 8002b2a:	4b09      	ldr	r3, [pc, #36]	; (8002b50 <HAL_RCC_ClockConfig+0x15c>)
 8002b2c:	6818      	ldr	r0, [r3, #0]
 8002b2e:	f7fe fde3 	bl	80016f8 <HAL_InitTick>
 8002b32:	2000      	movs	r0, #0
 8002b34:	e772      	b.n	8002a1c <HAL_RCC_ClockConfig+0x28>
 8002b36:	2001      	movs	r0, #1
 8002b38:	4770      	bx	lr
 8002b3a:	2001      	movs	r0, #1
 8002b3c:	e76e      	b.n	8002a1c <HAL_RCC_ClockConfig+0x28>
 8002b3e:	bf00      	nop
 8002b40:	40023c00 	.word	0x40023c00
 8002b44:	40023800 	.word	0x40023800
 8002b48:	08003dac 	.word	0x08003dac
 8002b4c:	20000008 	.word	0x20000008
 8002b50:	20000010 	.word	0x20000010

08002b54 <HAL_RCC_GetHCLKFreq>:
 8002b54:	4b01      	ldr	r3, [pc, #4]	; (8002b5c <HAL_RCC_GetHCLKFreq+0x8>)
 8002b56:	6818      	ldr	r0, [r3, #0]
 8002b58:	4770      	bx	lr
 8002b5a:	bf00      	nop
 8002b5c:	20000008 	.word	0x20000008

08002b60 <HAL_RCC_GetPCLK1Freq>:
 8002b60:	b508      	push	{r3, lr}
 8002b62:	f7ff fff7 	bl	8002b54 <HAL_RCC_GetHCLKFreq>
 8002b66:	4b04      	ldr	r3, [pc, #16]	; (8002b78 <HAL_RCC_GetPCLK1Freq+0x18>)
 8002b68:	689b      	ldr	r3, [r3, #8]
 8002b6a:	f3c3 2382 	ubfx	r3, r3, #10, #3
 8002b6e:	4a03      	ldr	r2, [pc, #12]	; (8002b7c <HAL_RCC_GetPCLK1Freq+0x1c>)
 8002b70:	5cd3      	ldrb	r3, [r2, r3]
 8002b72:	40d8      	lsrs	r0, r3
 8002b74:	bd08      	pop	{r3, pc}
 8002b76:	bf00      	nop
 8002b78:	40023800 	.word	0x40023800
 8002b7c:	08003dbc 	.word	0x08003dbc

08002b80 <HAL_RCC_GetPCLK2Freq>:
 8002b80:	b508      	push	{r3, lr}
 8002b82:	f7ff ffe7 	bl	8002b54 <HAL_RCC_GetHCLKFreq>
 8002b86:	4b04      	ldr	r3, [pc, #16]	; (8002b98 <HAL_RCC_GetPCLK2Freq+0x18>)
 8002b88:	689b      	ldr	r3, [r3, #8]
 8002b8a:	f3c3 3342 	ubfx	r3, r3, #13, #3
 8002b8e:	4a03      	ldr	r2, [pc, #12]	; (8002b9c <HAL_RCC_GetPCLK2Freq+0x1c>)
 8002b90:	5cd3      	ldrb	r3, [r2, r3]
 8002b92:	40d8      	lsrs	r0, r3
 8002b94:	bd08      	pop	{r3, pc}
 8002b96:	bf00      	nop
 8002b98:	40023800 	.word	0x40023800
 8002b9c:	08003dbc 	.word	0x08003dbc

08002ba0 <HAL_RCCEx_PeriphCLKConfig>:
 8002ba0:	b530      	push	{r4, r5, lr}
 8002ba2:	b083      	sub	sp, #12
 8002ba4:	4604      	mov	r4, r0
 8002ba6:	6803      	ldr	r3, [r0, #0]
 8002ba8:	f013 0f05 	tst.w	r3, #5
 8002bac:	d10e      	bne.n	8002bcc <HAL_RCCEx_PeriphCLKConfig+0x2c>
 8002bae:	6823      	ldr	r3, [r4, #0]
 8002bb0:	f013 0f02 	tst.w	r3, #2
 8002bb4:	d138      	bne.n	8002c28 <HAL_RCCEx_PeriphCLKConfig+0x88>
 8002bb6:	6823      	ldr	r3, [r4, #0]
 8002bb8:	f013 0f08 	tst.w	r3, #8
 8002bbc:	f000 809b 	beq.w	8002cf6 <HAL_RCCEx_PeriphCLKConfig+0x156>
 8002bc0:	7d22      	ldrb	r2, [r4, #20]
 8002bc2:	4b4e      	ldr	r3, [pc, #312]	; (8002cfc <HAL_RCCEx_PeriphCLKConfig+0x15c>)
 8002bc4:	601a      	str	r2, [r3, #0]
 8002bc6:	2000      	movs	r0, #0
 8002bc8:	b003      	add	sp, #12
 8002bca:	bd30      	pop	{r4, r5, pc}
 8002bcc:	4b4c      	ldr	r3, [pc, #304]	; (8002d00 <HAL_RCCEx_PeriphCLKConfig+0x160>)
 8002bce:	2200      	movs	r2, #0
 8002bd0:	601a      	str	r2, [r3, #0]
 8002bd2:	f7fe fddb 	bl	800178c <HAL_GetTick>
 8002bd6:	4605      	mov	r5, r0
 8002bd8:	4b4a      	ldr	r3, [pc, #296]	; (8002d04 <HAL_RCCEx_PeriphCLKConfig+0x164>)
 8002bda:	681b      	ldr	r3, [r3, #0]
 8002bdc:	f013 6f00 	tst.w	r3, #134217728	; 0x8000000
 8002be0:	d006      	beq.n	8002bf0 <HAL_RCCEx_PeriphCLKConfig+0x50>
 8002be2:	f7fe fdd3 	bl	800178c <HAL_GetTick>
 8002be6:	1b40      	subs	r0, r0, r5
 8002be8:	2802      	cmp	r0, #2
 8002bea:	d9f5      	bls.n	8002bd8 <HAL_RCCEx_PeriphCLKConfig+0x38>
 8002bec:	2003      	movs	r0, #3
 8002bee:	e7eb      	b.n	8002bc8 <HAL_RCCEx_PeriphCLKConfig+0x28>
 8002bf0:	6863      	ldr	r3, [r4, #4]
 8002bf2:	68a2      	ldr	r2, [r4, #8]
 8002bf4:	ea43 1382 	orr.w	r3, r3, r2, lsl #6
 8002bf8:	68e2      	ldr	r2, [r4, #12]
 8002bfa:	ea43 7302 	orr.w	r3, r3, r2, lsl #28
 8002bfe:	4a41      	ldr	r2, [pc, #260]	; (8002d04 <HAL_RCCEx_PeriphCLKConfig+0x164>)
 8002c00:	f8c2 3084 	str.w	r3, [r2, #132]	; 0x84
 8002c04:	4b3e      	ldr	r3, [pc, #248]	; (8002d00 <HAL_RCCEx_PeriphCLKConfig+0x160>)
 8002c06:	2201      	movs	r2, #1
 8002c08:	601a      	str	r2, [r3, #0]
 8002c0a:	f7fe fdbf 	bl	800178c <HAL_GetTick>
 8002c0e:	4605      	mov	r5, r0
 8002c10:	4b3c      	ldr	r3, [pc, #240]	; (8002d04 <HAL_RCCEx_PeriphCLKConfig+0x164>)
 8002c12:	681b      	ldr	r3, [r3, #0]
 8002c14:	f013 6f00 	tst.w	r3, #134217728	; 0x8000000
 8002c18:	d1c9      	bne.n	8002bae <HAL_RCCEx_PeriphCLKConfig+0xe>
 8002c1a:	f7fe fdb7 	bl	800178c <HAL_GetTick>
 8002c1e:	1b40      	subs	r0, r0, r5
 8002c20:	2802      	cmp	r0, #2
 8002c22:	d9f5      	bls.n	8002c10 <HAL_RCCEx_PeriphCLKConfig+0x70>
 8002c24:	2003      	movs	r0, #3
 8002c26:	e7cf      	b.n	8002bc8 <HAL_RCCEx_PeriphCLKConfig+0x28>
 8002c28:	2300      	movs	r3, #0
 8002c2a:	9301      	str	r3, [sp, #4]
 8002c2c:	4b35      	ldr	r3, [pc, #212]	; (8002d04 <HAL_RCCEx_PeriphCLKConfig+0x164>)
 8002c2e:	6c1a      	ldr	r2, [r3, #64]	; 0x40
 8002c30:	f042 5280 	orr.w	r2, r2, #268435456	; 0x10000000
 8002c34:	641a      	str	r2, [r3, #64]	; 0x40
 8002c36:	6c1b      	ldr	r3, [r3, #64]	; 0x40
 8002c38:	f003 5380 	and.w	r3, r3, #268435456	; 0x10000000
 8002c3c:	9301      	str	r3, [sp, #4]
 8002c3e:	9b01      	ldr	r3, [sp, #4]
 8002c40:	4a31      	ldr	r2, [pc, #196]	; (8002d08 <HAL_RCCEx_PeriphCLKConfig+0x168>)
 8002c42:	6813      	ldr	r3, [r2, #0]
 8002c44:	f443 7380 	orr.w	r3, r3, #256	; 0x100
 8002c48:	6013      	str	r3, [r2, #0]
 8002c4a:	f7fe fd9f 	bl	800178c <HAL_GetTick>
 8002c4e:	4605      	mov	r5, r0
 8002c50:	4b2d      	ldr	r3, [pc, #180]	; (8002d08 <HAL_RCCEx_PeriphCLKConfig+0x168>)
 8002c52:	681b      	ldr	r3, [r3, #0]
 8002c54:	f413 7f80 	tst.w	r3, #256	; 0x100
 8002c58:	d106      	bne.n	8002c68 <HAL_RCCEx_PeriphCLKConfig+0xc8>
 8002c5a:	f7fe fd97 	bl	800178c <HAL_GetTick>
 8002c5e:	1b40      	subs	r0, r0, r5
 8002c60:	2802      	cmp	r0, #2
 8002c62:	d9f5      	bls.n	8002c50 <HAL_RCCEx_PeriphCLKConfig+0xb0>
 8002c64:	2003      	movs	r0, #3
 8002c66:	e7af      	b.n	8002bc8 <HAL_RCCEx_PeriphCLKConfig+0x28>
 8002c68:	4b26      	ldr	r3, [pc, #152]	; (8002d04 <HAL_RCCEx_PeriphCLKConfig+0x164>)
 8002c6a:	6f1b      	ldr	r3, [r3, #112]	; 0x70
 8002c6c:	f413 7340 	ands.w	r3, r3, #768	; 0x300
 8002c70:	d012      	beq.n	8002c98 <HAL_RCCEx_PeriphCLKConfig+0xf8>
 8002c72:	6922      	ldr	r2, [r4, #16]
 8002c74:	f402 7240 	and.w	r2, r2, #768	; 0x300
 8002c78:	429a      	cmp	r2, r3
 8002c7a:	d00d      	beq.n	8002c98 <HAL_RCCEx_PeriphCLKConfig+0xf8>
 8002c7c:	4b21      	ldr	r3, [pc, #132]	; (8002d04 <HAL_RCCEx_PeriphCLKConfig+0x164>)
 8002c7e:	6f1a      	ldr	r2, [r3, #112]	; 0x70
 8002c80:	f422 7240 	bic.w	r2, r2, #768	; 0x300
 8002c84:	4921      	ldr	r1, [pc, #132]	; (8002d0c <HAL_RCCEx_PeriphCLKConfig+0x16c>)
 8002c86:	2001      	movs	r0, #1
 8002c88:	6008      	str	r0, [r1, #0]
 8002c8a:	2000      	movs	r0, #0
 8002c8c:	6008      	str	r0, [r1, #0]
 8002c8e:	671a      	str	r2, [r3, #112]	; 0x70
 8002c90:	6f1b      	ldr	r3, [r3, #112]	; 0x70
 8002c92:	f013 0f01 	tst.w	r3, #1
 8002c96:	d112      	bne.n	8002cbe <HAL_RCCEx_PeriphCLKConfig+0x11e>
 8002c98:	6923      	ldr	r3, [r4, #16]
 8002c9a:	f403 7240 	and.w	r2, r3, #768	; 0x300
 8002c9e:	f5b2 7f40 	cmp.w	r2, #768	; 0x300
 8002ca2:	d01d      	beq.n	8002ce0 <HAL_RCCEx_PeriphCLKConfig+0x140>
 8002ca4:	4a17      	ldr	r2, [pc, #92]	; (8002d04 <HAL_RCCEx_PeriphCLKConfig+0x164>)
 8002ca6:	6893      	ldr	r3, [r2, #8]
 8002ca8:	f423 13f8 	bic.w	r3, r3, #2031616	; 0x1f0000
 8002cac:	6093      	str	r3, [r2, #8]
 8002cae:	4915      	ldr	r1, [pc, #84]	; (8002d04 <HAL_RCCEx_PeriphCLKConfig+0x164>)
 8002cb0:	6f0b      	ldr	r3, [r1, #112]	; 0x70
 8002cb2:	6922      	ldr	r2, [r4, #16]
 8002cb4:	f3c2 020b 	ubfx	r2, r2, #0, #12
 8002cb8:	4313      	orrs	r3, r2
 8002cba:	670b      	str	r3, [r1, #112]	; 0x70
 8002cbc:	e77b      	b.n	8002bb6 <HAL_RCCEx_PeriphCLKConfig+0x16>
 8002cbe:	f7fe fd65 	bl	800178c <HAL_GetTick>
 8002cc2:	4605      	mov	r5, r0
 8002cc4:	4b0f      	ldr	r3, [pc, #60]	; (8002d04 <HAL_RCCEx_PeriphCLKConfig+0x164>)
 8002cc6:	6f1b      	ldr	r3, [r3, #112]	; 0x70
 8002cc8:	f013 0f02 	tst.w	r3, #2
 8002ccc:	d1e4      	bne.n	8002c98 <HAL_RCCEx_PeriphCLKConfig+0xf8>
 8002cce:	f7fe fd5d 	bl	800178c <HAL_GetTick>
 8002cd2:	1b40      	subs	r0, r0, r5
 8002cd4:	f241 3388 	movw	r3, #5000	; 0x1388
 8002cd8:	4298      	cmp	r0, r3
 8002cda:	d9f3      	bls.n	8002cc4 <HAL_RCCEx_PeriphCLKConfig+0x124>
 8002cdc:	2003      	movs	r0, #3
 8002cde:	e773      	b.n	8002bc8 <HAL_RCCEx_PeriphCLKConfig+0x28>
 8002ce0:	4908      	ldr	r1, [pc, #32]	; (8002d04 <HAL_RCCEx_PeriphCLKConfig+0x164>)
 8002ce2:	688a      	ldr	r2, [r1, #8]
 8002ce4:	f422 12f8 	bic.w	r2, r2, #2031616	; 0x1f0000
 8002ce8:	f023 4370 	bic.w	r3, r3, #4026531840	; 0xf0000000
 8002cec:	f423 7340 	bic.w	r3, r3, #768	; 0x300
 8002cf0:	4313      	orrs	r3, r2
 8002cf2:	608b      	str	r3, [r1, #8]
 8002cf4:	e7db      	b.n	8002cae <HAL_RCCEx_PeriphCLKConfig+0x10e>
 8002cf6:	2000      	movs	r0, #0
 8002cf8:	e766      	b.n	8002bc8 <HAL_RCCEx_PeriphCLKConfig+0x28>
 8002cfa:	bf00      	nop
 8002cfc:	424711e0 	.word	0x424711e0
 8002d00:	42470068 	.word	0x42470068
 8002d04:	40023800 	.word	0x40023800
 8002d08:	40007000 	.word	0x40007000
 8002d0c:	42470e40 	.word	0x42470e40

08002d10 <HAL_RCCEx_GetPeriphCLKFreq>:
 8002d10:	2801      	cmp	r0, #1
 8002d12:	d12c      	bne.n	8002d6e <HAL_RCCEx_GetPeriphCLKFreq+0x5e>
 8002d14:	4b18      	ldr	r3, [pc, #96]	; (8002d78 <HAL_RCCEx_GetPeriphCLKFreq+0x68>)
 8002d16:	689b      	ldr	r3, [r3, #8]
 8002d18:	f413 0300 	ands.w	r3, r3, #8388608	; 0x800000
 8002d1c:	d003      	beq.n	8002d26 <HAL_RCCEx_GetPeriphCLKFreq+0x16>
 8002d1e:	2b01      	cmp	r3, #1
 8002d20:	d127      	bne.n	8002d72 <HAL_RCCEx_GetPeriphCLKFreq+0x62>
 8002d22:	4816      	ldr	r0, [pc, #88]	; (8002d7c <HAL_RCCEx_GetPeriphCLKFreq+0x6c>)
 8002d24:	4770      	bx	lr
 8002d26:	4b14      	ldr	r3, [pc, #80]	; (8002d78 <HAL_RCCEx_GetPeriphCLKFreq+0x68>)
 8002d28:	685b      	ldr	r3, [r3, #4]
 8002d2a:	f413 0f80 	tst.w	r3, #4194304	; 0x400000
 8002d2e:	d015      	beq.n	8002d5c <HAL_RCCEx_GetPeriphCLKFreq+0x4c>
 8002d30:	4b11      	ldr	r3, [pc, #68]	; (8002d78 <HAL_RCCEx_GetPeriphCLKFreq+0x68>)
 8002d32:	f8d3 3084 	ldr.w	r3, [r3, #132]	; 0x84
 8002d36:	f003 033f 	and.w	r3, r3, #63	; 0x3f
 8002d3a:	4811      	ldr	r0, [pc, #68]	; (8002d80 <HAL_RCCEx_GetPeriphCLKFreq+0x70>)
 8002d3c:	fbb0 f0f3 	udiv	r0, r0, r3
 8002d40:	4a0d      	ldr	r2, [pc, #52]	; (8002d78 <HAL_RCCEx_GetPeriphCLKFreq+0x68>)
 8002d42:	f8d2 3084 	ldr.w	r3, [r2, #132]	; 0x84
 8002d46:	f3c3 1388 	ubfx	r3, r3, #6, #9
 8002d4a:	fb00 f003 	mul.w	r0, r0, r3
 8002d4e:	f8d2 3084 	ldr.w	r3, [r2, #132]	; 0x84
 8002d52:	f3c3 7302 	ubfx	r3, r3, #28, #3
 8002d56:	fbb0 f0f3 	udiv	r0, r0, r3
 8002d5a:	4770      	bx	lr
 8002d5c:	4b06      	ldr	r3, [pc, #24]	; (8002d78 <HAL_RCCEx_GetPeriphCLKFreq+0x68>)
 8002d5e:	f8d3 3084 	ldr.w	r3, [r3, #132]	; 0x84
 8002d62:	f003 033f 	and.w	r3, r3, #63	; 0x3f
 8002d66:	4807      	ldr	r0, [pc, #28]	; (8002d84 <HAL_RCCEx_GetPeriphCLKFreq+0x74>)
 8002d68:	fbb0 f0f3 	udiv	r0, r0, r3
 8002d6c:	e7e8      	b.n	8002d40 <HAL_RCCEx_GetPeriphCLKFreq+0x30>
 8002d6e:	2000      	movs	r0, #0
 8002d70:	4770      	bx	lr
 8002d72:	2000      	movs	r0, #0
 8002d74:	4770      	bx	lr
 8002d76:	bf00      	nop
 8002d78:	40023800 	.word	0x40023800
 8002d7c:	00bb8000 	.word	0x00bb8000
 8002d80:	017d7840 	.word	0x017d7840
 8002d84:	00f42400 	.word	0x00f42400

08002d88 <UART_EndRxTransfer>:
 8002d88:	6802      	ldr	r2, [r0, #0]
 8002d8a:	68d3      	ldr	r3, [r2, #12]
 8002d8c:	f423 7390 	bic.w	r3, r3, #288	; 0x120
 8002d90:	60d3      	str	r3, [r2, #12]
 8002d92:	6802      	ldr	r2, [r0, #0]
 8002d94:	6953      	ldr	r3, [r2, #20]
 8002d96:	f023 0301 	bic.w	r3, r3, #1
 8002d9a:	6153      	str	r3, [r2, #20]
 8002d9c:	2320      	movs	r3, #32
 8002d9e:	f880 303a 	strb.w	r3, [r0, #58]	; 0x3a
 8002da2:	4770      	bx	lr

08002da4 <UART_Transmit_IT>:
 8002da4:	f890 3039 	ldrb.w	r3, [r0, #57]	; 0x39
 8002da8:	b2db      	uxtb	r3, r3
 8002daa:	2b21      	cmp	r3, #33	; 0x21
 8002dac:	d12a      	bne.n	8002e04 <UART_Transmit_IT+0x60>
 8002dae:	6883      	ldr	r3, [r0, #8]
 8002db0:	f5b3 5f80 	cmp.w	r3, #4096	; 0x1000
 8002db4:	d016      	beq.n	8002de4 <UART_Transmit_IT+0x40>
 8002db6:	6a03      	ldr	r3, [r0, #32]
 8002db8:	1c5a      	adds	r2, r3, #1
 8002dba:	6202      	str	r2, [r0, #32]
 8002dbc:	781a      	ldrb	r2, [r3, #0]
 8002dbe:	6803      	ldr	r3, [r0, #0]
 8002dc0:	605a      	str	r2, [r3, #4]
 8002dc2:	8cc3      	ldrh	r3, [r0, #38]	; 0x26
 8002dc4:	3b01      	subs	r3, #1
 8002dc6:	b29b      	uxth	r3, r3
 8002dc8:	84c3      	strh	r3, [r0, #38]	; 0x26
 8002dca:	b9eb      	cbnz	r3, 8002e08 <UART_Transmit_IT+0x64>
 8002dcc:	6802      	ldr	r2, [r0, #0]
 8002dce:	68d3      	ldr	r3, [r2, #12]
 8002dd0:	f023 0380 	bic.w	r3, r3, #128	; 0x80
 8002dd4:	60d3      	str	r3, [r2, #12]
 8002dd6:	6802      	ldr	r2, [r0, #0]
 8002dd8:	68d3      	ldr	r3, [r2, #12]
 8002dda:	f043 0340 	orr.w	r3, r3, #64	; 0x40
 8002dde:	60d3      	str	r3, [r2, #12]
 8002de0:	2000      	movs	r0, #0
 8002de2:	4770      	bx	lr
 8002de4:	6a03      	ldr	r3, [r0, #32]
 8002de6:	881b      	ldrh	r3, [r3, #0]
 8002de8:	6802      	ldr	r2, [r0, #0]
 8002dea:	f3c3 0308 	ubfx	r3, r3, #0, #9
 8002dee:	6053      	str	r3, [r2, #4]
 8002df0:	6903      	ldr	r3, [r0, #16]
 8002df2:	b91b      	cbnz	r3, 8002dfc <UART_Transmit_IT+0x58>
 8002df4:	6a03      	ldr	r3, [r0, #32]
 8002df6:	3302      	adds	r3, #2
 8002df8:	6203      	str	r3, [r0, #32]
 8002dfa:	e7e2      	b.n	8002dc2 <UART_Transmit_IT+0x1e>
 8002dfc:	6a03      	ldr	r3, [r0, #32]
 8002dfe:	3301      	adds	r3, #1
 8002e00:	6203      	str	r3, [r0, #32]
 8002e02:	e7de      	b.n	8002dc2 <UART_Transmit_IT+0x1e>
 8002e04:	2002      	movs	r0, #2
 8002e06:	4770      	bx	lr
 8002e08:	2000      	movs	r0, #0
 8002e0a:	4770      	bx	lr

08002e0c <UART_SetConfig>:
 8002e0c:	e92d 4bf0 	stmdb	sp!, {r4, r5, r6, r7, r8, r9, fp, lr}
 8002e10:	4604      	mov	r4, r0
 8002e12:	6802      	ldr	r2, [r0, #0]
 8002e14:	6913      	ldr	r3, [r2, #16]
 8002e16:	f423 5340 	bic.w	r3, r3, #12288	; 0x3000
 8002e1a:	68c1      	ldr	r1, [r0, #12]
 8002e1c:	430b      	orrs	r3, r1
 8002e1e:	6113      	str	r3, [r2, #16]
 8002e20:	6883      	ldr	r3, [r0, #8]
 8002e22:	6902      	ldr	r2, [r0, #16]
 8002e24:	4313      	orrs	r3, r2
 8002e26:	6942      	ldr	r2, [r0, #20]
 8002e28:	4313      	orrs	r3, r2
 8002e2a:	69c2      	ldr	r2, [r0, #28]
 8002e2c:	431a      	orrs	r2, r3
 8002e2e:	6801      	ldr	r1, [r0, #0]
 8002e30:	68cb      	ldr	r3, [r1, #12]
 8002e32:	f423 4316 	bic.w	r3, r3, #38400	; 0x9600
 8002e36:	f023 030c 	bic.w	r3, r3, #12
 8002e3a:	4313      	orrs	r3, r2
 8002e3c:	60cb      	str	r3, [r1, #12]
 8002e3e:	6802      	ldr	r2, [r0, #0]
 8002e40:	6953      	ldr	r3, [r2, #20]
 8002e42:	f423 7340 	bic.w	r3, r3, #768	; 0x300
 8002e46:	6981      	ldr	r1, [r0, #24]
 8002e48:	430b      	orrs	r3, r1
 8002e4a:	6153      	str	r3, [r2, #20]
 8002e4c:	69c3      	ldr	r3, [r0, #28]
 8002e4e:	f5b3 4f00 	cmp.w	r3, #32768	; 0x8000
 8002e52:	d03b      	beq.n	8002ecc <UART_SetConfig+0xc0>
 8002e54:	6803      	ldr	r3, [r0, #0]
 8002e56:	4a71      	ldr	r2, [pc, #452]	; (800301c <UART_SetConfig+0x210>)
 8002e58:	4293      	cmp	r3, r2
 8002e5a:	f000 80ab 	beq.w	8002fb4 <UART_SetConfig+0x1a8>
 8002e5e:	f502 6280 	add.w	r2, r2, #1024	; 0x400
 8002e62:	4293      	cmp	r3, r2
 8002e64:	f000 80a6 	beq.w	8002fb4 <UART_SetConfig+0x1a8>
 8002e68:	f7ff fe7a 	bl	8002b60 <HAL_RCC_GetPCLK1Freq>
 8002e6c:	f04f 0900 	mov.w	r9, #0
 8002e70:	1806      	adds	r6, r0, r0
 8002e72:	eb49 0709 	adc.w	r7, r9, r9
 8002e76:	eb16 0b00 	adds.w	fp, r6, r0
 8002e7a:	eb47 0c09 	adc.w	ip, r7, r9
 8002e7e:	ea4f 03cc 	mov.w	r3, ip, lsl #3
 8002e82:	ea43 735b 	orr.w	r3, r3, fp, lsr #29
 8002e86:	ea4f 02cb 	mov.w	r2, fp, lsl #3
 8002e8a:	4693      	mov	fp, r2
 8002e8c:	469c      	mov	ip, r3
 8002e8e:	6863      	ldr	r3, [r4, #4]
 8002e90:	009a      	lsls	r2, r3, #2
 8002e92:	0f9b      	lsrs	r3, r3, #30
 8002e94:	eb10 000b 	adds.w	r0, r0, fp
 8002e98:	eb49 010c 	adc.w	r1, r9, ip
 8002e9c:	f7fd fdba 	bl	8000a14 <__aeabi_uldivmod>
 8002ea0:	4d5f      	ldr	r5, [pc, #380]	; (8003020 <UART_SetConfig+0x214>)
 8002ea2:	fba5 3200 	umull	r3, r2, r5, r0
 8002ea6:	0951      	lsrs	r1, r2, #5
 8002ea8:	2264      	movs	r2, #100	; 0x64
 8002eaa:	fb02 0211 	mls	r2, r2, r1, r0
 8002eae:	0113      	lsls	r3, r2, #4
 8002eb0:	3332      	adds	r3, #50	; 0x32
 8002eb2:	fba5 2303 	umull	r2, r3, r5, r3
 8002eb6:	095b      	lsrs	r3, r3, #5
 8002eb8:	f003 02f0 	and.w	r2, r3, #240	; 0xf0
 8002ebc:	eb02 1201 	add.w	r2, r2, r1, lsl #4
 8002ec0:	f003 030f 	and.w	r3, r3, #15
 8002ec4:	6821      	ldr	r1, [r4, #0]
 8002ec6:	4413      	add	r3, r2
 8002ec8:	608b      	str	r3, [r1, #8]
 8002eca:	e0a4      	b.n	8003016 <UART_SetConfig+0x20a>
 8002ecc:	6803      	ldr	r3, [r0, #0]
 8002ece:	4a53      	ldr	r2, [pc, #332]	; (800301c <UART_SetConfig+0x210>)
 8002ed0:	4293      	cmp	r3, r2
 8002ed2:	d039      	beq.n	8002f48 <UART_SetConfig+0x13c>
 8002ed4:	f502 6280 	add.w	r2, r2, #1024	; 0x400
 8002ed8:	4293      	cmp	r3, r2
 8002eda:	d035      	beq.n	8002f48 <UART_SetConfig+0x13c>
 8002edc:	f7ff fe40 	bl	8002b60 <HAL_RCC_GetPCLK1Freq>
 8002ee0:	4683      	mov	fp, r0
 8002ee2:	f04f 0c00 	mov.w	ip, #0
 8002ee6:	1806      	adds	r6, r0, r0
 8002ee8:	eb4c 070c 	adc.w	r7, ip, ip
 8002eec:	eb16 0800 	adds.w	r8, r6, r0
 8002ef0:	eb47 090c 	adc.w	r9, r7, ip
 8002ef4:	ea4f 03c9 	mov.w	r3, r9, lsl #3
 8002ef8:	ea43 7358 	orr.w	r3, r3, r8, lsr #29
 8002efc:	ea4f 02c8 	mov.w	r2, r8, lsl #3
 8002f00:	4690      	mov	r8, r2
 8002f02:	4699      	mov	r9, r3
 8002f04:	6862      	ldr	r2, [r4, #4]
 8002f06:	2100      	movs	r1, #0
 8002f08:	1892      	adds	r2, r2, r2
 8002f0a:	eb41 0301 	adc.w	r3, r1, r1
 8002f0e:	eb1b 0008 	adds.w	r0, fp, r8
 8002f12:	eb4c 0109 	adc.w	r1, ip, r9
 8002f16:	f7fd fd7d 	bl	8000a14 <__aeabi_uldivmod>
 8002f1a:	4d41      	ldr	r5, [pc, #260]	; (8003020 <UART_SetConfig+0x214>)
 8002f1c:	fba5 3200 	umull	r3, r2, r5, r0
 8002f20:	0951      	lsrs	r1, r2, #5
 8002f22:	2264      	movs	r2, #100	; 0x64
 8002f24:	fb02 0211 	mls	r2, r2, r1, r0
 8002f28:	00d3      	lsls	r3, r2, #3
 8002f2a:	3332      	adds	r3, #50	; 0x32
 8002f2c:	fba5 2303 	umull	r2, r3, r5, r3
 8002f30:	095b      	lsrs	r3, r3, #5
 8002f32:	005a      	lsls	r2, r3, #1
 8002f34:	f402 72f8 	and.w	r2, r2, #496	; 0x1f0
 8002f38:	eb02 1201 	add.w	r2, r2, r1, lsl #4
 8002f3c:	f003 0307 	and.w	r3, r3, #7
 8002f40:	6821      	ldr	r1, [r4, #0]
 8002f42:	4413      	add	r3, r2
 8002f44:	608b      	str	r3, [r1, #8]
 8002f46:	e066      	b.n	8003016 <UART_SetConfig+0x20a>
 8002f48:	f7ff fe1a 	bl	8002b80 <HAL_RCC_GetPCLK2Freq>
 8002f4c:	4680      	mov	r8, r0
 8002f4e:	f04f 0900 	mov.w	r9, #0
 8002f52:	1806      	adds	r6, r0, r0
 8002f54:	eb49 0709 	adc.w	r7, r9, r9
 8002f58:	eb16 0b00 	adds.w	fp, r6, r0
 8002f5c:	eb47 0c09 	adc.w	ip, r7, r9
 8002f60:	ea4f 03cc 	mov.w	r3, ip, lsl #3
 8002f64:	ea43 735b 	orr.w	r3, r3, fp, lsr #29
 8002f68:	ea4f 02cb 	mov.w	r2, fp, lsl #3
 8002f6c:	4693      	mov	fp, r2
 8002f6e:	469c      	mov	ip, r3
 8002f70:	6862      	ldr	r2, [r4, #4]
 8002f72:	2100      	movs	r1, #0
 8002f74:	1892      	adds	r2, r2, r2
 8002f76:	eb41 0301 	adc.w	r3, r1, r1
 8002f7a:	eb18 000b 	adds.w	r0, r8, fp
 8002f7e:	eb49 010c 	adc.w	r1, r9, ip
 8002f82:	f7fd fd47 	bl	8000a14 <__aeabi_uldivmod>
 8002f86:	4d26      	ldr	r5, [pc, #152]	; (8003020 <UART_SetConfig+0x214>)
 8002f88:	fba5 3200 	umull	r3, r2, r5, r0
 8002f8c:	0951      	lsrs	r1, r2, #5
 8002f8e:	2264      	movs	r2, #100	; 0x64
 8002f90:	fb02 0211 	mls	r2, r2, r1, r0
 8002f94:	00d3      	lsls	r3, r2, #3
 8002f96:	3332      	adds	r3, #50	; 0x32
 8002f98:	fba5 2303 	umull	r2, r3, r5, r3
 8002f9c:	095b      	lsrs	r3, r3, #5
 8002f9e:	005a      	lsls	r2, r3, #1
 8002fa0:	f402 72f8 	and.w	r2, r2, #496	; 0x1f0
 8002fa4:	eb02 1201 	add.w	r2, r2, r1, lsl #4
 8002fa8:	f003 0307 	and.w	r3, r3, #7
 8002fac:	6821      	ldr	r1, [r4, #0]
 8002fae:	4413      	add	r3, r2
 8002fb0:	608b      	str	r3, [r1, #8]
 8002fb2:	e030      	b.n	8003016 <UART_SetConfig+0x20a>
 8002fb4:	f7ff fde4 	bl	8002b80 <HAL_RCC_GetPCLK2Freq>
 8002fb8:	f04f 0900 	mov.w	r9, #0
 8002fbc:	1806      	adds	r6, r0, r0
 8002fbe:	eb49 0709 	adc.w	r7, r9, r9
 8002fc2:	eb16 0b00 	adds.w	fp, r6, r0
 8002fc6:	eb47 0c09 	adc.w	ip, r7, r9
 8002fca:	ea4f 03cc 	mov.w	r3, ip, lsl #3
 8002fce:	ea43 735b 	orr.w	r3, r3, fp, lsr #29
 8002fd2:	ea4f 02cb 	mov.w	r2, fp, lsl #3
 8002fd6:	4693      	mov	fp, r2
 8002fd8:	469c      	mov	ip, r3
 8002fda:	6863      	ldr	r3, [r4, #4]
 8002fdc:	009a      	lsls	r2, r3, #2
 8002fde:	0f9b      	lsrs	r3, r3, #30
 8002fe0:	eb10 000b 	adds.w	r0, r0, fp
 8002fe4:	eb49 010c 	adc.w	r1, r9, ip
 8002fe8:	f7fd fd14 	bl	8000a14 <__aeabi_uldivmod>
 8002fec:	4d0c      	ldr	r5, [pc, #48]	; (8003020 <UART_SetConfig+0x214>)
 8002fee:	fba5 3200 	umull	r3, r2, r5, r0
 8002ff2:	0951      	lsrs	r1, r2, #5
 8002ff4:	2264      	movs	r2, #100	; 0x64
 8002ff6:	fb02 0211 	mls	r2, r2, r1, r0
 8002ffa:	0113      	lsls	r3, r2, #4
 8002ffc:	3332      	adds	r3, #50	; 0x32
 8002ffe:	fba5 2303 	umull	r2, r3, r5, r3
 8003002:	095b      	lsrs	r3, r3, #5
 8003004:	f003 02f0 	and.w	r2, r3, #240	; 0xf0
 8003008:	eb02 1201 	add.w	r2, r2, r1, lsl #4
 800300c:	f003 030f 	and.w	r3, r3, #15
 8003010:	6821      	ldr	r1, [r4, #0]
 8003012:	4413      	add	r3, r2
 8003014:	608b      	str	r3, [r1, #8]
 8003016:	e8bd 8bf0 	ldmia.w	sp!, {r4, r5, r6, r7, r8, r9, fp, pc}
 800301a:	bf00      	nop
 800301c:	40011000 	.word	0x40011000
 8003020:	51eb851f 	.word	0x51eb851f

08003024 <HAL_UART_Init>:
 8003024:	b358      	cbz	r0, 800307e <HAL_UART_Init+0x5a>
 8003026:	b510      	push	{r4, lr}
 8003028:	4604      	mov	r4, r0
 800302a:	f890 3039 	ldrb.w	r3, [r0, #57]	; 0x39
 800302e:	b30b      	cbz	r3, 8003074 <HAL_UART_Init+0x50>
 8003030:	2324      	movs	r3, #36	; 0x24
 8003032:	f884 3039 	strb.w	r3, [r4, #57]	; 0x39
 8003036:	6822      	ldr	r2, [r4, #0]
 8003038:	68d3      	ldr	r3, [r2, #12]
 800303a:	f423 5300 	bic.w	r3, r3, #8192	; 0x2000
 800303e:	60d3      	str	r3, [r2, #12]
 8003040:	4620      	mov	r0, r4
 8003042:	f7ff fee3 	bl	8002e0c <UART_SetConfig>
 8003046:	6822      	ldr	r2, [r4, #0]
 8003048:	6913      	ldr	r3, [r2, #16]
 800304a:	f423 4390 	bic.w	r3, r3, #18432	; 0x4800
 800304e:	6113      	str	r3, [r2, #16]
 8003050:	6822      	ldr	r2, [r4, #0]
 8003052:	6953      	ldr	r3, [r2, #20]
 8003054:	f023 032a 	bic.w	r3, r3, #42	; 0x2a
 8003058:	6153      	str	r3, [r2, #20]
 800305a:	6822      	ldr	r2, [r4, #0]
 800305c:	68d3      	ldr	r3, [r2, #12]
 800305e:	f443 5300 	orr.w	r3, r3, #8192	; 0x2000
 8003062:	60d3      	str	r3, [r2, #12]
 8003064:	2000      	movs	r0, #0
 8003066:	63e0      	str	r0, [r4, #60]	; 0x3c
 8003068:	2320      	movs	r3, #32
 800306a:	f884 3039 	strb.w	r3, [r4, #57]	; 0x39
 800306e:	f884 303a 	strb.w	r3, [r4, #58]	; 0x3a
 8003072:	bd10      	pop	{r4, pc}
 8003074:	f880 3038 	strb.w	r3, [r0, #56]	; 0x38
 8003078:	f7fe fa2e 	bl	80014d8 <HAL_UART_MspInit>
 800307c:	e7d8      	b.n	8003030 <HAL_UART_Init+0xc>
 800307e:	2001      	movs	r0, #1
 8003080:	4770      	bx	lr

08003082 <HAL_UART_Receive_IT>:
 8003082:	f890 303a 	ldrb.w	r3, [r0, #58]	; 0x3a
 8003086:	b2db      	uxtb	r3, r3
 8003088:	2b20      	cmp	r3, #32
 800308a:	d120      	bne.n	80030ce <HAL_UART_Receive_IT+0x4c>
 800308c:	b309      	cbz	r1, 80030d2 <HAL_UART_Receive_IT+0x50>
 800308e:	b312      	cbz	r2, 80030d6 <HAL_UART_Receive_IT+0x54>
 8003090:	f890 3038 	ldrb.w	r3, [r0, #56]	; 0x38
 8003094:	2b01      	cmp	r3, #1
 8003096:	d020      	beq.n	80030da <HAL_UART_Receive_IT+0x58>
 8003098:	6281      	str	r1, [r0, #40]	; 0x28
 800309a:	8582      	strh	r2, [r0, #44]	; 0x2c
 800309c:	85c2      	strh	r2, [r0, #46]	; 0x2e
 800309e:	2300      	movs	r3, #0
 80030a0:	63c3      	str	r3, [r0, #60]	; 0x3c
 80030a2:	2222      	movs	r2, #34	; 0x22
 80030a4:	f880 203a 	strb.w	r2, [r0, #58]	; 0x3a
 80030a8:	f880 3038 	strb.w	r3, [r0, #56]	; 0x38
 80030ac:	6801      	ldr	r1, [r0, #0]
 80030ae:	68ca      	ldr	r2, [r1, #12]
 80030b0:	f442 7280 	orr.w	r2, r2, #256	; 0x100
 80030b4:	60ca      	str	r2, [r1, #12]
 80030b6:	6801      	ldr	r1, [r0, #0]
 80030b8:	694a      	ldr	r2, [r1, #20]
 80030ba:	f042 0201 	orr.w	r2, r2, #1
 80030be:	614a      	str	r2, [r1, #20]
 80030c0:	6801      	ldr	r1, [r0, #0]
 80030c2:	68ca      	ldr	r2, [r1, #12]
 80030c4:	f042 0220 	orr.w	r2, r2, #32
 80030c8:	60ca      	str	r2, [r1, #12]
 80030ca:	4618      	mov	r0, r3
 80030cc:	4770      	bx	lr
 80030ce:	2002      	movs	r0, #2
 80030d0:	4770      	bx	lr
 80030d2:	2001      	movs	r0, #1
 80030d4:	4770      	bx	lr
 80030d6:	2001      	movs	r0, #1
 80030d8:	4770      	bx	lr
 80030da:	2002      	movs	r0, #2
 80030dc:	4770      	bx	lr

080030de <HAL_UART_TxCpltCallback>:
 80030de:	4770      	bx	lr

080030e0 <UART_EndTransmit_IT>:
 80030e0:	b508      	push	{r3, lr}
 80030e2:	6801      	ldr	r1, [r0, #0]
 80030e4:	68cb      	ldr	r3, [r1, #12]
 80030e6:	f023 0340 	bic.w	r3, r3, #64	; 0x40
 80030ea:	60cb      	str	r3, [r1, #12]
 80030ec:	2320      	movs	r3, #32
 80030ee:	f880 3039 	strb.w	r3, [r0, #57]	; 0x39
 80030f2:	f7ff fff4 	bl	80030de <HAL_UART_TxCpltCallback>
 80030f6:	2000      	movs	r0, #0
 80030f8:	bd08      	pop	{r3, pc}

080030fa <UART_Receive_IT>:
 80030fa:	b508      	push	{r3, lr}
 80030fc:	f890 303a 	ldrb.w	r3, [r0, #58]	; 0x3a
 8003100:	b2db      	uxtb	r3, r3
 8003102:	2b22      	cmp	r3, #34	; 0x22
 8003104:	d145      	bne.n	8003192 <UART_Receive_IT+0x98>
 8003106:	6883      	ldr	r3, [r0, #8]
 8003108:	f5b3 5f80 	cmp.w	r3, #4096	; 0x1000
 800310c:	d00e      	beq.n	800312c <UART_Receive_IT+0x32>
 800310e:	6903      	ldr	r3, [r0, #16]
 8003110:	bb03      	cbnz	r3, 8003154 <UART_Receive_IT+0x5a>
 8003112:	6803      	ldr	r3, [r0, #0]
 8003114:	685a      	ldr	r2, [r3, #4]
 8003116:	6a83      	ldr	r3, [r0, #40]	; 0x28
 8003118:	1c59      	adds	r1, r3, #1
 800311a:	6281      	str	r1, [r0, #40]	; 0x28
 800311c:	701a      	strb	r2, [r3, #0]
 800311e:	8dc3      	ldrh	r3, [r0, #46]	; 0x2e
 8003120:	3b01      	subs	r3, #1
 8003122:	b29b      	uxth	r3, r3
 8003124:	85c3      	strh	r3, [r0, #46]	; 0x2e
 8003126:	b1f3      	cbz	r3, 8003166 <UART_Receive_IT+0x6c>
 8003128:	2000      	movs	r0, #0
 800312a:	e033      	b.n	8003194 <UART_Receive_IT+0x9a>
 800312c:	6a82      	ldr	r2, [r0, #40]	; 0x28
 800312e:	6903      	ldr	r3, [r0, #16]
 8003130:	b943      	cbnz	r3, 8003144 <UART_Receive_IT+0x4a>
 8003132:	6803      	ldr	r3, [r0, #0]
 8003134:	685b      	ldr	r3, [r3, #4]
 8003136:	f3c3 0308 	ubfx	r3, r3, #0, #9
 800313a:	8013      	strh	r3, [r2, #0]
 800313c:	6a83      	ldr	r3, [r0, #40]	; 0x28
 800313e:	3302      	adds	r3, #2
 8003140:	6283      	str	r3, [r0, #40]	; 0x28
 8003142:	e7ec      	b.n	800311e <UART_Receive_IT+0x24>
 8003144:	6803      	ldr	r3, [r0, #0]
 8003146:	685b      	ldr	r3, [r3, #4]
 8003148:	b2db      	uxtb	r3, r3
 800314a:	8013      	strh	r3, [r2, #0]
 800314c:	6a83      	ldr	r3, [r0, #40]	; 0x28
 800314e:	3301      	adds	r3, #1
 8003150:	6283      	str	r3, [r0, #40]	; 0x28
 8003152:	e7e4      	b.n	800311e <UART_Receive_IT+0x24>
 8003154:	6803      	ldr	r3, [r0, #0]
 8003156:	685b      	ldr	r3, [r3, #4]
 8003158:	6a82      	ldr	r2, [r0, #40]	; 0x28
 800315a:	1c51      	adds	r1, r2, #1
 800315c:	6281      	str	r1, [r0, #40]	; 0x28
 800315e:	f003 037f 	and.w	r3, r3, #127	; 0x7f
 8003162:	7013      	strb	r3, [r2, #0]
 8003164:	e7db      	b.n	800311e <UART_Receive_IT+0x24>
 8003166:	6802      	ldr	r2, [r0, #0]
 8003168:	68d3      	ldr	r3, [r2, #12]
 800316a:	f023 0320 	bic.w	r3, r3, #32
 800316e:	60d3      	str	r3, [r2, #12]
 8003170:	6802      	ldr	r2, [r0, #0]
 8003172:	68d3      	ldr	r3, [r2, #12]
 8003174:	f423 7380 	bic.w	r3, r3, #256	; 0x100
 8003178:	60d3      	str	r3, [r2, #12]
 800317a:	6802      	ldr	r2, [r0, #0]
 800317c:	6953      	ldr	r3, [r2, #20]
 800317e:	f023 0301 	bic.w	r3, r3, #1
 8003182:	6153      	str	r3, [r2, #20]
 8003184:	2320      	movs	r3, #32
 8003186:	f880 303a 	strb.w	r3, [r0, #58]	; 0x3a
 800318a:	f7fd ff5f 	bl	800104c <HAL_UART_RxCpltCallback>
 800318e:	2000      	movs	r0, #0
 8003190:	e000      	b.n	8003194 <UART_Receive_IT+0x9a>
 8003192:	2002      	movs	r0, #2
 8003194:	bd08      	pop	{r3, pc}

08003196 <HAL_UART_ErrorCallback>:
 8003196:	4770      	bx	lr

08003198 <HAL_UART_IRQHandler>:
 8003198:	b510      	push	{r4, lr}
 800319a:	4604      	mov	r4, r0
 800319c:	6802      	ldr	r2, [r0, #0]
 800319e:	6813      	ldr	r3, [r2, #0]
 80031a0:	68d1      	ldr	r1, [r2, #12]
 80031a2:	6952      	ldr	r2, [r2, #20]
 80031a4:	f013 000f 	ands.w	r0, r3, #15
 80031a8:	d105      	bne.n	80031b6 <HAL_UART_IRQHandler+0x1e>
 80031aa:	f013 0f20 	tst.w	r3, #32
 80031ae:	d002      	beq.n	80031b6 <HAL_UART_IRQHandler+0x1e>
 80031b0:	f011 0f20 	tst.w	r1, #32
 80031b4:	d156      	bne.n	8003264 <HAL_UART_IRQHandler+0xcc>
 80031b6:	2800      	cmp	r0, #0
 80031b8:	d06a      	beq.n	8003290 <HAL_UART_IRQHandler+0xf8>
 80031ba:	f012 0201 	ands.w	r2, r2, #1
 80031be:	d102      	bne.n	80031c6 <HAL_UART_IRQHandler+0x2e>
 80031c0:	f411 7f90 	tst.w	r1, #288	; 0x120
 80031c4:	d064      	beq.n	8003290 <HAL_UART_IRQHandler+0xf8>
 80031c6:	f013 0f01 	tst.w	r3, #1
 80031ca:	d006      	beq.n	80031da <HAL_UART_IRQHandler+0x42>
 80031cc:	f411 7f80 	tst.w	r1, #256	; 0x100
 80031d0:	d003      	beq.n	80031da <HAL_UART_IRQHandler+0x42>
 80031d2:	6be0      	ldr	r0, [r4, #60]	; 0x3c
 80031d4:	f040 0001 	orr.w	r0, r0, #1
 80031d8:	63e0      	str	r0, [r4, #60]	; 0x3c
 80031da:	f013 0f04 	tst.w	r3, #4
 80031de:	d004      	beq.n	80031ea <HAL_UART_IRQHandler+0x52>
 80031e0:	b11a      	cbz	r2, 80031ea <HAL_UART_IRQHandler+0x52>
 80031e2:	6be0      	ldr	r0, [r4, #60]	; 0x3c
 80031e4:	f040 0002 	orr.w	r0, r0, #2
 80031e8:	63e0      	str	r0, [r4, #60]	; 0x3c
 80031ea:	f013 0f02 	tst.w	r3, #2
 80031ee:	d004      	beq.n	80031fa <HAL_UART_IRQHandler+0x62>
 80031f0:	b11a      	cbz	r2, 80031fa <HAL_UART_IRQHandler+0x62>
 80031f2:	6be0      	ldr	r0, [r4, #60]	; 0x3c
 80031f4:	f040 0004 	orr.w	r0, r0, #4
 80031f8:	63e0      	str	r0, [r4, #60]	; 0x3c
 80031fa:	f013 0f08 	tst.w	r3, #8
 80031fe:	d007      	beq.n	8003210 <HAL_UART_IRQHandler+0x78>
 8003200:	f011 0f20 	tst.w	r1, #32
 8003204:	d100      	bne.n	8003208 <HAL_UART_IRQHandler+0x70>
 8003206:	b11a      	cbz	r2, 8003210 <HAL_UART_IRQHandler+0x78>
 8003208:	6be2      	ldr	r2, [r4, #60]	; 0x3c
 800320a:	f042 0208 	orr.w	r2, r2, #8
 800320e:	63e2      	str	r2, [r4, #60]	; 0x3c
 8003210:	6be2      	ldr	r2, [r4, #60]	; 0x3c
 8003212:	2a00      	cmp	r2, #0
 8003214:	d048      	beq.n	80032a8 <HAL_UART_IRQHandler+0x110>
 8003216:	f013 0f20 	tst.w	r3, #32
 800321a:	d002      	beq.n	8003222 <HAL_UART_IRQHandler+0x8a>
 800321c:	f011 0f20 	tst.w	r1, #32
 8003220:	d124      	bne.n	800326c <HAL_UART_IRQHandler+0xd4>
 8003222:	6823      	ldr	r3, [r4, #0]
 8003224:	695b      	ldr	r3, [r3, #20]
 8003226:	f003 0340 	and.w	r3, r3, #64	; 0x40
 800322a:	6be2      	ldr	r2, [r4, #60]	; 0x3c
 800322c:	f012 0f08 	tst.w	r2, #8
 8003230:	d100      	bne.n	8003234 <HAL_UART_IRQHandler+0x9c>
 8003232:	b33b      	cbz	r3, 8003284 <HAL_UART_IRQHandler+0xec>
 8003234:	4620      	mov	r0, r4
 8003236:	f7ff fda7 	bl	8002d88 <UART_EndRxTransfer>
 800323a:	6823      	ldr	r3, [r4, #0]
 800323c:	695a      	ldr	r2, [r3, #20]
 800323e:	f012 0f40 	tst.w	r2, #64	; 0x40
 8003242:	d01b      	beq.n	800327c <HAL_UART_IRQHandler+0xe4>
 8003244:	695a      	ldr	r2, [r3, #20]
 8003246:	f022 0240 	bic.w	r2, r2, #64	; 0x40
 800324a:	615a      	str	r2, [r3, #20]
 800324c:	6b63      	ldr	r3, [r4, #52]	; 0x34
 800324e:	b18b      	cbz	r3, 8003274 <HAL_UART_IRQHandler+0xdc>
 8003250:	4a1a      	ldr	r2, [pc, #104]	; (80032bc <HAL_UART_IRQHandler+0x124>)
 8003252:	651a      	str	r2, [r3, #80]	; 0x50
 8003254:	6b60      	ldr	r0, [r4, #52]	; 0x34
 8003256:	f7fe fc20 	bl	8001a9a <HAL_DMA_Abort_IT>
 800325a:	b328      	cbz	r0, 80032a8 <HAL_UART_IRQHandler+0x110>
 800325c:	6b60      	ldr	r0, [r4, #52]	; 0x34
 800325e:	6d03      	ldr	r3, [r0, #80]	; 0x50
 8003260:	4798      	blx	r3
 8003262:	e021      	b.n	80032a8 <HAL_UART_IRQHandler+0x110>
 8003264:	4620      	mov	r0, r4
 8003266:	f7ff ff48 	bl	80030fa <UART_Receive_IT>
 800326a:	e01d      	b.n	80032a8 <HAL_UART_IRQHandler+0x110>
 800326c:	4620      	mov	r0, r4
 800326e:	f7ff ff44 	bl	80030fa <UART_Receive_IT>
 8003272:	e7d6      	b.n	8003222 <HAL_UART_IRQHandler+0x8a>
 8003274:	4620      	mov	r0, r4
 8003276:	f7ff ff8e 	bl	8003196 <HAL_UART_ErrorCallback>
 800327a:	e015      	b.n	80032a8 <HAL_UART_IRQHandler+0x110>
 800327c:	4620      	mov	r0, r4
 800327e:	f7ff ff8a 	bl	8003196 <HAL_UART_ErrorCallback>
 8003282:	e011      	b.n	80032a8 <HAL_UART_IRQHandler+0x110>
 8003284:	4620      	mov	r0, r4
 8003286:	f7ff ff86 	bl	8003196 <HAL_UART_ErrorCallback>
 800328a:	2300      	movs	r3, #0
 800328c:	63e3      	str	r3, [r4, #60]	; 0x3c
 800328e:	e00b      	b.n	80032a8 <HAL_UART_IRQHandler+0x110>
 8003290:	f013 0f80 	tst.w	r3, #128	; 0x80
 8003294:	d002      	beq.n	800329c <HAL_UART_IRQHandler+0x104>
 8003296:	f011 0f80 	tst.w	r1, #128	; 0x80
 800329a:	d106      	bne.n	80032aa <HAL_UART_IRQHandler+0x112>
 800329c:	f013 0f40 	tst.w	r3, #64	; 0x40
 80032a0:	d002      	beq.n	80032a8 <HAL_UART_IRQHandler+0x110>
 80032a2:	f011 0f40 	tst.w	r1, #64	; 0x40
 80032a6:	d104      	bne.n	80032b2 <HAL_UART_IRQHandler+0x11a>
 80032a8:	bd10      	pop	{r4, pc}
 80032aa:	4620      	mov	r0, r4
 80032ac:	f7ff fd7a 	bl	8002da4 <UART_Transmit_IT>
 80032b0:	e7fa      	b.n	80032a8 <HAL_UART_IRQHandler+0x110>
 80032b2:	4620      	mov	r0, r4
 80032b4:	f7ff ff14 	bl	80030e0 <UART_EndTransmit_IT>
 80032b8:	e7f6      	b.n	80032a8 <HAL_UART_IRQHandler+0x110>
 80032ba:	bf00      	nop
 80032bc:	080032c1 	.word	0x080032c1

080032c0 <UART_DMAAbortOnError>:
 80032c0:	b508      	push	{r3, lr}
 80032c2:	6b80      	ldr	r0, [r0, #56]	; 0x38
 80032c4:	2300      	movs	r3, #0
 80032c6:	85c3      	strh	r3, [r0, #46]	; 0x2e
 80032c8:	84c3      	strh	r3, [r0, #38]	; 0x26
 80032ca:	f7ff ff64 	bl	8003196 <HAL_UART_ErrorCallback>
 80032ce:	bd08      	pop	{r3, pc}

080032d0 <Reset_Handler>:
 80032d0:	f8df d034 	ldr.w	sp, [pc, #52]	; 8003308 <LoopFillZerobss+0x14>
 80032d4:	2100      	movs	r1, #0
 80032d6:	e003      	b.n	80032e0 <LoopCopyDataInit>

080032d8 <CopyDataInit>:
 80032d8:	4b0c      	ldr	r3, [pc, #48]	; (800330c <LoopFillZerobss+0x18>)
 80032da:	585b      	ldr	r3, [r3, r1]
 80032dc:	5043      	str	r3, [r0, r1]
 80032de:	3104      	adds	r1, #4

080032e0 <LoopCopyDataInit>:
 80032e0:	480b      	ldr	r0, [pc, #44]	; (8003310 <LoopFillZerobss+0x1c>)
 80032e2:	4b0c      	ldr	r3, [pc, #48]	; (8003314 <LoopFillZerobss+0x20>)
 80032e4:	1842      	adds	r2, r0, r1
 80032e6:	429a      	cmp	r2, r3
 80032e8:	d3f6      	bcc.n	80032d8 <CopyDataInit>
 80032ea:	4a0b      	ldr	r2, [pc, #44]	; (8003318 <LoopFillZerobss+0x24>)
 80032ec:	e002      	b.n	80032f4 <LoopFillZerobss>

080032ee <FillZerobss>:
 80032ee:	2300      	movs	r3, #0
 80032f0:	f842 3b04 	str.w	r3, [r2], #4

080032f4 <LoopFillZerobss>:
 80032f4:	4b09      	ldr	r3, [pc, #36]	; (800331c <LoopFillZerobss+0x28>)
 80032f6:	429a      	cmp	r2, r3
 80032f8:	d3f9      	bcc.n	80032ee <FillZerobss>
 80032fa:	f7fe f947 	bl	800158c <SystemInit>
 80032fe:	f000 f817 	bl	8003330 <__libc_init_array>
 8003302:	f7fd ff37 	bl	8001174 <main>
 8003306:	4770      	bx	lr
 8003308:	20020000 	.word	0x20020000
 800330c:	08003e04 	.word	0x08003e04
 8003310:	20000000 	.word	0x20000000
 8003314:	2000007c 	.word	0x2000007c
 8003318:	2000007c 	.word	0x2000007c
 800331c:	20001194 	.word	0x20001194

08003320 <ADC_IRQHandler>:
 8003320:	e7fe      	b.n	8003320 <ADC_IRQHandler>
	...

08003324 <__errno>:
 8003324:	4b01      	ldr	r3, [pc, #4]	; (800332c <__errno+0x8>)
 8003326:	6818      	ldr	r0, [r3, #0]
 8003328:	4770      	bx	lr
 800332a:	bf00      	nop
 800332c:	20000014 	.word	0x20000014

08003330 <__libc_init_array>:
 8003330:	b570      	push	{r4, r5, r6, lr}
 8003332:	4e0d      	ldr	r6, [pc, #52]	; (8003368 <__libc_init_array+0x38>)
 8003334:	4c0d      	ldr	r4, [pc, #52]	; (800336c <__libc_init_array+0x3c>)
 8003336:	1ba4      	subs	r4, r4, r6
 8003338:	10a4      	asrs	r4, r4, #2
 800333a:	2500      	movs	r5, #0
 800333c:	42a5      	cmp	r5, r4
 800333e:	d109      	bne.n	8003354 <__libc_init_array+0x24>
 8003340:	4e0b      	ldr	r6, [pc, #44]	; (8003370 <__libc_init_array+0x40>)
 8003342:	4c0c      	ldr	r4, [pc, #48]	; (8003374 <__libc_init_array+0x44>)
 8003344:	f000 fd26 	bl	8003d94 <_init>
 8003348:	1ba4      	subs	r4, r4, r6
 800334a:	10a4      	asrs	r4, r4, #2
 800334c:	2500      	movs	r5, #0
 800334e:	42a5      	cmp	r5, r4
 8003350:	d105      	bne.n	800335e <__libc_init_array+0x2e>
 8003352:	bd70      	pop	{r4, r5, r6, pc}
 8003354:	f856 3025 	ldr.w	r3, [r6, r5, lsl #2]
 8003358:	4798      	blx	r3
 800335a:	3501      	adds	r5, #1
 800335c:	e7ee      	b.n	800333c <__libc_init_array+0xc>
 800335e:	f856 3025 	ldr.w	r3, [r6, r5, lsl #2]
 8003362:	4798      	blx	r3
 8003364:	3501      	adds	r5, #1
 8003366:	e7f2      	b.n	800334e <__libc_init_array+0x1e>
 8003368:	08003dfc 	.word	0x08003dfc
 800336c:	08003dfc 	.word	0x08003dfc
 8003370:	08003dfc 	.word	0x08003dfc
 8003374:	08003e00 	.word	0x08003e00

08003378 <memset>:
 8003378:	4402      	add	r2, r0
 800337a:	4603      	mov	r3, r0
 800337c:	4293      	cmp	r3, r2
 800337e:	d100      	bne.n	8003382 <memset+0xa>
 8003380:	4770      	bx	lr
 8003382:	f803 1b01 	strb.w	r1, [r3], #1
 8003386:	e7f9      	b.n	800337c <memset+0x4>

08003388 <powf>:
 8003388:	e92d 4370 	stmdb	sp!, {r4, r5, r6, r8, r9, lr}
 800338c:	ed2d 8b04 	vpush	{d8-d9}
 8003390:	4ca7      	ldr	r4, [pc, #668]	; (8003630 <powf+0x2a8>)
 8003392:	b08a      	sub	sp, #40	; 0x28
 8003394:	eef0 8a40 	vmov.f32	s17, s0
 8003398:	eeb0 8a60 	vmov.f32	s16, s1
 800339c:	f000 f958 	bl	8003650 <__ieee754_powf>
 80033a0:	f994 5000 	ldrsb.w	r5, [r4]
 80033a4:	1c6b      	adds	r3, r5, #1
 80033a6:	eeb0 9a40 	vmov.f32	s18, s0
 80033aa:	4626      	mov	r6, r4
 80033ac:	d05f      	beq.n	800346e <powf+0xe6>
 80033ae:	eeb4 8a48 	vcmp.f32	s16, s16
 80033b2:	eef1 fa10 	vmrs	APSR_nzcv, fpscr
 80033b6:	d65a      	bvs.n	800346e <powf+0xe6>
 80033b8:	eef4 8a68 	vcmp.f32	s17, s17
 80033bc:	eef1 fa10 	vmrs	APSR_nzcv, fpscr
 80033c0:	d721      	bvc.n	8003406 <powf+0x7e>
 80033c2:	eeb5 8a40 	vcmp.f32	s16, #0.0
 80033c6:	eef1 fa10 	vmrs	APSR_nzcv, fpscr
 80033ca:	d150      	bne.n	800346e <powf+0xe6>
 80033cc:	2301      	movs	r3, #1
 80033ce:	9300      	str	r3, [sp, #0]
 80033d0:	4b98      	ldr	r3, [pc, #608]	; (8003634 <powf+0x2ac>)
 80033d2:	9301      	str	r3, [sp, #4]
 80033d4:	ee18 0a90 	vmov	r0, s17
 80033d8:	2300      	movs	r3, #0
 80033da:	9308      	str	r3, [sp, #32]
 80033dc:	f7fd f860 	bl	80004a0 <__aeabi_f2d>
 80033e0:	e9cd 0102 	strd	r0, r1, [sp, #8]
 80033e4:	ee18 0a10 	vmov	r0, s16
 80033e8:	f7fd f85a 	bl	80004a0 <__aeabi_f2d>
 80033ec:	4b92      	ldr	r3, [pc, #584]	; (8003638 <powf+0x2b0>)
 80033ee:	2200      	movs	r2, #0
 80033f0:	2d02      	cmp	r5, #2
 80033f2:	e9cd 0104 	strd	r0, r1, [sp, #16]
 80033f6:	e9cd 2306 	strd	r2, r3, [sp, #24]
 80033fa:	d032      	beq.n	8003462 <powf+0xda>
 80033fc:	4668      	mov	r0, sp
 80033fe:	f000 fbea 	bl	8003bd6 <matherr>
 8003402:	bb40      	cbnz	r0, 8003456 <powf+0xce>
 8003404:	e065      	b.n	80034d2 <powf+0x14a>
 8003406:	eddf 9a8d 	vldr	s19, [pc, #564]	; 800363c <powf+0x2b4>
 800340a:	eef4 8a69 	vcmp.f32	s17, s19
 800340e:	eef1 fa10 	vmrs	APSR_nzcv, fpscr
 8003412:	d163      	bne.n	80034dc <powf+0x154>
 8003414:	eeb4 8a69 	vcmp.f32	s16, s19
 8003418:	eef1 fa10 	vmrs	APSR_nzcv, fpscr
 800341c:	d12e      	bne.n	800347c <powf+0xf4>
 800341e:	2301      	movs	r3, #1
 8003420:	9300      	str	r3, [sp, #0]
 8003422:	4b84      	ldr	r3, [pc, #528]	; (8003634 <powf+0x2ac>)
 8003424:	9301      	str	r3, [sp, #4]
 8003426:	ee18 0a90 	vmov	r0, s17
 800342a:	2300      	movs	r3, #0
 800342c:	9308      	str	r3, [sp, #32]
 800342e:	f7fd f837 	bl	80004a0 <__aeabi_f2d>
 8003432:	e9cd 0102 	strd	r0, r1, [sp, #8]
 8003436:	ee18 0a10 	vmov	r0, s16
 800343a:	f7fd f831 	bl	80004a0 <__aeabi_f2d>
 800343e:	2200      	movs	r2, #0
 8003440:	2300      	movs	r3, #0
 8003442:	e9cd 0104 	strd	r0, r1, [sp, #16]
 8003446:	e9cd 2306 	strd	r2, r3, [sp, #24]
 800344a:	2d00      	cmp	r5, #0
 800344c:	d0d6      	beq.n	80033fc <powf+0x74>
 800344e:	4b7a      	ldr	r3, [pc, #488]	; (8003638 <powf+0x2b0>)
 8003450:	2200      	movs	r2, #0
 8003452:	e9cd 2306 	strd	r2, r3, [sp, #24]
 8003456:	9b08      	ldr	r3, [sp, #32]
 8003458:	b11b      	cbz	r3, 8003462 <powf+0xda>
 800345a:	f7ff ff63 	bl	8003324 <__errno>
 800345e:	9b08      	ldr	r3, [sp, #32]
 8003460:	6003      	str	r3, [r0, #0]
 8003462:	e9dd 0106 	ldrd	r0, r1, [sp, #24]
 8003466:	f7fd fa85 	bl	8000974 <__aeabi_d2f>
 800346a:	ee09 0a10 	vmov	s18, r0
 800346e:	eeb0 0a49 	vmov.f32	s0, s18
 8003472:	b00a      	add	sp, #40	; 0x28
 8003474:	ecbd 8b04 	vpop	{d8-d9}
 8003478:	e8bd 8370 	ldmia.w	sp!, {r4, r5, r6, r8, r9, pc}
 800347c:	eeb0 0a48 	vmov.f32	s0, s16
 8003480:	f000 fbb2 	bl	8003be8 <finitef>
 8003484:	2800      	cmp	r0, #0
 8003486:	d0f2      	beq.n	800346e <powf+0xe6>
 8003488:	eeb5 8ac0 	vcmpe.f32	s16, #0.0
 800348c:	eef1 fa10 	vmrs	APSR_nzcv, fpscr
 8003490:	d5ed      	bpl.n	800346e <powf+0xe6>
 8003492:	2301      	movs	r3, #1
 8003494:	9300      	str	r3, [sp, #0]
 8003496:	4b67      	ldr	r3, [pc, #412]	; (8003634 <powf+0x2ac>)
 8003498:	9301      	str	r3, [sp, #4]
 800349a:	ee18 0a90 	vmov	r0, s17
 800349e:	2300      	movs	r3, #0
 80034a0:	9308      	str	r3, [sp, #32]
 80034a2:	f7fc fffd 	bl	80004a0 <__aeabi_f2d>
 80034a6:	e9cd 0102 	strd	r0, r1, [sp, #8]
 80034aa:	ee18 0a10 	vmov	r0, s16
 80034ae:	f7fc fff7 	bl	80004a0 <__aeabi_f2d>
 80034b2:	f994 3000 	ldrsb.w	r3, [r4]
 80034b6:	e9cd 0104 	strd	r0, r1, [sp, #16]
 80034ba:	b923      	cbnz	r3, 80034c6 <powf+0x13e>
 80034bc:	2200      	movs	r2, #0
 80034be:	2300      	movs	r3, #0
 80034c0:	e9cd 2306 	strd	r2, r3, [sp, #24]
 80034c4:	e79a      	b.n	80033fc <powf+0x74>
 80034c6:	495e      	ldr	r1, [pc, #376]	; (8003640 <powf+0x2b8>)
 80034c8:	2000      	movs	r0, #0
 80034ca:	e9cd 0106 	strd	r0, r1, [sp, #24]
 80034ce:	2b02      	cmp	r3, #2
 80034d0:	d194      	bne.n	80033fc <powf+0x74>
 80034d2:	f7ff ff27 	bl	8003324 <__errno>
 80034d6:	2321      	movs	r3, #33	; 0x21
 80034d8:	6003      	str	r3, [r0, #0]
 80034da:	e7bc      	b.n	8003456 <powf+0xce>
 80034dc:	f000 fb84 	bl	8003be8 <finitef>
 80034e0:	4605      	mov	r5, r0
 80034e2:	2800      	cmp	r0, #0
 80034e4:	d173      	bne.n	80035ce <powf+0x246>
 80034e6:	eeb0 0a68 	vmov.f32	s0, s17
 80034ea:	f000 fb7d 	bl	8003be8 <finitef>
 80034ee:	2800      	cmp	r0, #0
 80034f0:	d06d      	beq.n	80035ce <powf+0x246>
 80034f2:	eeb0 0a48 	vmov.f32	s0, s16
 80034f6:	f000 fb77 	bl	8003be8 <finitef>
 80034fa:	2800      	cmp	r0, #0
 80034fc:	d067      	beq.n	80035ce <powf+0x246>
 80034fe:	ee18 0a90 	vmov	r0, s17
 8003502:	f7fc ffcd 	bl	80004a0 <__aeabi_f2d>
 8003506:	4680      	mov	r8, r0
 8003508:	ee18 0a10 	vmov	r0, s16
 800350c:	4689      	mov	r9, r1
 800350e:	f7fc ffc7 	bl	80004a0 <__aeabi_f2d>
 8003512:	eeb4 9a49 	vcmp.f32	s18, s18
 8003516:	eef1 fa10 	vmrs	APSR_nzcv, fpscr
 800351a:	f994 4000 	ldrsb.w	r4, [r4]
 800351e:	4b45      	ldr	r3, [pc, #276]	; (8003634 <powf+0x2ac>)
 8003520:	d713      	bvc.n	800354a <powf+0x1c2>
 8003522:	2201      	movs	r2, #1
 8003524:	e9cd 2300 	strd	r2, r3, [sp]
 8003528:	9508      	str	r5, [sp, #32]
 800352a:	e9cd 8902 	strd	r8, r9, [sp, #8]
 800352e:	e9cd 0104 	strd	r0, r1, [sp, #16]
 8003532:	2c00      	cmp	r4, #0
 8003534:	d0c2      	beq.n	80034bc <powf+0x134>
 8003536:	eec9 7aa9 	vdiv.f32	s15, s19, s19
 800353a:	ee17 0a90 	vmov	r0, s15
 800353e:	f7fc ffaf 	bl	80004a0 <__aeabi_f2d>
 8003542:	2c02      	cmp	r4, #2
 8003544:	e9cd 0106 	strd	r0, r1, [sp, #24]
 8003548:	e7c2      	b.n	80034d0 <powf+0x148>
 800354a:	2203      	movs	r2, #3
 800354c:	eef6 7a00 	vmov.f32	s15, #96	; 0x3f000000  0.5
 8003550:	e9cd 2300 	strd	r2, r3, [sp]
 8003554:	9508      	str	r5, [sp, #32]
 8003556:	e9cd 8902 	strd	r8, r9, [sp, #8]
 800355a:	e9cd 0104 	strd	r0, r1, [sp, #16]
 800355e:	ee28 8a27 	vmul.f32	s16, s16, s15
 8003562:	b9fc      	cbnz	r4, 80035a4 <powf+0x21c>
 8003564:	4b37      	ldr	r3, [pc, #220]	; (8003644 <powf+0x2bc>)
 8003566:	eef5 8ac0 	vcmpe.f32	s17, #0.0
 800356a:	f04f 4260 	mov.w	r2, #3758096384	; 0xe0000000
 800356e:	eef1 fa10 	vmrs	APSR_nzcv, fpscr
 8003572:	e9cd 2306 	strd	r2, r3, [sp, #24]
 8003576:	d553      	bpl.n	8003620 <powf+0x298>
 8003578:	eeb0 0a48 	vmov.f32	s0, s16
 800357c:	f000 fb44 	bl	8003c08 <rintf>
 8003580:	eeb4 0a48 	vcmp.f32	s0, s16
 8003584:	eef1 fa10 	vmrs	APSR_nzcv, fpscr
 8003588:	d004      	beq.n	8003594 <powf+0x20c>
 800358a:	4b2f      	ldr	r3, [pc, #188]	; (8003648 <powf+0x2c0>)
 800358c:	f04f 4260 	mov.w	r2, #3758096384	; 0xe0000000
 8003590:	e9cd 2306 	strd	r2, r3, [sp, #24]
 8003594:	f996 3000 	ldrsb.w	r3, [r6]
 8003598:	2b02      	cmp	r3, #2
 800359a:	d141      	bne.n	8003620 <powf+0x298>
 800359c:	f7ff fec2 	bl	8003324 <__errno>
 80035a0:	2322      	movs	r3, #34	; 0x22
 80035a2:	e799      	b.n	80034d8 <powf+0x150>
 80035a4:	4b29      	ldr	r3, [pc, #164]	; (800364c <powf+0x2c4>)
 80035a6:	eef5 8ac0 	vcmpe.f32	s17, #0.0
 80035aa:	2200      	movs	r2, #0
 80035ac:	eef1 fa10 	vmrs	APSR_nzcv, fpscr
 80035b0:	e9cd 2306 	strd	r2, r3, [sp, #24]
 80035b4:	d5ee      	bpl.n	8003594 <powf+0x20c>
 80035b6:	eeb0 0a48 	vmov.f32	s0, s16
 80035ba:	f000 fb25 	bl	8003c08 <rintf>
 80035be:	eeb4 0a48 	vcmp.f32	s0, s16
 80035c2:	eef1 fa10 	vmrs	APSR_nzcv, fpscr
 80035c6:	d0e5      	beq.n	8003594 <powf+0x20c>
 80035c8:	2200      	movs	r2, #0
 80035ca:	4b1d      	ldr	r3, [pc, #116]	; (8003640 <powf+0x2b8>)
 80035cc:	e7e0      	b.n	8003590 <powf+0x208>
 80035ce:	eeb5 9a40 	vcmp.f32	s18, #0.0
 80035d2:	eef1 fa10 	vmrs	APSR_nzcv, fpscr
 80035d6:	f47f af4a 	bne.w	800346e <powf+0xe6>
 80035da:	eeb0 0a68 	vmov.f32	s0, s17
 80035de:	f000 fb03 	bl	8003be8 <finitef>
 80035e2:	2800      	cmp	r0, #0
 80035e4:	f43f af43 	beq.w	800346e <powf+0xe6>
 80035e8:	eeb0 0a48 	vmov.f32	s0, s16
 80035ec:	f000 fafc 	bl	8003be8 <finitef>
 80035f0:	2800      	cmp	r0, #0
 80035f2:	f43f af3c 	beq.w	800346e <powf+0xe6>
 80035f6:	2304      	movs	r3, #4
 80035f8:	9300      	str	r3, [sp, #0]
 80035fa:	4b0e      	ldr	r3, [pc, #56]	; (8003634 <powf+0x2ac>)
 80035fc:	9301      	str	r3, [sp, #4]
 80035fe:	ee18 0a90 	vmov	r0, s17
 8003602:	2300      	movs	r3, #0
 8003604:	9308      	str	r3, [sp, #32]
 8003606:	f7fc ff4b 	bl	80004a0 <__aeabi_f2d>
 800360a:	e9cd 0102 	strd	r0, r1, [sp, #8]
 800360e:	ee18 0a10 	vmov	r0, s16
 8003612:	f7fc ff45 	bl	80004a0 <__aeabi_f2d>
 8003616:	2200      	movs	r2, #0
 8003618:	e9cd 0104 	strd	r0, r1, [sp, #16]
 800361c:	2300      	movs	r3, #0
 800361e:	e7b7      	b.n	8003590 <powf+0x208>
 8003620:	4668      	mov	r0, sp
 8003622:	f000 fad8 	bl	8003bd6 <matherr>
 8003626:	2800      	cmp	r0, #0
 8003628:	f47f af15 	bne.w	8003456 <powf+0xce>
 800362c:	e7b6      	b.n	800359c <powf+0x214>
 800362e:	bf00      	nop
 8003630:	20000078 	.word	0x20000078
 8003634:	08003dcc 	.word	0x08003dcc
 8003638:	3ff00000 	.word	0x3ff00000
 800363c:	00000000 	.word	0x00000000
 8003640:	fff00000 	.word	0xfff00000
 8003644:	47efffff 	.word	0x47efffff
 8003648:	c7efffff 	.word	0xc7efffff
 800364c:	7ff00000 	.word	0x7ff00000

08003650 <__ieee754_powf>:
 8003650:	e92d 41f0 	stmdb	sp!, {r4, r5, r6, r7, r8, lr}
 8003654:	ee10 5a90 	vmov	r5, s1
 8003658:	f035 4700 	bics.w	r7, r5, #2147483648	; 0x80000000
 800365c:	ed2d 8b02 	vpush	{d8}
 8003660:	eeb0 8a40 	vmov.f32	s16, s0
 8003664:	eef0 8a60 	vmov.f32	s17, s1
 8003668:	f000 8293 	beq.w	8003b92 <__ieee754_powf+0x542>
 800366c:	ee10 8a10 	vmov	r8, s0
 8003670:	f028 4400 	bic.w	r4, r8, #2147483648	; 0x80000000
 8003674:	f1b4 4fff 	cmp.w	r4, #2139095040	; 0x7f800000
 8003678:	dc06      	bgt.n	8003688 <__ieee754_powf+0x38>
 800367a:	f1b7 4fff 	cmp.w	r7, #2139095040	; 0x7f800000
 800367e:	dd0a      	ble.n	8003696 <__ieee754_powf+0x46>
 8003680:	f1b4 5f7e 	cmp.w	r4, #1065353216	; 0x3f800000
 8003684:	f000 8285 	beq.w	8003b92 <__ieee754_powf+0x542>
 8003688:	ecbd 8b02 	vpop	{d8}
 800368c:	48d9      	ldr	r0, [pc, #868]	; (80039f4 <__ieee754_powf+0x3a4>)
 800368e:	e8bd 41f0 	ldmia.w	sp!, {r4, r5, r6, r7, r8, lr}
 8003692:	f000 bab3 	b.w	8003bfc <nanf>
 8003696:	f1b8 0f00 	cmp.w	r8, #0
 800369a:	da1d      	bge.n	80036d8 <__ieee754_powf+0x88>
 800369c:	f1b7 4f97 	cmp.w	r7, #1266679808	; 0x4b800000
 80036a0:	da2c      	bge.n	80036fc <__ieee754_powf+0xac>
 80036a2:	f1b7 5f7e 	cmp.w	r7, #1065353216	; 0x3f800000
 80036a6:	db30      	blt.n	800370a <__ieee754_powf+0xba>
 80036a8:	15fb      	asrs	r3, r7, #23
 80036aa:	f1c3 0396 	rsb	r3, r3, #150	; 0x96
 80036ae:	fa47 f603 	asr.w	r6, r7, r3
 80036b2:	fa06 f303 	lsl.w	r3, r6, r3
 80036b6:	42bb      	cmp	r3, r7
 80036b8:	d127      	bne.n	800370a <__ieee754_powf+0xba>
 80036ba:	f006 0601 	and.w	r6, r6, #1
 80036be:	f1c6 0602 	rsb	r6, r6, #2
 80036c2:	f1b7 5f7e 	cmp.w	r7, #1065353216	; 0x3f800000
 80036c6:	d122      	bne.n	800370e <__ieee754_powf+0xbe>
 80036c8:	2d00      	cmp	r5, #0
 80036ca:	f280 8268 	bge.w	8003b9e <__ieee754_powf+0x54e>
 80036ce:	eef7 7a00 	vmov.f32	s15, #112	; 0x3f800000  1.0
 80036d2:	ee87 0a88 	vdiv.f32	s0, s15, s16
 80036d6:	e00d      	b.n	80036f4 <__ieee754_powf+0xa4>
 80036d8:	2600      	movs	r6, #0
 80036da:	f1b7 4fff 	cmp.w	r7, #2139095040	; 0x7f800000
 80036de:	d1f0      	bne.n	80036c2 <__ieee754_powf+0x72>
 80036e0:	f1b4 5f7e 	cmp.w	r4, #1065353216	; 0x3f800000
 80036e4:	f000 8255 	beq.w	8003b92 <__ieee754_powf+0x542>
 80036e8:	dd0a      	ble.n	8003700 <__ieee754_powf+0xb0>
 80036ea:	2d00      	cmp	r5, #0
 80036ec:	f280 8254 	bge.w	8003b98 <__ieee754_powf+0x548>
 80036f0:	ed9f 0ac1 	vldr	s0, [pc, #772]	; 80039f8 <__ieee754_powf+0x3a8>
 80036f4:	ecbd 8b02 	vpop	{d8}
 80036f8:	e8bd 81f0 	ldmia.w	sp!, {r4, r5, r6, r7, r8, pc}
 80036fc:	2602      	movs	r6, #2
 80036fe:	e7ec      	b.n	80036da <__ieee754_powf+0x8a>
 8003700:	2d00      	cmp	r5, #0
 8003702:	daf5      	bge.n	80036f0 <__ieee754_powf+0xa0>
 8003704:	eeb1 0a68 	vneg.f32	s0, s17
 8003708:	e7f4      	b.n	80036f4 <__ieee754_powf+0xa4>
 800370a:	2600      	movs	r6, #0
 800370c:	e7d9      	b.n	80036c2 <__ieee754_powf+0x72>
 800370e:	f1b5 4f80 	cmp.w	r5, #1073741824	; 0x40000000
 8003712:	d102      	bne.n	800371a <__ieee754_powf+0xca>
 8003714:	ee28 0a08 	vmul.f32	s0, s16, s16
 8003718:	e7ec      	b.n	80036f4 <__ieee754_powf+0xa4>
 800371a:	f1b5 5f7c 	cmp.w	r5, #1056964608	; 0x3f000000
 800371e:	eeb0 0a48 	vmov.f32	s0, s16
 8003722:	d108      	bne.n	8003736 <__ieee754_powf+0xe6>
 8003724:	f1b8 0f00 	cmp.w	r8, #0
 8003728:	db05      	blt.n	8003736 <__ieee754_powf+0xe6>
 800372a:	ecbd 8b02 	vpop	{d8}
 800372e:	e8bd 41f0 	ldmia.w	sp!, {r4, r5, r6, r7, r8, lr}
 8003732:	f000 ba4d 	b.w	8003bd0 <__ieee754_sqrtf>
 8003736:	f000 fa50 	bl	8003bda <fabsf>
 800373a:	b124      	cbz	r4, 8003746 <__ieee754_powf+0xf6>
 800373c:	f028 4340 	bic.w	r3, r8, #3221225472	; 0xc0000000
 8003740:	f1b3 5f7e 	cmp.w	r3, #1065353216	; 0x3f800000
 8003744:	d117      	bne.n	8003776 <__ieee754_powf+0x126>
 8003746:	2d00      	cmp	r5, #0
 8003748:	bfbc      	itt	lt
 800374a:	eef7 7a00 	vmovlt.f32	s15, #112	; 0x3f800000  1.0
 800374e:	ee87 0a80 	vdivlt.f32	s0, s15, s0
 8003752:	f1b8 0f00 	cmp.w	r8, #0
 8003756:	dacd      	bge.n	80036f4 <__ieee754_powf+0xa4>
 8003758:	f1a4 547e 	sub.w	r4, r4, #1065353216	; 0x3f800000
 800375c:	ea54 0306 	orrs.w	r3, r4, r6
 8003760:	d104      	bne.n	800376c <__ieee754_powf+0x11c>
 8003762:	ee70 7a40 	vsub.f32	s15, s0, s0
 8003766:	ee87 0aa7 	vdiv.f32	s0, s15, s15
 800376a:	e7c3      	b.n	80036f4 <__ieee754_powf+0xa4>
 800376c:	2e01      	cmp	r6, #1
 800376e:	d1c1      	bne.n	80036f4 <__ieee754_powf+0xa4>
 8003770:	eeb1 0a40 	vneg.f32	s0, s0
 8003774:	e7be      	b.n	80036f4 <__ieee754_powf+0xa4>
 8003776:	ea4f 70d8 	mov.w	r0, r8, lsr #31
 800377a:	3801      	subs	r0, #1
 800377c:	ea56 0300 	orrs.w	r3, r6, r0
 8003780:	d104      	bne.n	800378c <__ieee754_powf+0x13c>
 8003782:	ee38 8a48 	vsub.f32	s16, s16, s16
 8003786:	ee88 0a08 	vdiv.f32	s0, s16, s16
 800378a:	e7b3      	b.n	80036f4 <__ieee754_powf+0xa4>
 800378c:	f1b7 4f9a 	cmp.w	r7, #1291845632	; 0x4d000000
 8003790:	dd6d      	ble.n	800386e <__ieee754_powf+0x21e>
 8003792:	4b9a      	ldr	r3, [pc, #616]	; (80039fc <__ieee754_powf+0x3ac>)
 8003794:	429c      	cmp	r4, r3
 8003796:	dc06      	bgt.n	80037a6 <__ieee754_powf+0x156>
 8003798:	2d00      	cmp	r5, #0
 800379a:	daa9      	bge.n	80036f0 <__ieee754_powf+0xa0>
 800379c:	ed9f 0a98 	vldr	s0, [pc, #608]	; 8003a00 <__ieee754_powf+0x3b0>
 80037a0:	ee20 0a00 	vmul.f32	s0, s0, s0
 80037a4:	e7a6      	b.n	80036f4 <__ieee754_powf+0xa4>
 80037a6:	4b97      	ldr	r3, [pc, #604]	; (8003a04 <__ieee754_powf+0x3b4>)
 80037a8:	429c      	cmp	r4, r3
 80037aa:	dd02      	ble.n	80037b2 <__ieee754_powf+0x162>
 80037ac:	2d00      	cmp	r5, #0
 80037ae:	dcf5      	bgt.n	800379c <__ieee754_powf+0x14c>
 80037b0:	e79e      	b.n	80036f0 <__ieee754_powf+0xa0>
 80037b2:	eef7 7a00 	vmov.f32	s15, #112	; 0x3f800000  1.0
 80037b6:	ee30 0a67 	vsub.f32	s0, s0, s15
 80037ba:	ed9f 7a93 	vldr	s14, [pc, #588]	; 8003a08 <__ieee754_powf+0x3b8>
 80037be:	eef1 6a40 	vneg.f32	s13, s0
 80037c2:	eef5 7a00 	vmov.f32	s15, #80	; 0x3e800000  0.250
 80037c6:	eea6 7aa7 	vfma.f32	s14, s13, s15
 80037ca:	eef6 7a00 	vmov.f32	s15, #96	; 0x3f000000  0.5
 80037ce:	eee7 7a40 	vfms.f32	s15, s14, s0
 80037d2:	ee60 0a00 	vmul.f32	s1, s0, s0
 80037d6:	ed9f 7a8d 	vldr	s14, [pc, #564]	; 8003a0c <__ieee754_powf+0x3bc>
 80037da:	ee67 0aa0 	vmul.f32	s1, s15, s1
 80037de:	eddf 7a8c 	vldr	s15, [pc, #560]	; 8003a10 <__ieee754_powf+0x3c0>
 80037e2:	ee67 7ae0 	vnmul.f32	s15, s15, s1
 80037e6:	eee0 7a07 	vfma.f32	s15, s0, s14
 80037ea:	ed9f 7a8a 	vldr	s14, [pc, #552]	; 8003a14 <__ieee754_powf+0x3c4>
 80037ee:	eeb0 6a67 	vmov.f32	s12, s15
 80037f2:	eea0 6a07 	vfma.f32	s12, s0, s14
 80037f6:	ee16 3a10 	vmov	r3, s12
 80037fa:	f423 637f 	bic.w	r3, r3, #4080	; 0xff0
 80037fe:	f023 030f 	bic.w	r3, r3, #15
 8003802:	ee00 3a90 	vmov	s1, r3
 8003806:	eee6 0a87 	vfma.f32	s1, s13, s14
 800380a:	ee77 7ae0 	vsub.f32	s15, s15, s1
 800380e:	f425 657f 	bic.w	r5, r5, #4080	; 0xff0
 8003812:	f025 050f 	bic.w	r5, r5, #15
 8003816:	ee07 5a10 	vmov	s14, r5
 800381a:	ee67 0aa8 	vmul.f32	s1, s15, s17
 800381e:	ee38 7ac7 	vsub.f32	s14, s17, s14
 8003822:	ee07 3a90 	vmov	s15, r3
 8003826:	eee7 0a27 	vfma.f32	s1, s14, s15
 800382a:	3e01      	subs	r6, #1
 800382c:	ea56 0200 	orrs.w	r2, r6, r0
 8003830:	ee07 5a10 	vmov	s14, r5
 8003834:	ee67 7a87 	vmul.f32	s15, s15, s14
 8003838:	eeb7 8a00 	vmov.f32	s16, #112	; 0x3f800000  1.0
 800383c:	ee30 7aa7 	vadd.f32	s14, s1, s15
 8003840:	eebf 0a00 	vmov.f32	s0, #240	; 0xbf800000 -1.0
 8003844:	ee17 4a10 	vmov	r4, s14
 8003848:	bf08      	it	eq
 800384a:	eeb0 8a40 	vmoveq.f32	s16, s0
 800384e:	2c00      	cmp	r4, #0
 8003850:	f024 4300 	bic.w	r3, r4, #2147483648	; 0x80000000
 8003854:	f340 8184 	ble.w	8003b60 <__ieee754_powf+0x510>
 8003858:	f1b3 4f86 	cmp.w	r3, #1124073472	; 0x43000000
 800385c:	f340 80fc 	ble.w	8003a58 <__ieee754_powf+0x408>
 8003860:	eddf 7a67 	vldr	s15, [pc, #412]	; 8003a00 <__ieee754_powf+0x3b0>
 8003864:	ee28 0a27 	vmul.f32	s0, s16, s15
 8003868:	ee20 0a27 	vmul.f32	s0, s0, s15
 800386c:	e742      	b.n	80036f4 <__ieee754_powf+0xa4>
 800386e:	f5b4 0f00 	cmp.w	r4, #8388608	; 0x800000
 8003872:	bfbf      	itttt	lt
 8003874:	eddf 7a68 	vldrlt	s15, [pc, #416]	; 8003a18 <__ieee754_powf+0x3c8>
 8003878:	ee60 7a27 	vmullt.f32	s15, s0, s15
 800387c:	f06f 0217 	mvnlt.w	r2, #23
 8003880:	ee17 4a90 	vmovlt	r4, s15
 8003884:	ea4f 53e4 	mov.w	r3, r4, asr #23
 8003888:	bfa8      	it	ge
 800388a:	2200      	movge	r2, #0
 800388c:	3b7f      	subs	r3, #127	; 0x7f
 800388e:	4413      	add	r3, r2
 8003890:	4a62      	ldr	r2, [pc, #392]	; (8003a1c <__ieee754_powf+0x3cc>)
 8003892:	f3c4 0416 	ubfx	r4, r4, #0, #23
 8003896:	4294      	cmp	r4, r2
 8003898:	f044 517e 	orr.w	r1, r4, #1065353216	; 0x3f800000
 800389c:	dd06      	ble.n	80038ac <__ieee754_powf+0x25c>
 800389e:	4a60      	ldr	r2, [pc, #384]	; (8003a20 <__ieee754_powf+0x3d0>)
 80038a0:	4294      	cmp	r4, r2
 80038a2:	f340 80a5 	ble.w	80039f0 <__ieee754_powf+0x3a0>
 80038a6:	3301      	adds	r3, #1
 80038a8:	f5a1 0100 	sub.w	r1, r1, #8388608	; 0x800000
 80038ac:	2400      	movs	r4, #0
 80038ae:	4a5d      	ldr	r2, [pc, #372]	; (8003a24 <__ieee754_powf+0x3d4>)
 80038b0:	00a7      	lsls	r7, r4, #2
 80038b2:	443a      	add	r2, r7
 80038b4:	ee07 1a90 	vmov	s15, r1
 80038b8:	ed92 7a00 	vldr	s14, [r2]
 80038bc:	4a5a      	ldr	r2, [pc, #360]	; (8003a28 <__ieee754_powf+0x3d8>)
 80038be:	ee37 6a27 	vadd.f32	s12, s14, s15
 80038c2:	eeb7 5a00 	vmov.f32	s10, #112	; 0x3f800000  1.0
 80038c6:	eec5 6a06 	vdiv.f32	s13, s10, s12
 80038ca:	1049      	asrs	r1, r1, #1
 80038cc:	f041 5100 	orr.w	r1, r1, #536870912	; 0x20000000
 80038d0:	f501 2180 	add.w	r1, r1, #262144	; 0x40000
 80038d4:	eb01 5144 	add.w	r1, r1, r4, lsl #21
 80038d8:	ee77 5ac7 	vsub.f32	s11, s15, s14
 80038dc:	ee06 1a10 	vmov	s12, r1
 80038e0:	ee65 4aa6 	vmul.f32	s9, s11, s13
 80038e4:	ee14 ca90 	vmov	ip, s9
 80038e8:	ea02 0c0c 	and.w	ip, r2, ip
 80038ec:	ee05 ca10 	vmov	s10, ip
 80038f0:	eeb1 4a45 	vneg.f32	s8, s10
 80038f4:	eee4 5a06 	vfma.f32	s11, s8, s12
 80038f8:	ee36 6a47 	vsub.f32	s12, s12, s14
 80038fc:	ed9f 7a4b 	vldr	s14, [pc, #300]	; 8003a2c <__ieee754_powf+0x3dc>
 8003900:	ee37 6ac6 	vsub.f32	s12, s15, s12
 8003904:	ee64 7aa4 	vmul.f32	s15, s9, s9
 8003908:	eee4 5a06 	vfma.f32	s11, s8, s12
 800390c:	ee67 3aa7 	vmul.f32	s7, s15, s15
 8003910:	ee25 6aa6 	vmul.f32	s12, s11, s13
 8003914:	eddf 5a46 	vldr	s11, [pc, #280]	; 8003a30 <__ieee754_powf+0x3e0>
 8003918:	eea7 7aa5 	vfma.f32	s14, s15, s11
 800391c:	eddf 5a45 	vldr	s11, [pc, #276]	; 8003a34 <__ieee754_powf+0x3e4>
 8003920:	eee7 5a27 	vfma.f32	s11, s14, s15
 8003924:	ed9f 7a38 	vldr	s14, [pc, #224]	; 8003a08 <__ieee754_powf+0x3b8>
 8003928:	eea5 7aa7 	vfma.f32	s14, s11, s15
 800392c:	eddf 5a42 	vldr	s11, [pc, #264]	; 8003a38 <__ieee754_powf+0x3e8>
 8003930:	eee7 5a27 	vfma.f32	s11, s14, s15
 8003934:	ed9f 7a41 	vldr	s14, [pc, #260]	; 8003a3c <__ieee754_powf+0x3ec>
 8003938:	ee75 6a24 	vadd.f32	s13, s10, s9
 800393c:	eea5 7aa7 	vfma.f32	s14, s11, s15
 8003940:	ee66 6a86 	vmul.f32	s13, s13, s12
 8003944:	eef0 5a08 	vmov.f32	s11, #8	; 0x40400000  3.0
 8003948:	eef0 7a65 	vmov.f32	s15, s11
 800394c:	eee3 6a87 	vfma.f32	s13, s7, s14
 8003950:	eee5 7a05 	vfma.f32	s15, s10, s10
 8003954:	ee77 7aa6 	vadd.f32	s15, s15, s13
 8003958:	ee17 1a90 	vmov	r1, s15
 800395c:	4011      	ands	r1, r2
 800395e:	ee07 1a90 	vmov	s15, r1
 8003962:	ee37 7ae5 	vsub.f32	s14, s15, s11
 8003966:	eddf 5a36 	vldr	s11, [pc, #216]	; 8003a40 <__ieee754_powf+0x3f0>
 800396a:	eea4 7a05 	vfma.f32	s14, s8, s10
 800396e:	ee36 7ac7 	vsub.f32	s14, s13, s14
 8003972:	ee27 7a24 	vmul.f32	s14, s14, s9
 8003976:	eea7 7a86 	vfma.f32	s14, s15, s12
 800397a:	eeb0 6a47 	vmov.f32	s12, s14
 800397e:	eea5 6a27 	vfma.f32	s12, s10, s15
 8003982:	ee16 1a10 	vmov	r1, s12
 8003986:	4011      	ands	r1, r2
 8003988:	ee06 1a90 	vmov	s13, r1
 800398c:	eee4 6a27 	vfma.f32	s13, s8, s15
 8003990:	eddf 7a2c 	vldr	s15, [pc, #176]	; 8003a44 <__ieee754_powf+0x3f4>
 8003994:	ee37 7a66 	vsub.f32	s14, s14, s13
 8003998:	ee06 1a10 	vmov	s12, r1
 800399c:	ee27 7a27 	vmul.f32	s14, s14, s15
 80039a0:	eddf 7a29 	vldr	s15, [pc, #164]	; 8003a48 <__ieee754_powf+0x3f8>
 80039a4:	4929      	ldr	r1, [pc, #164]	; (8003a4c <__ieee754_powf+0x3fc>)
 80039a6:	eea6 7a27 	vfma.f32	s14, s12, s15
 80039aa:	4439      	add	r1, r7
 80039ac:	edd1 7a00 	vldr	s15, [r1]
 80039b0:	ee37 7a27 	vadd.f32	s14, s14, s15
 80039b4:	ee07 3a90 	vmov	s15, r3
 80039b8:	eef0 0a47 	vmov.f32	s1, s14
 80039bc:	4b24      	ldr	r3, [pc, #144]	; (8003a50 <__ieee754_powf+0x400>)
 80039be:	eee6 0a25 	vfma.f32	s1, s12, s11
 80039c2:	443b      	add	r3, r7
 80039c4:	ed93 5a00 	vldr	s10, [r3]
 80039c8:	eef8 6ae7 	vcvt.f32.s32	s13, s15
 80039cc:	ee70 0a85 	vadd.f32	s1, s1, s10
 80039d0:	ee70 7aa6 	vadd.f32	s15, s1, s13
 80039d4:	ee17 3a90 	vmov	r3, s15
 80039d8:	4013      	ands	r3, r2
 80039da:	ee07 3a90 	vmov	s15, r3
 80039de:	ee77 7ae6 	vsub.f32	s15, s15, s13
 80039e2:	ee77 7ac5 	vsub.f32	s15, s15, s10
 80039e6:	eee6 7a65 	vfms.f32	s15, s12, s11
 80039ea:	ee77 7a67 	vsub.f32	s15, s14, s15
 80039ee:	e70e      	b.n	800380e <__ieee754_powf+0x1be>
 80039f0:	2401      	movs	r4, #1
 80039f2:	e75c      	b.n	80038ae <__ieee754_powf+0x25e>
 80039f4:	08003dd0 	.word	0x08003dd0
 80039f8:	00000000 	.word	0x00000000
 80039fc:	3f7ffff7 	.word	0x3f7ffff7
 8003a00:	7149f2ca 	.word	0x7149f2ca
 8003a04:	3f800007 	.word	0x3f800007
 8003a08:	3eaaaaab 	.word	0x3eaaaaab
 8003a0c:	36eca570 	.word	0x36eca570
 8003a10:	3fb8aa3b 	.word	0x3fb8aa3b
 8003a14:	3fb8aa00 	.word	0x3fb8aa00
 8003a18:	4b800000 	.word	0x4b800000
 8003a1c:	001cc471 	.word	0x001cc471
 8003a20:	005db3d6 	.word	0x005db3d6
 8003a24:	08003dd4 	.word	0x08003dd4
 8003a28:	fffff000 	.word	0xfffff000
 8003a2c:	3e6c3255 	.word	0x3e6c3255
 8003a30:	3e53f142 	.word	0x3e53f142
 8003a34:	3e8ba305 	.word	0x3e8ba305
 8003a38:	3edb6db7 	.word	0x3edb6db7
 8003a3c:	3f19999a 	.word	0x3f19999a
 8003a40:	3f763800 	.word	0x3f763800
 8003a44:	3f76384f 	.word	0x3f76384f
 8003a48:	369dc3a0 	.word	0x369dc3a0
 8003a4c:	08003de4 	.word	0x08003de4
 8003a50:	08003ddc 	.word	0x08003ddc
 8003a54:	3338aa3c 	.word	0x3338aa3c
 8003a58:	f040 8092 	bne.w	8003b80 <__ieee754_powf+0x530>
 8003a5c:	ed5f 6a03 	vldr	s13, [pc, #-12]	; 8003a54 <__ieee754_powf+0x404>
 8003a60:	ee37 7a67 	vsub.f32	s14, s14, s15
 8003a64:	ee70 6aa6 	vadd.f32	s13, s1, s13
 8003a68:	eef4 6ac7 	vcmpe.f32	s13, s14
 8003a6c:	eef1 fa10 	vmrs	APSR_nzcv, fpscr
 8003a70:	f73f aef6 	bgt.w	8003860 <__ieee754_powf+0x210>
 8003a74:	15db      	asrs	r3, r3, #23
 8003a76:	f1a3 007e 	sub.w	r0, r3, #126	; 0x7e
 8003a7a:	f44f 0300 	mov.w	r3, #8388608	; 0x800000
 8003a7e:	4103      	asrs	r3, r0
 8003a80:	4423      	add	r3, r4
 8003a82:	f3c3 52c7 	ubfx	r2, r3, #23, #8
 8003a86:	4947      	ldr	r1, [pc, #284]	; (8003ba4 <__ieee754_powf+0x554>)
 8003a88:	3a7f      	subs	r2, #127	; 0x7f
 8003a8a:	4111      	asrs	r1, r2
 8003a8c:	ea23 0101 	bic.w	r1, r3, r1
 8003a90:	f3c3 0016 	ubfx	r0, r3, #0, #23
 8003a94:	ee07 1a10 	vmov	s14, r1
 8003a98:	f440 0000 	orr.w	r0, r0, #8388608	; 0x800000
 8003a9c:	f1c2 0217 	rsb	r2, r2, #23
 8003aa0:	4110      	asrs	r0, r2
 8003aa2:	2c00      	cmp	r4, #0
 8003aa4:	ee77 7ac7 	vsub.f32	s15, s15, s14
 8003aa8:	bfb8      	it	lt
 8003aaa:	4240      	neglt	r0, r0
 8003aac:	ee37 7aa0 	vadd.f32	s14, s15, s1
 8003ab0:	eddf 6a3d 	vldr	s13, [pc, #244]	; 8003ba8 <__ieee754_powf+0x558>
 8003ab4:	ee17 3a10 	vmov	r3, s14
 8003ab8:	f423 637f 	bic.w	r3, r3, #4080	; 0xff0
 8003abc:	f023 030f 	bic.w	r3, r3, #15
 8003ac0:	ee07 3a10 	vmov	s14, r3
 8003ac4:	ee77 7a67 	vsub.f32	s15, s14, s15
 8003ac8:	ee70 0ae7 	vsub.f32	s1, s1, s15
 8003acc:	eddf 7a37 	vldr	s15, [pc, #220]	; 8003bac <__ieee754_powf+0x55c>
 8003ad0:	ee67 7a27 	vmul.f32	s15, s14, s15
 8003ad4:	eee0 7aa6 	vfma.f32	s15, s1, s13
 8003ad8:	eddf 6a35 	vldr	s13, [pc, #212]	; 8003bb0 <__ieee754_powf+0x560>
 8003adc:	eeb0 0a67 	vmov.f32	s0, s15
 8003ae0:	eea7 0a26 	vfma.f32	s0, s14, s13
 8003ae4:	eeb0 6a40 	vmov.f32	s12, s0
 8003ae8:	eea7 6a66 	vfms.f32	s12, s14, s13
 8003aec:	ee20 7a00 	vmul.f32	s14, s0, s0
 8003af0:	ee77 7ac6 	vsub.f32	s15, s15, s12
 8003af4:	eddf 6a2f 	vldr	s13, [pc, #188]	; 8003bb4 <__ieee754_powf+0x564>
 8003af8:	ed9f 6a2f 	vldr	s12, [pc, #188]	; 8003bb8 <__ieee754_powf+0x568>
 8003afc:	eea7 6a26 	vfma.f32	s12, s14, s13
 8003b00:	eddf 6a2e 	vldr	s13, [pc, #184]	; 8003bbc <__ieee754_powf+0x56c>
 8003b04:	eee6 6a07 	vfma.f32	s13, s12, s14
 8003b08:	ed9f 6a2d 	vldr	s12, [pc, #180]	; 8003bc0 <__ieee754_powf+0x570>
 8003b0c:	eea6 6a87 	vfma.f32	s12, s13, s14
 8003b10:	eddf 6a2c 	vldr	s13, [pc, #176]	; 8003bc4 <__ieee754_powf+0x574>
 8003b14:	eee6 6a07 	vfma.f32	s13, s12, s14
 8003b18:	eeb0 6a40 	vmov.f32	s12, s0
 8003b1c:	eea6 6ac7 	vfms.f32	s12, s13, s14
 8003b20:	eef0 6a00 	vmov.f32	s13, #0	; 0x40000000  2.0
 8003b24:	eeb0 7a46 	vmov.f32	s14, s12
 8003b28:	ee77 6a66 	vsub.f32	s13, s14, s13
 8003b2c:	ee20 6a06 	vmul.f32	s12, s0, s12
 8003b30:	eee0 7a27 	vfma.f32	s15, s0, s15
 8003b34:	ee86 7a26 	vdiv.f32	s14, s12, s13
 8003b38:	ee77 7a67 	vsub.f32	s15, s14, s15
 8003b3c:	ee37 0ac0 	vsub.f32	s0, s15, s0
 8003b40:	eef7 7a00 	vmov.f32	s15, #112	; 0x3f800000  1.0
 8003b44:	ee37 0ac0 	vsub.f32	s0, s15, s0
 8003b48:	ee10 3a10 	vmov	r3, s0
 8003b4c:	eb03 53c0 	add.w	r3, r3, r0, lsl #23
 8003b50:	f5b3 0f00 	cmp.w	r3, #8388608	; 0x800000
 8003b54:	da1a      	bge.n	8003b8c <__ieee754_powf+0x53c>
 8003b56:	f000 f8b1 	bl	8003cbc <scalbnf>
 8003b5a:	ee20 0a08 	vmul.f32	s0, s0, s16
 8003b5e:	e5c9      	b.n	80036f4 <__ieee754_powf+0xa4>
 8003b60:	4a19      	ldr	r2, [pc, #100]	; (8003bc8 <__ieee754_powf+0x578>)
 8003b62:	4293      	cmp	r3, r2
 8003b64:	dd02      	ble.n	8003b6c <__ieee754_powf+0x51c>
 8003b66:	eddf 7a19 	vldr	s15, [pc, #100]	; 8003bcc <__ieee754_powf+0x57c>
 8003b6a:	e67b      	b.n	8003864 <__ieee754_powf+0x214>
 8003b6c:	d108      	bne.n	8003b80 <__ieee754_powf+0x530>
 8003b6e:	ee37 7a67 	vsub.f32	s14, s14, s15
 8003b72:	eeb4 7ae0 	vcmpe.f32	s14, s1
 8003b76:	eef1 fa10 	vmrs	APSR_nzcv, fpscr
 8003b7a:	f6ff af7b 	blt.w	8003a74 <__ieee754_powf+0x424>
 8003b7e:	e7f2      	b.n	8003b66 <__ieee754_powf+0x516>
 8003b80:	f1b3 5f7c 	cmp.w	r3, #1056964608	; 0x3f000000
 8003b84:	f73f af76 	bgt.w	8003a74 <__ieee754_powf+0x424>
 8003b88:	2000      	movs	r0, #0
 8003b8a:	e78f      	b.n	8003aac <__ieee754_powf+0x45c>
 8003b8c:	ee00 3a10 	vmov	s0, r3
 8003b90:	e7e3      	b.n	8003b5a <__ieee754_powf+0x50a>
 8003b92:	eeb7 0a00 	vmov.f32	s0, #112	; 0x3f800000  1.0
 8003b96:	e5ad      	b.n	80036f4 <__ieee754_powf+0xa4>
 8003b98:	eeb0 0a68 	vmov.f32	s0, s17
 8003b9c:	e5aa      	b.n	80036f4 <__ieee754_powf+0xa4>
 8003b9e:	eeb0 0a48 	vmov.f32	s0, s16
 8003ba2:	e5a7      	b.n	80036f4 <__ieee754_powf+0xa4>
 8003ba4:	007fffff 	.word	0x007fffff
 8003ba8:	3f317218 	.word	0x3f317218
 8003bac:	35bfbe8c 	.word	0x35bfbe8c
 8003bb0:	3f317200 	.word	0x3f317200
 8003bb4:	3331bb4c 	.word	0x3331bb4c
 8003bb8:	b5ddea0e 	.word	0xb5ddea0e
 8003bbc:	388ab355 	.word	0x388ab355
 8003bc0:	bb360b61 	.word	0xbb360b61
 8003bc4:	3e2aaaab 	.word	0x3e2aaaab
 8003bc8:	43160000 	.word	0x43160000
 8003bcc:	0da24260 	.word	0x0da24260

08003bd0 <__ieee754_sqrtf>:
 8003bd0:	eeb1 0ac0 	vsqrt.f32	s0, s0
 8003bd4:	4770      	bx	lr

08003bd6 <matherr>:
 8003bd6:	2000      	movs	r0, #0
 8003bd8:	4770      	bx	lr

08003bda <fabsf>:
 8003bda:	ee10 3a10 	vmov	r3, s0
 8003bde:	f023 4300 	bic.w	r3, r3, #2147483648	; 0x80000000
 8003be2:	ee00 3a10 	vmov	s0, r3
 8003be6:	4770      	bx	lr

08003be8 <finitef>:
 8003be8:	ee10 3a10 	vmov	r3, s0
 8003bec:	f023 4000 	bic.w	r0, r3, #2147483648	; 0x80000000
 8003bf0:	f1b0 4fff 	cmp.w	r0, #2139095040	; 0x7f800000
 8003bf4:	bfac      	ite	ge
 8003bf6:	2000      	movge	r0, #0
 8003bf8:	2001      	movlt	r0, #1
 8003bfa:	4770      	bx	lr

08003bfc <nanf>:
 8003bfc:	ed9f 0a01 	vldr	s0, [pc, #4]	; 8003c04 <nanf+0x8>
 8003c00:	4770      	bx	lr
 8003c02:	bf00      	nop
 8003c04:	7fc00000 	.word	0x7fc00000

08003c08 <rintf>:
 8003c08:	b513      	push	{r0, r1, r4, lr}
 8003c0a:	ee10 1a10 	vmov	r1, s0
 8003c0e:	f021 4300 	bic.w	r3, r1, #2147483648	; 0x80000000
 8003c12:	0ddc      	lsrs	r4, r3, #23
 8003c14:	3c7f      	subs	r4, #127	; 0x7f
 8003c16:	2c16      	cmp	r4, #22
 8003c18:	dc46      	bgt.n	8003ca8 <rintf+0xa0>
 8003c1a:	b32b      	cbz	r3, 8003c68 <rintf+0x60>
 8003c1c:	2c00      	cmp	r4, #0
 8003c1e:	ee10 2a10 	vmov	r2, s0
 8003c22:	ea4f 70d1 	mov.w	r0, r1, lsr #31
 8003c26:	da21      	bge.n	8003c6c <rintf+0x64>
 8003c28:	f3c1 0316 	ubfx	r3, r1, #0, #23
 8003c2c:	425b      	negs	r3, r3
 8003c2e:	4a21      	ldr	r2, [pc, #132]	; (8003cb4 <rintf+0xac>)
 8003c30:	0a5b      	lsrs	r3, r3, #9
 8003c32:	0d09      	lsrs	r1, r1, #20
 8003c34:	f403 0380 	and.w	r3, r3, #4194304	; 0x400000
 8003c38:	0509      	lsls	r1, r1, #20
 8003c3a:	430b      	orrs	r3, r1
 8003c3c:	eb02 0280 	add.w	r2, r2, r0, lsl #2
 8003c40:	ee07 3a90 	vmov	s15, r3
 8003c44:	edd2 6a00 	vldr	s13, [r2]
 8003c48:	ee36 7aa7 	vadd.f32	s14, s13, s15
 8003c4c:	ed8d 7a01 	vstr	s14, [sp, #4]
 8003c50:	eddd 7a01 	vldr	s15, [sp, #4]
 8003c54:	ee77 7ae6 	vsub.f32	s15, s15, s13
 8003c58:	ee17 3a90 	vmov	r3, s15
 8003c5c:	f023 4300 	bic.w	r3, r3, #2147483648	; 0x80000000
 8003c60:	ea43 73c0 	orr.w	r3, r3, r0, lsl #31
 8003c64:	ee00 3a10 	vmov	s0, r3
 8003c68:	b002      	add	sp, #8
 8003c6a:	bd10      	pop	{r4, pc}
 8003c6c:	4b12      	ldr	r3, [pc, #72]	; (8003cb8 <rintf+0xb0>)
 8003c6e:	4123      	asrs	r3, r4
 8003c70:	4219      	tst	r1, r3
 8003c72:	d0f9      	beq.n	8003c68 <rintf+0x60>
 8003c74:	085b      	lsrs	r3, r3, #1
 8003c76:	4219      	tst	r1, r3
 8003c78:	d006      	beq.n	8003c88 <rintf+0x80>
 8003c7a:	ea21 0203 	bic.w	r2, r1, r3
 8003c7e:	f44f 1300 	mov.w	r3, #2097152	; 0x200000
 8003c82:	fa43 f404 	asr.w	r4, r3, r4
 8003c86:	4322      	orrs	r2, r4
 8003c88:	4b0a      	ldr	r3, [pc, #40]	; (8003cb4 <rintf+0xac>)
 8003c8a:	eb03 0080 	add.w	r0, r3, r0, lsl #2
 8003c8e:	ed90 7a00 	vldr	s14, [r0]
 8003c92:	ee07 2a90 	vmov	s15, r2
 8003c96:	ee77 7a27 	vadd.f32	s15, s14, s15
 8003c9a:	edcd 7a01 	vstr	s15, [sp, #4]
 8003c9e:	ed9d 0a01 	vldr	s0, [sp, #4]
 8003ca2:	ee30 0a47 	vsub.f32	s0, s0, s14
 8003ca6:	e7df      	b.n	8003c68 <rintf+0x60>
 8003ca8:	f1b3 4fff 	cmp.w	r3, #2139095040	; 0x7f800000
 8003cac:	d3dc      	bcc.n	8003c68 <rintf+0x60>
 8003cae:	ee30 0a00 	vadd.f32	s0, s0, s0
 8003cb2:	e7d9      	b.n	8003c68 <rintf+0x60>
 8003cb4:	08003dec 	.word	0x08003dec
 8003cb8:	007fffff 	.word	0x007fffff

08003cbc <scalbnf>:
 8003cbc:	b508      	push	{r3, lr}
 8003cbe:	ee10 2a10 	vmov	r2, s0
 8003cc2:	f032 4300 	bics.w	r3, r2, #2147483648	; 0x80000000
 8003cc6:	ed2d 8b02 	vpush	{d8}
 8003cca:	eef0 0a40 	vmov.f32	s1, s0
 8003cce:	d004      	beq.n	8003cda <scalbnf+0x1e>
 8003cd0:	f1b3 4fff 	cmp.w	r3, #2139095040	; 0x7f800000
 8003cd4:	d306      	bcc.n	8003ce4 <scalbnf+0x28>
 8003cd6:	ee70 0a00 	vadd.f32	s1, s0, s0
 8003cda:	ecbd 8b02 	vpop	{d8}
 8003cde:	eeb0 0a60 	vmov.f32	s0, s1
 8003ce2:	bd08      	pop	{r3, pc}
 8003ce4:	f5b3 0f00 	cmp.w	r3, #8388608	; 0x800000
 8003ce8:	d21c      	bcs.n	8003d24 <scalbnf+0x68>
 8003cea:	4b1f      	ldr	r3, [pc, #124]	; (8003d68 <scalbnf+0xac>)
 8003cec:	eddf 7a1f 	vldr	s15, [pc, #124]	; 8003d6c <scalbnf+0xb0>
 8003cf0:	4298      	cmp	r0, r3
 8003cf2:	ee60 0a27 	vmul.f32	s1, s0, s15
 8003cf6:	db10      	blt.n	8003d1a <scalbnf+0x5e>
 8003cf8:	ee10 2a90 	vmov	r2, s1
 8003cfc:	f3c2 53c7 	ubfx	r3, r2, #23, #8
 8003d00:	3b19      	subs	r3, #25
 8003d02:	4403      	add	r3, r0
 8003d04:	2bfe      	cmp	r3, #254	; 0xfe
 8003d06:	dd0f      	ble.n	8003d28 <scalbnf+0x6c>
 8003d08:	ed9f 8a19 	vldr	s16, [pc, #100]	; 8003d70 <scalbnf+0xb4>
 8003d0c:	eeb0 0a48 	vmov.f32	s0, s16
 8003d10:	f000 f834 	bl	8003d7c <copysignf>
 8003d14:	ee60 0a08 	vmul.f32	s1, s0, s16
 8003d18:	e7df      	b.n	8003cda <scalbnf+0x1e>
 8003d1a:	eddf 7a16 	vldr	s15, [pc, #88]	; 8003d74 <scalbnf+0xb8>
 8003d1e:	ee60 0aa7 	vmul.f32	s1, s1, s15
 8003d22:	e7da      	b.n	8003cda <scalbnf+0x1e>
 8003d24:	0ddb      	lsrs	r3, r3, #23
 8003d26:	e7ec      	b.n	8003d02 <scalbnf+0x46>
 8003d28:	2b00      	cmp	r3, #0
 8003d2a:	dd06      	ble.n	8003d3a <scalbnf+0x7e>
 8003d2c:	f022 42ff 	bic.w	r2, r2, #2139095040	; 0x7f800000
 8003d30:	ea42 53c3 	orr.w	r3, r2, r3, lsl #23
 8003d34:	ee00 3a90 	vmov	s1, r3
 8003d38:	e7cf      	b.n	8003cda <scalbnf+0x1e>
 8003d3a:	f113 0f16 	cmn.w	r3, #22
 8003d3e:	da06      	bge.n	8003d4e <scalbnf+0x92>
 8003d40:	f24c 3350 	movw	r3, #50000	; 0xc350
 8003d44:	4298      	cmp	r0, r3
 8003d46:	dcdf      	bgt.n	8003d08 <scalbnf+0x4c>
 8003d48:	ed9f 8a0a 	vldr	s16, [pc, #40]	; 8003d74 <scalbnf+0xb8>
 8003d4c:	e7de      	b.n	8003d0c <scalbnf+0x50>
 8003d4e:	3319      	adds	r3, #25
 8003d50:	f022 42ff 	bic.w	r2, r2, #2139095040	; 0x7f800000
 8003d54:	ea42 53c3 	orr.w	r3, r2, r3, lsl #23
 8003d58:	eddf 7a07 	vldr	s15, [pc, #28]	; 8003d78 <scalbnf+0xbc>
 8003d5c:	ee07 3a10 	vmov	s14, r3
 8003d60:	ee67 0a27 	vmul.f32	s1, s14, s15
 8003d64:	e7b9      	b.n	8003cda <scalbnf+0x1e>
 8003d66:	bf00      	nop
 8003d68:	ffff3cb0 	.word	0xffff3cb0
 8003d6c:	4c000000 	.word	0x4c000000
 8003d70:	7149f2ca 	.word	0x7149f2ca
 8003d74:	0da24260 	.word	0x0da24260
 8003d78:	33000000 	.word	0x33000000

08003d7c <copysignf>:
 8003d7c:	ee10 3a10 	vmov	r3, s0
 8003d80:	ee10 2a90 	vmov	r2, s1
 8003d84:	f023 4300 	bic.w	r3, r3, #2147483648	; 0x80000000
 8003d88:	f002 4200 	and.w	r2, r2, #2147483648	; 0x80000000
 8003d8c:	4313      	orrs	r3, r2
 8003d8e:	ee00 3a10 	vmov	s0, r3
 8003d92:	4770      	bx	lr

08003d94 <_init>:
 8003d94:	b5f8      	push	{r3, r4, r5, r6, r7, lr}
 8003d96:	bf00      	nop
 8003d98:	bcf8      	pop	{r3, r4, r5, r6, r7}
 8003d9a:	bc08      	pop	{r3}
 8003d9c:	469e      	mov	lr, r3
 8003d9e:	4770      	bx	lr

08003da0 <_fini>:
 8003da0:	b5f8      	push	{r3, r4, r5, r6, r7, lr}
 8003da2:	bf00      	nop
 8003da4:	bcf8      	pop	{r3, r4, r5, r6, r7}
 8003da6:	bc08      	pop	{r3}
 8003da8:	469e      	mov	lr, r3
 8003daa:	4770      	bx	lr
