
BP_BasicMIDI.elf:     file format elf32-littlearm

Sections:
Idx Name          Size      VMA       LMA       File off  Algn
  0 .isr_vector   00000198  08000000  08000000  00010000  2**0
                  CONTENTS, ALLOC, LOAD, READONLY, DATA
  1 .text         0000366c  08000198  08000198  00010198  2**3
                  CONTENTS, ALLOC, LOAD, READONLY, CODE
  2 .rodata       00000044  08003804  08003804  00013804  2**2
                  CONTENTS, ALLOC, LOAD, READONLY, DATA
  3 .ARM          00000008  08003848  08003848  00013848  2**2
                  CONTENTS, ALLOC, LOAD, READONLY, DATA
  4 .init_array   00000004  08003850  08003850  00013850  2**2
                  CONTENTS, ALLOC, LOAD, DATA
  5 .fini_array   00000004  08003854  08003854  00013854  2**2
                  CONTENTS, ALLOC, LOAD, DATA
  6 .data         00000078  20000000  08003858  00020000  2**2
                  CONTENTS, ALLOC, LOAD, DATA
  7 .bss          000010f4  20000078  080038d0  00020078  2**2
                  ALLOC
  8 ._user_heap_stack 00000604  2000116c  080038d0  0002116c  2**0
                  ALLOC
  9 .ARM.attributes 00000030  00000000  00000000  00020078  2**0
                  CONTENTS, READONLY
 10 .debug_info   0000e414  00000000  00000000  000200a8  2**0
                  CONTENTS, READONLY, DEBUGGING, OCTETS
 11 .debug_abbrev 00002586  00000000  00000000  0002e4bc  2**0
                  CONTENTS, READONLY, DEBUGGING, OCTETS
 12 .debug_loc    00005bf5  00000000  00000000  00030a42  2**0
                  CONTENTS, READONLY, DEBUGGING, OCTETS
 13 .debug_aranges 00000898  00000000  00000000  00036638  2**3
                  CONTENTS, READONLY, DEBUGGING, OCTETS
 14 .debug_ranges 00000890  00000000  00000000  00036ed0  2**3
                  CONTENTS, READONLY, DEBUGGING, OCTETS
 15 .debug_macro  0001662f  00000000  00000000  00037760  2**0
                  CONTENTS, READONLY, DEBUGGING, OCTETS
 16 .debug_line   0000d7a1  00000000  00000000  0004dd8f  2**0
                  CONTENTS, READONLY, DEBUGGING, OCTETS
 17 .debug_str    00086b7c  00000000  00000000  0005b530  2**0
                  CONTENTS, READONLY, DEBUGGING, OCTETS
 18 .comment      00000053  00000000  00000000  000e20ac  2**0
                  CONTENTS, READONLY
 19 .debug_frame  00001854  00000000  00000000  000e2100  2**2
                  CONTENTS, READONLY, DEBUGGING, OCTETS

Disassembly of section .text:

08000198 <__do_global_dtors_aux>:
 8000198:	b510      	push	{r4, lr}
 800019a:	4c05      	ldr	r4, [pc, #20]	; (80001b0 <__do_global_dtors_aux+0x18>)
 800019c:	7823      	ldrb	r3, [r4, #0]
 800019e:	b933      	cbnz	r3, 80001ae <__do_global_dtors_aux+0x16>
 80001a0:	4b04      	ldr	r3, [pc, #16]	; (80001b4 <__do_global_dtors_aux+0x1c>)
 80001a2:	b113      	cbz	r3, 80001aa <__do_global_dtors_aux+0x12>
 80001a4:	4804      	ldr	r0, [pc, #16]	; (80001b8 <__do_global_dtors_aux+0x20>)
 80001a6:	f3af 8000 	nop.w
 80001aa:	2301      	movs	r3, #1
 80001ac:	7023      	strb	r3, [r4, #0]
 80001ae:	bd10      	pop	{r4, pc}
 80001b0:	20000078 	.word	0x20000078
 80001b4:	00000000 	.word	0x00000000
 80001b8:	080037ec 	.word	0x080037ec

080001bc <frame_dummy>:
 80001bc:	b508      	push	{r3, lr}
 80001be:	4b03      	ldr	r3, [pc, #12]	; (80001cc <frame_dummy+0x10>)
 80001c0:	b11b      	cbz	r3, 80001ca <frame_dummy+0xe>
 80001c2:	4903      	ldr	r1, [pc, #12]	; (80001d0 <frame_dummy+0x14>)
 80001c4:	4803      	ldr	r0, [pc, #12]	; (80001d4 <frame_dummy+0x18>)
 80001c6:	f3af 8000 	nop.w
 80001ca:	bd08      	pop	{r3, pc}
 80001cc:	00000000 	.word	0x00000000
 80001d0:	2000007c 	.word	0x2000007c
 80001d4:	080037ec 	.word	0x080037ec

080001d8 <__aeabi_dmul>:
 80001d8:	b570      	push	{r4, r5, r6, lr}
 80001da:	f04f 0cff 	mov.w	ip, #255	; 0xff
 80001de:	f44c 6ce0 	orr.w	ip, ip, #1792	; 0x700
 80001e2:	ea1c 5411 	ands.w	r4, ip, r1, lsr #20
 80001e6:	bf1d      	ittte	ne
 80001e8:	ea1c 5513 	andsne.w	r5, ip, r3, lsr #20
 80001ec:	ea94 0f0c 	teqne	r4, ip
 80001f0:	ea95 0f0c 	teqne	r5, ip
 80001f4:	f000 f8de 	bleq	80003b4 <__aeabi_dmul+0x1dc>
 80001f8:	442c      	add	r4, r5
 80001fa:	ea81 0603 	eor.w	r6, r1, r3
 80001fe:	ea21 514c 	bic.w	r1, r1, ip, lsl #21
 8000202:	ea23 534c 	bic.w	r3, r3, ip, lsl #21
 8000206:	ea50 3501 	orrs.w	r5, r0, r1, lsl #12
 800020a:	bf18      	it	ne
 800020c:	ea52 3503 	orrsne.w	r5, r2, r3, lsl #12
 8000210:	f441 1180 	orr.w	r1, r1, #1048576	; 0x100000
 8000214:	f443 1380 	orr.w	r3, r3, #1048576	; 0x100000
 8000218:	d038      	beq.n	800028c <__aeabi_dmul+0xb4>
 800021a:	fba0 ce02 	umull	ip, lr, r0, r2
 800021e:	f04f 0500 	mov.w	r5, #0
 8000222:	fbe1 e502 	umlal	lr, r5, r1, r2
 8000226:	f006 4200 	and.w	r2, r6, #2147483648	; 0x80000000
 800022a:	fbe0 e503 	umlal	lr, r5, r0, r3
 800022e:	f04f 0600 	mov.w	r6, #0
 8000232:	fbe1 5603 	umlal	r5, r6, r1, r3
 8000236:	f09c 0f00 	teq	ip, #0
 800023a:	bf18      	it	ne
 800023c:	f04e 0e01 	orrne.w	lr, lr, #1
 8000240:	f1a4 04ff 	sub.w	r4, r4, #255	; 0xff
 8000244:	f5b6 7f00 	cmp.w	r6, #512	; 0x200
 8000248:	f564 7440 	sbc.w	r4, r4, #768	; 0x300
 800024c:	d204      	bcs.n	8000258 <__aeabi_dmul+0x80>
 800024e:	ea5f 0e4e 	movs.w	lr, lr, lsl #1
 8000252:	416d      	adcs	r5, r5
 8000254:	eb46 0606 	adc.w	r6, r6, r6
 8000258:	ea42 21c6 	orr.w	r1, r2, r6, lsl #11
 800025c:	ea41 5155 	orr.w	r1, r1, r5, lsr #21
 8000260:	ea4f 20c5 	mov.w	r0, r5, lsl #11
 8000264:	ea40 505e 	orr.w	r0, r0, lr, lsr #21
 8000268:	ea4f 2ece 	mov.w	lr, lr, lsl #11
 800026c:	f1b4 0cfd 	subs.w	ip, r4, #253	; 0xfd
 8000270:	bf88      	it	hi
 8000272:	f5bc 6fe0 	cmphi.w	ip, #1792	; 0x700
 8000276:	d81e      	bhi.n	80002b6 <__aeabi_dmul+0xde>
 8000278:	f1be 4f00 	cmp.w	lr, #2147483648	; 0x80000000
 800027c:	bf08      	it	eq
 800027e:	ea5f 0e50 	movseq.w	lr, r0, lsr #1
 8000282:	f150 0000 	adcs.w	r0, r0, #0
 8000286:	eb41 5104 	adc.w	r1, r1, r4, lsl #20
 800028a:	bd70      	pop	{r4, r5, r6, pc}
 800028c:	f006 4600 	and.w	r6, r6, #2147483648	; 0x80000000
 8000290:	ea46 0101 	orr.w	r1, r6, r1
 8000294:	ea40 0002 	orr.w	r0, r0, r2
 8000298:	ea81 0103 	eor.w	r1, r1, r3
 800029c:	ebb4 045c 	subs.w	r4, r4, ip, lsr #1
 80002a0:	bfc2      	ittt	gt
 80002a2:	ebd4 050c 	rsbsgt	r5, r4, ip
 80002a6:	ea41 5104 	orrgt.w	r1, r1, r4, lsl #20
 80002aa:	bd70      	popgt	{r4, r5, r6, pc}
 80002ac:	f441 1180 	orr.w	r1, r1, #1048576	; 0x100000
 80002b0:	f04f 0e00 	mov.w	lr, #0
 80002b4:	3c01      	subs	r4, #1
 80002b6:	f300 80ab 	bgt.w	8000410 <__aeabi_dmul+0x238>
 80002ba:	f114 0f36 	cmn.w	r4, #54	; 0x36
 80002be:	bfde      	ittt	le
 80002c0:	2000      	movle	r0, #0
 80002c2:	f001 4100 	andle.w	r1, r1, #2147483648	; 0x80000000
 80002c6:	bd70      	pople	{r4, r5, r6, pc}
 80002c8:	f1c4 0400 	rsb	r4, r4, #0
 80002cc:	3c20      	subs	r4, #32
 80002ce:	da35      	bge.n	800033c <__aeabi_dmul+0x164>
 80002d0:	340c      	adds	r4, #12
 80002d2:	dc1b      	bgt.n	800030c <__aeabi_dmul+0x134>
 80002d4:	f104 0414 	add.w	r4, r4, #20
 80002d8:	f1c4 0520 	rsb	r5, r4, #32
 80002dc:	fa00 f305 	lsl.w	r3, r0, r5
 80002e0:	fa20 f004 	lsr.w	r0, r0, r4
 80002e4:	fa01 f205 	lsl.w	r2, r1, r5
 80002e8:	ea40 0002 	orr.w	r0, r0, r2
 80002ec:	f001 4200 	and.w	r2, r1, #2147483648	; 0x80000000
 80002f0:	f021 4100 	bic.w	r1, r1, #2147483648	; 0x80000000
 80002f4:	eb10 70d3 	adds.w	r0, r0, r3, lsr #31
 80002f8:	fa21 f604 	lsr.w	r6, r1, r4
 80002fc:	eb42 0106 	adc.w	r1, r2, r6
 8000300:	ea5e 0e43 	orrs.w	lr, lr, r3, lsl #1
 8000304:	bf08      	it	eq
 8000306:	ea20 70d3 	biceq.w	r0, r0, r3, lsr #31
 800030a:	bd70      	pop	{r4, r5, r6, pc}
 800030c:	f1c4 040c 	rsb	r4, r4, #12
 8000310:	f1c4 0520 	rsb	r5, r4, #32
 8000314:	fa00 f304 	lsl.w	r3, r0, r4
 8000318:	fa20 f005 	lsr.w	r0, r0, r5
 800031c:	fa01 f204 	lsl.w	r2, r1, r4
 8000320:	ea40 0002 	orr.w	r0, r0, r2
 8000324:	f001 4100 	and.w	r1, r1, #2147483648	; 0x80000000
 8000328:	eb10 70d3 	adds.w	r0, r0, r3, lsr #31
 800032c:	f141 0100 	adc.w	r1, r1, #0
 8000330:	ea5e 0e43 	orrs.w	lr, lr, r3, lsl #1
 8000334:	bf08      	it	eq
 8000336:	ea20 70d3 	biceq.w	r0, r0, r3, lsr #31
 800033a:	bd70      	pop	{r4, r5, r6, pc}
 800033c:	f1c4 0520 	rsb	r5, r4, #32
 8000340:	fa00 f205 	lsl.w	r2, r0, r5
 8000344:	ea4e 0e02 	orr.w	lr, lr, r2
 8000348:	fa20 f304 	lsr.w	r3, r0, r4
 800034c:	fa01 f205 	lsl.w	r2, r1, r5
 8000350:	ea43 0302 	orr.w	r3, r3, r2
 8000354:	fa21 f004 	lsr.w	r0, r1, r4
 8000358:	f001 4100 	and.w	r1, r1, #2147483648	; 0x80000000
 800035c:	fa21 f204 	lsr.w	r2, r1, r4
 8000360:	ea20 0002 	bic.w	r0, r0, r2
 8000364:	eb00 70d3 	add.w	r0, r0, r3, lsr #31
 8000368:	ea5e 0e43 	orrs.w	lr, lr, r3, lsl #1
 800036c:	bf08      	it	eq
 800036e:	ea20 70d3 	biceq.w	r0, r0, r3, lsr #31
 8000372:	bd70      	pop	{r4, r5, r6, pc}
 8000374:	f094 0f00 	teq	r4, #0
 8000378:	d10f      	bne.n	800039a <__aeabi_dmul+0x1c2>
 800037a:	f001 4600 	and.w	r6, r1, #2147483648	; 0x80000000
 800037e:	0040      	lsls	r0, r0, #1
 8000380:	eb41 0101 	adc.w	r1, r1, r1
 8000384:	f411 1f80 	tst.w	r1, #1048576	; 0x100000
 8000388:	bf08      	it	eq
 800038a:	3c01      	subeq	r4, #1
 800038c:	d0f7      	beq.n	800037e <__aeabi_dmul+0x1a6>
 800038e:	ea41 0106 	orr.w	r1, r1, r6
 8000392:	f095 0f00 	teq	r5, #0
 8000396:	bf18      	it	ne
 8000398:	4770      	bxne	lr
 800039a:	f003 4600 	and.w	r6, r3, #2147483648	; 0x80000000
 800039e:	0052      	lsls	r2, r2, #1
 80003a0:	eb43 0303 	adc.w	r3, r3, r3
 80003a4:	f413 1f80 	tst.w	r3, #1048576	; 0x100000
 80003a8:	bf08      	it	eq
 80003aa:	3d01      	subeq	r5, #1
 80003ac:	d0f7      	beq.n	800039e <__aeabi_dmul+0x1c6>
 80003ae:	ea43 0306 	orr.w	r3, r3, r6
 80003b2:	4770      	bx	lr
 80003b4:	ea94 0f0c 	teq	r4, ip
 80003b8:	ea0c 5513 	and.w	r5, ip, r3, lsr #20
 80003bc:	bf18      	it	ne
 80003be:	ea95 0f0c 	teqne	r5, ip
 80003c2:	d00c      	beq.n	80003de <__aeabi_dmul+0x206>
 80003c4:	ea50 0641 	orrs.w	r6, r0, r1, lsl #1
 80003c8:	bf18      	it	ne
 80003ca:	ea52 0643 	orrsne.w	r6, r2, r3, lsl #1
 80003ce:	d1d1      	bne.n	8000374 <__aeabi_dmul+0x19c>
 80003d0:	ea81 0103 	eor.w	r1, r1, r3
 80003d4:	f001 4100 	and.w	r1, r1, #2147483648	; 0x80000000
 80003d8:	f04f 0000 	mov.w	r0, #0
 80003dc:	bd70      	pop	{r4, r5, r6, pc}
 80003de:	ea50 0641 	orrs.w	r6, r0, r1, lsl #1
 80003e2:	bf06      	itte	eq
 80003e4:	4610      	moveq	r0, r2
 80003e6:	4619      	moveq	r1, r3
 80003e8:	ea52 0643 	orrsne.w	r6, r2, r3, lsl #1
 80003ec:	d019      	beq.n	8000422 <__aeabi_dmul+0x24a>
 80003ee:	ea94 0f0c 	teq	r4, ip
 80003f2:	d102      	bne.n	80003fa <__aeabi_dmul+0x222>
 80003f4:	ea50 3601 	orrs.w	r6, r0, r1, lsl #12
 80003f8:	d113      	bne.n	8000422 <__aeabi_dmul+0x24a>
 80003fa:	ea95 0f0c 	teq	r5, ip
 80003fe:	d105      	bne.n	800040c <__aeabi_dmul+0x234>
 8000400:	ea52 3603 	orrs.w	r6, r2, r3, lsl #12
 8000404:	bf1c      	itt	ne
 8000406:	4610      	movne	r0, r2
 8000408:	4619      	movne	r1, r3
 800040a:	d10a      	bne.n	8000422 <__aeabi_dmul+0x24a>
 800040c:	ea81 0103 	eor.w	r1, r1, r3
 8000410:	f001 4100 	and.w	r1, r1, #2147483648	; 0x80000000
 8000414:	f041 41fe 	orr.w	r1, r1, #2130706432	; 0x7f000000
 8000418:	f441 0170 	orr.w	r1, r1, #15728640	; 0xf00000
 800041c:	f04f 0000 	mov.w	r0, #0
 8000420:	bd70      	pop	{r4, r5, r6, pc}
 8000422:	f041 41fe 	orr.w	r1, r1, #2130706432	; 0x7f000000
 8000426:	f441 0178 	orr.w	r1, r1, #16252928	; 0xf80000
 800042a:	bd70      	pop	{r4, r5, r6, pc}

0800042c <__aeabi_drsub>:
 800042c:	f081 4100 	eor.w	r1, r1, #2147483648	; 0x80000000
 8000430:	e002      	b.n	8000438 <__adddf3>
 8000432:	bf00      	nop

08000434 <__aeabi_dsub>:
 8000434:	f083 4300 	eor.w	r3, r3, #2147483648	; 0x80000000

08000438 <__adddf3>:
 8000438:	b530      	push	{r4, r5, lr}
 800043a:	ea4f 0441 	mov.w	r4, r1, lsl #1
 800043e:	ea4f 0543 	mov.w	r5, r3, lsl #1
 8000442:	ea94 0f05 	teq	r4, r5
 8000446:	bf08      	it	eq
 8000448:	ea90 0f02 	teqeq	r0, r2
 800044c:	bf1f      	itttt	ne
 800044e:	ea54 0c00 	orrsne.w	ip, r4, r0
 8000452:	ea55 0c02 	orrsne.w	ip, r5, r2
 8000456:	ea7f 5c64 	mvnsne.w	ip, r4, asr #21
 800045a:	ea7f 5c65 	mvnsne.w	ip, r5, asr #21
 800045e:	f000 80e2 	beq.w	8000626 <__adddf3+0x1ee>
 8000462:	ea4f 5454 	mov.w	r4, r4, lsr #21
 8000466:	ebd4 5555 	rsbs	r5, r4, r5, lsr #21
 800046a:	bfb8      	it	lt
 800046c:	426d      	neglt	r5, r5
 800046e:	dd0c      	ble.n	800048a <__adddf3+0x52>
 8000470:	442c      	add	r4, r5
 8000472:	ea80 0202 	eor.w	r2, r0, r2
 8000476:	ea81 0303 	eor.w	r3, r1, r3
 800047a:	ea82 0000 	eor.w	r0, r2, r0
 800047e:	ea83 0101 	eor.w	r1, r3, r1
 8000482:	ea80 0202 	eor.w	r2, r0, r2
 8000486:	ea81 0303 	eor.w	r3, r1, r3
 800048a:	2d36      	cmp	r5, #54	; 0x36
 800048c:	bf88      	it	hi
 800048e:	bd30      	pophi	{r4, r5, pc}
 8000490:	f011 4f00 	tst.w	r1, #2147483648	; 0x80000000
 8000494:	ea4f 3101 	mov.w	r1, r1, lsl #12
 8000498:	f44f 1c80 	mov.w	ip, #1048576	; 0x100000
 800049c:	ea4c 3111 	orr.w	r1, ip, r1, lsr #12
 80004a0:	d002      	beq.n	80004a8 <__adddf3+0x70>
 80004a2:	4240      	negs	r0, r0
 80004a4:	eb61 0141 	sbc.w	r1, r1, r1, lsl #1
 80004a8:	f013 4f00 	tst.w	r3, #2147483648	; 0x80000000
 80004ac:	ea4f 3303 	mov.w	r3, r3, lsl #12
 80004b0:	ea4c 3313 	orr.w	r3, ip, r3, lsr #12
 80004b4:	d002      	beq.n	80004bc <__adddf3+0x84>
 80004b6:	4252      	negs	r2, r2
 80004b8:	eb63 0343 	sbc.w	r3, r3, r3, lsl #1
 80004bc:	ea94 0f05 	teq	r4, r5
 80004c0:	f000 80a7 	beq.w	8000612 <__adddf3+0x1da>
 80004c4:	f1a4 0401 	sub.w	r4, r4, #1
 80004c8:	f1d5 0e20 	rsbs	lr, r5, #32
 80004cc:	db0d      	blt.n	80004ea <__adddf3+0xb2>
 80004ce:	fa02 fc0e 	lsl.w	ip, r2, lr
 80004d2:	fa22 f205 	lsr.w	r2, r2, r5
 80004d6:	1880      	adds	r0, r0, r2
 80004d8:	f141 0100 	adc.w	r1, r1, #0
 80004dc:	fa03 f20e 	lsl.w	r2, r3, lr
 80004e0:	1880      	adds	r0, r0, r2
 80004e2:	fa43 f305 	asr.w	r3, r3, r5
 80004e6:	4159      	adcs	r1, r3
 80004e8:	e00e      	b.n	8000508 <__adddf3+0xd0>
 80004ea:	f1a5 0520 	sub.w	r5, r5, #32
 80004ee:	f10e 0e20 	add.w	lr, lr, #32
 80004f2:	2a01      	cmp	r2, #1
 80004f4:	fa03 fc0e 	lsl.w	ip, r3, lr
 80004f8:	bf28      	it	cs
 80004fa:	f04c 0c02 	orrcs.w	ip, ip, #2
 80004fe:	fa43 f305 	asr.w	r3, r3, r5
 8000502:	18c0      	adds	r0, r0, r3
 8000504:	eb51 71e3 	adcs.w	r1, r1, r3, asr #31
 8000508:	f001 4500 	and.w	r5, r1, #2147483648	; 0x80000000
 800050c:	d507      	bpl.n	800051e <__adddf3+0xe6>
 800050e:	f04f 0e00 	mov.w	lr, #0
 8000512:	f1dc 0c00 	rsbs	ip, ip, #0
 8000516:	eb7e 0000 	sbcs.w	r0, lr, r0
 800051a:	eb6e 0101 	sbc.w	r1, lr, r1
 800051e:	f5b1 1f80 	cmp.w	r1, #1048576	; 0x100000
 8000522:	d31b      	bcc.n	800055c <__adddf3+0x124>
 8000524:	f5b1 1f00 	cmp.w	r1, #2097152	; 0x200000
 8000528:	d30c      	bcc.n	8000544 <__adddf3+0x10c>
 800052a:	0849      	lsrs	r1, r1, #1
 800052c:	ea5f 0030 	movs.w	r0, r0, rrx
 8000530:	ea4f 0c3c 	mov.w	ip, ip, rrx
 8000534:	f104 0401 	add.w	r4, r4, #1
 8000538:	ea4f 5244 	mov.w	r2, r4, lsl #21
 800053c:	f512 0f80 	cmn.w	r2, #4194304	; 0x400000
 8000540:	f080 809a 	bcs.w	8000678 <__adddf3+0x240>
 8000544:	f1bc 4f00 	cmp.w	ip, #2147483648	; 0x80000000
 8000548:	bf08      	it	eq
 800054a:	ea5f 0c50 	movseq.w	ip, r0, lsr #1
 800054e:	f150 0000 	adcs.w	r0, r0, #0
 8000552:	eb41 5104 	adc.w	r1, r1, r4, lsl #20
 8000556:	ea41 0105 	orr.w	r1, r1, r5
 800055a:	bd30      	pop	{r4, r5, pc}
 800055c:	ea5f 0c4c 	movs.w	ip, ip, lsl #1
 8000560:	4140      	adcs	r0, r0
 8000562:	eb41 0101 	adc.w	r1, r1, r1
 8000566:	3c01      	subs	r4, #1
 8000568:	bf28      	it	cs
 800056a:	f5b1 1f80 	cmpcs.w	r1, #1048576	; 0x100000
 800056e:	d2e9      	bcs.n	8000544 <__adddf3+0x10c>
 8000570:	f091 0f00 	teq	r1, #0
 8000574:	bf04      	itt	eq
 8000576:	4601      	moveq	r1, r0
 8000578:	2000      	moveq	r0, #0
 800057a:	fab1 f381 	clz	r3, r1
 800057e:	bf08      	it	eq
 8000580:	3320      	addeq	r3, #32
 8000582:	f1a3 030b 	sub.w	r3, r3, #11
 8000586:	f1b3 0220 	subs.w	r2, r3, #32
 800058a:	da0c      	bge.n	80005a6 <__adddf3+0x16e>
 800058c:	320c      	adds	r2, #12
 800058e:	dd08      	ble.n	80005a2 <__adddf3+0x16a>
 8000590:	f102 0c14 	add.w	ip, r2, #20
 8000594:	f1c2 020c 	rsb	r2, r2, #12
 8000598:	fa01 f00c 	lsl.w	r0, r1, ip
 800059c:	fa21 f102 	lsr.w	r1, r1, r2
 80005a0:	e00c      	b.n	80005bc <__adddf3+0x184>
 80005a2:	f102 0214 	add.w	r2, r2, #20
 80005a6:	bfd8      	it	le
 80005a8:	f1c2 0c20 	rsble	ip, r2, #32
 80005ac:	fa01 f102 	lsl.w	r1, r1, r2
 80005b0:	fa20 fc0c 	lsr.w	ip, r0, ip
 80005b4:	bfdc      	itt	le
 80005b6:	ea41 010c 	orrle.w	r1, r1, ip
 80005ba:	4090      	lslle	r0, r2
 80005bc:	1ae4      	subs	r4, r4, r3
 80005be:	bfa2      	ittt	ge
 80005c0:	eb01 5104 	addge.w	r1, r1, r4, lsl #20
 80005c4:	4329      	orrge	r1, r5
 80005c6:	bd30      	popge	{r4, r5, pc}
 80005c8:	ea6f 0404 	mvn.w	r4, r4
 80005cc:	3c1f      	subs	r4, #31
 80005ce:	da1c      	bge.n	800060a <__adddf3+0x1d2>
 80005d0:	340c      	adds	r4, #12
 80005d2:	dc0e      	bgt.n	80005f2 <__adddf3+0x1ba>
 80005d4:	f104 0414 	add.w	r4, r4, #20
 80005d8:	f1c4 0220 	rsb	r2, r4, #32
 80005dc:	fa20 f004 	lsr.w	r0, r0, r4
 80005e0:	fa01 f302 	lsl.w	r3, r1, r2
 80005e4:	ea40 0003 	orr.w	r0, r0, r3
 80005e8:	fa21 f304 	lsr.w	r3, r1, r4
 80005ec:	ea45 0103 	orr.w	r1, r5, r3
 80005f0:	bd30      	pop	{r4, r5, pc}
 80005f2:	f1c4 040c 	rsb	r4, r4, #12
 80005f6:	f1c4 0220 	rsb	r2, r4, #32
 80005fa:	fa20 f002 	lsr.w	r0, r0, r2
 80005fe:	fa01 f304 	lsl.w	r3, r1, r4
 8000602:	ea40 0003 	orr.w	r0, r0, r3
 8000606:	4629      	mov	r1, r5
 8000608:	bd30      	pop	{r4, r5, pc}
 800060a:	fa21 f004 	lsr.w	r0, r1, r4
 800060e:	4629      	mov	r1, r5
 8000610:	bd30      	pop	{r4, r5, pc}
 8000612:	f094 0f00 	teq	r4, #0
 8000616:	f483 1380 	eor.w	r3, r3, #1048576	; 0x100000
 800061a:	bf06      	itte	eq
 800061c:	f481 1180 	eoreq.w	r1, r1, #1048576	; 0x100000
 8000620:	3401      	addeq	r4, #1
 8000622:	3d01      	subne	r5, #1
 8000624:	e74e      	b.n	80004c4 <__adddf3+0x8c>
 8000626:	ea7f 5c64 	mvns.w	ip, r4, asr #21
 800062a:	bf18      	it	ne
 800062c:	ea7f 5c65 	mvnsne.w	ip, r5, asr #21
 8000630:	d029      	beq.n	8000686 <__adddf3+0x24e>
 8000632:	ea94 0f05 	teq	r4, r5
 8000636:	bf08      	it	eq
 8000638:	ea90 0f02 	teqeq	r0, r2
 800063c:	d005      	beq.n	800064a <__adddf3+0x212>
 800063e:	ea54 0c00 	orrs.w	ip, r4, r0
 8000642:	bf04      	itt	eq
 8000644:	4619      	moveq	r1, r3
 8000646:	4610      	moveq	r0, r2
 8000648:	bd30      	pop	{r4, r5, pc}
 800064a:	ea91 0f03 	teq	r1, r3
 800064e:	bf1e      	ittt	ne
 8000650:	2100      	movne	r1, #0
 8000652:	2000      	movne	r0, #0
 8000654:	bd30      	popne	{r4, r5, pc}
 8000656:	ea5f 5c54 	movs.w	ip, r4, lsr #21
 800065a:	d105      	bne.n	8000668 <__adddf3+0x230>
 800065c:	0040      	lsls	r0, r0, #1
 800065e:	4149      	adcs	r1, r1
 8000660:	bf28      	it	cs
 8000662:	f041 4100 	orrcs.w	r1, r1, #2147483648	; 0x80000000
 8000666:	bd30      	pop	{r4, r5, pc}
 8000668:	f514 0480 	adds.w	r4, r4, #4194304	; 0x400000
 800066c:	bf3c      	itt	cc
 800066e:	f501 1180 	addcc.w	r1, r1, #1048576	; 0x100000
 8000672:	bd30      	popcc	{r4, r5, pc}
 8000674:	f001 4500 	and.w	r5, r1, #2147483648	; 0x80000000
 8000678:	f045 41fe 	orr.w	r1, r5, #2130706432	; 0x7f000000
 800067c:	f441 0170 	orr.w	r1, r1, #15728640	; 0xf00000
 8000680:	f04f 0000 	mov.w	r0, #0
 8000684:	bd30      	pop	{r4, r5, pc}
 8000686:	ea7f 5c64 	mvns.w	ip, r4, asr #21
 800068a:	bf1a      	itte	ne
 800068c:	4619      	movne	r1, r3
 800068e:	4610      	movne	r0, r2
 8000690:	ea7f 5c65 	mvnseq.w	ip, r5, asr #21
 8000694:	bf1c      	itt	ne
 8000696:	460b      	movne	r3, r1
 8000698:	4602      	movne	r2, r0
 800069a:	ea50 3401 	orrs.w	r4, r0, r1, lsl #12
 800069e:	bf06      	itte	eq
 80006a0:	ea52 3503 	orrseq.w	r5, r2, r3, lsl #12
 80006a4:	ea91 0f03 	teqeq	r1, r3
 80006a8:	f441 2100 	orrne.w	r1, r1, #524288	; 0x80000
 80006ac:	bd30      	pop	{r4, r5, pc}
 80006ae:	bf00      	nop

080006b0 <__aeabi_ui2d>:
 80006b0:	f090 0f00 	teq	r0, #0
 80006b4:	bf04      	itt	eq
 80006b6:	2100      	moveq	r1, #0
 80006b8:	4770      	bxeq	lr
 80006ba:	b530      	push	{r4, r5, lr}
 80006bc:	f44f 6480 	mov.w	r4, #1024	; 0x400
 80006c0:	f104 0432 	add.w	r4, r4, #50	; 0x32
 80006c4:	f04f 0500 	mov.w	r5, #0
 80006c8:	f04f 0100 	mov.w	r1, #0
 80006cc:	e750      	b.n	8000570 <__adddf3+0x138>
 80006ce:	bf00      	nop

080006d0 <__aeabi_i2d>:
 80006d0:	f090 0f00 	teq	r0, #0
 80006d4:	bf04      	itt	eq
 80006d6:	2100      	moveq	r1, #0
 80006d8:	4770      	bxeq	lr
 80006da:	b530      	push	{r4, r5, lr}
 80006dc:	f44f 6480 	mov.w	r4, #1024	; 0x400
 80006e0:	f104 0432 	add.w	r4, r4, #50	; 0x32
 80006e4:	f010 4500 	ands.w	r5, r0, #2147483648	; 0x80000000
 80006e8:	bf48      	it	mi
 80006ea:	4240      	negmi	r0, r0
 80006ec:	f04f 0100 	mov.w	r1, #0
 80006f0:	e73e      	b.n	8000570 <__adddf3+0x138>
 80006f2:	bf00      	nop

080006f4 <__aeabi_f2d>:
 80006f4:	0042      	lsls	r2, r0, #1
 80006f6:	ea4f 01e2 	mov.w	r1, r2, asr #3
 80006fa:	ea4f 0131 	mov.w	r1, r1, rrx
 80006fe:	ea4f 7002 	mov.w	r0, r2, lsl #28
 8000702:	bf1f      	itttt	ne
 8000704:	f012 437f 	andsne.w	r3, r2, #4278190080	; 0xff000000
 8000708:	f093 4f7f 	teqne	r3, #4278190080	; 0xff000000
 800070c:	f081 5160 	eorne.w	r1, r1, #939524096	; 0x38000000
 8000710:	4770      	bxne	lr
 8000712:	f032 427f 	bics.w	r2, r2, #4278190080	; 0xff000000
 8000716:	bf08      	it	eq
 8000718:	4770      	bxeq	lr
 800071a:	f093 4f7f 	teq	r3, #4278190080	; 0xff000000
 800071e:	bf04      	itt	eq
 8000720:	f441 2100 	orreq.w	r1, r1, #524288	; 0x80000
 8000724:	4770      	bxeq	lr
 8000726:	b530      	push	{r4, r5, lr}
 8000728:	f44f 7460 	mov.w	r4, #896	; 0x380
 800072c:	f001 4500 	and.w	r5, r1, #2147483648	; 0x80000000
 8000730:	f021 4100 	bic.w	r1, r1, #2147483648	; 0x80000000
 8000734:	e71c      	b.n	8000570 <__adddf3+0x138>
 8000736:	bf00      	nop

08000738 <__aeabi_ul2d>:
 8000738:	ea50 0201 	orrs.w	r2, r0, r1
 800073c:	bf08      	it	eq
 800073e:	4770      	bxeq	lr
 8000740:	b530      	push	{r4, r5, lr}
 8000742:	f04f 0500 	mov.w	r5, #0
 8000746:	e00a      	b.n	800075e <__aeabi_l2d+0x16>

08000748 <__aeabi_l2d>:
 8000748:	ea50 0201 	orrs.w	r2, r0, r1
 800074c:	bf08      	it	eq
 800074e:	4770      	bxeq	lr
 8000750:	b530      	push	{r4, r5, lr}
 8000752:	f011 4500 	ands.w	r5, r1, #2147483648	; 0x80000000
 8000756:	d502      	bpl.n	800075e <__aeabi_l2d+0x16>
 8000758:	4240      	negs	r0, r0
 800075a:	eb61 0141 	sbc.w	r1, r1, r1, lsl #1
 800075e:	f44f 6480 	mov.w	r4, #1024	; 0x400
 8000762:	f104 0432 	add.w	r4, r4, #50	; 0x32
 8000766:	ea5f 5c91 	movs.w	ip, r1, lsr #22
 800076a:	f43f aed8 	beq.w	800051e <__adddf3+0xe6>
 800076e:	f04f 0203 	mov.w	r2, #3
 8000772:	ea5f 0cdc 	movs.w	ip, ip, lsr #3
 8000776:	bf18      	it	ne
 8000778:	3203      	addne	r2, #3
 800077a:	ea5f 0cdc 	movs.w	ip, ip, lsr #3
 800077e:	bf18      	it	ne
 8000780:	3203      	addne	r2, #3
 8000782:	eb02 02dc 	add.w	r2, r2, ip, lsr #3
 8000786:	f1c2 0320 	rsb	r3, r2, #32
 800078a:	fa00 fc03 	lsl.w	ip, r0, r3
 800078e:	fa20 f002 	lsr.w	r0, r0, r2
 8000792:	fa01 fe03 	lsl.w	lr, r1, r3
 8000796:	ea40 000e 	orr.w	r0, r0, lr
 800079a:	fa21 f102 	lsr.w	r1, r1, r2
 800079e:	4414      	add	r4, r2
 80007a0:	e6bd      	b.n	800051e <__adddf3+0xe6>
 80007a2:	bf00      	nop

080007a4 <__aeabi_d2f>:
 80007a4:	ea4f 0241 	mov.w	r2, r1, lsl #1
 80007a8:	f1b2 43e0 	subs.w	r3, r2, #1879048192	; 0x70000000
 80007ac:	bf24      	itt	cs
 80007ae:	f5b3 1c00 	subscs.w	ip, r3, #2097152	; 0x200000
 80007b2:	f1dc 5cfe 	rsbscs	ip, ip, #532676608	; 0x1fc00000
 80007b6:	d90d      	bls.n	80007d4 <__aeabi_d2f+0x30>
 80007b8:	f001 4c00 	and.w	ip, r1, #2147483648	; 0x80000000
 80007bc:	ea4f 02c0 	mov.w	r2, r0, lsl #3
 80007c0:	ea4c 7050 	orr.w	r0, ip, r0, lsr #29
 80007c4:	f1b2 4f00 	cmp.w	r2, #2147483648	; 0x80000000
 80007c8:	eb40 0083 	adc.w	r0, r0, r3, lsl #2
 80007cc:	bf08      	it	eq
 80007ce:	f020 0001 	biceq.w	r0, r0, #1
 80007d2:	4770      	bx	lr
 80007d4:	f011 4f80 	tst.w	r1, #1073741824	; 0x40000000
 80007d8:	d121      	bne.n	800081e <__aeabi_d2f+0x7a>
 80007da:	f113 7238 	adds.w	r2, r3, #48234496	; 0x2e00000
 80007de:	bfbc      	itt	lt
 80007e0:	f001 4000 	andlt.w	r0, r1, #2147483648	; 0x80000000
 80007e4:	4770      	bxlt	lr
 80007e6:	f441 1180 	orr.w	r1, r1, #1048576	; 0x100000
 80007ea:	ea4f 5252 	mov.w	r2, r2, lsr #21
 80007ee:	f1c2 0218 	rsb	r2, r2, #24
 80007f2:	f1c2 0c20 	rsb	ip, r2, #32
 80007f6:	fa10 f30c 	lsls.w	r3, r0, ip
 80007fa:	fa20 f002 	lsr.w	r0, r0, r2
 80007fe:	bf18      	it	ne
 8000800:	f040 0001 	orrne.w	r0, r0, #1
 8000804:	ea4f 23c1 	mov.w	r3, r1, lsl #11
 8000808:	ea4f 23d3 	mov.w	r3, r3, lsr #11
 800080c:	fa03 fc0c 	lsl.w	ip, r3, ip
 8000810:	ea40 000c 	orr.w	r0, r0, ip
 8000814:	fa23 f302 	lsr.w	r3, r3, r2
 8000818:	ea4f 0343 	mov.w	r3, r3, lsl #1
 800081c:	e7cc      	b.n	80007b8 <__aeabi_d2f+0x14>
 800081e:	ea7f 5362 	mvns.w	r3, r2, asr #21
 8000822:	d107      	bne.n	8000834 <__aeabi_d2f+0x90>
 8000824:	ea50 3301 	orrs.w	r3, r0, r1, lsl #12
 8000828:	bf1e      	ittt	ne
 800082a:	f04f 40fe 	movne.w	r0, #2130706432	; 0x7f000000
 800082e:	f440 0040 	orrne.w	r0, r0, #12582912	; 0xc00000
 8000832:	4770      	bxne	lr
 8000834:	f001 4000 	and.w	r0, r1, #2147483648	; 0x80000000
 8000838:	f040 40fe 	orr.w	r0, r0, #2130706432	; 0x7f000000
 800083c:	f440 0000 	orr.w	r0, r0, #8388608	; 0x800000
 8000840:	4770      	bx	lr
 8000842:	bf00      	nop

08000844 <__aeabi_uldivmod>:
 8000844:	b953      	cbnz	r3, 800085c <__aeabi_uldivmod+0x18>
 8000846:	b94a      	cbnz	r2, 800085c <__aeabi_uldivmod+0x18>
 8000848:	2900      	cmp	r1, #0
 800084a:	bf08      	it	eq
 800084c:	2800      	cmpeq	r0, #0
 800084e:	bf1c      	itt	ne
 8000850:	f04f 31ff 	movne.w	r1, #4294967295
 8000854:	f04f 30ff 	movne.w	r0, #4294967295
 8000858:	f000 b96e 	b.w	8000b38 <__aeabi_idiv0>
 800085c:	f1ad 0c08 	sub.w	ip, sp, #8
 8000860:	e96d ce04 	strd	ip, lr, [sp, #-16]!
 8000864:	f000 f806 	bl	8000874 <__udivmoddi4>
 8000868:	f8dd e004 	ldr.w	lr, [sp, #4]
 800086c:	e9dd 2302 	ldrd	r2, r3, [sp, #8]
 8000870:	b004      	add	sp, #16
 8000872:	4770      	bx	lr

08000874 <__udivmoddi4>:
 8000874:	e92d 47f0 	stmdb	sp!, {r4, r5, r6, r7, r8, r9, sl, lr}
 8000878:	9d08      	ldr	r5, [sp, #32]
 800087a:	4604      	mov	r4, r0
 800087c:	468c      	mov	ip, r1
 800087e:	2b00      	cmp	r3, #0
 8000880:	f040 8083 	bne.w	800098a <__udivmoddi4+0x116>
 8000884:	428a      	cmp	r2, r1
 8000886:	4617      	mov	r7, r2
 8000888:	d947      	bls.n	800091a <__udivmoddi4+0xa6>
 800088a:	fab2 f282 	clz	r2, r2
 800088e:	b142      	cbz	r2, 80008a2 <__udivmoddi4+0x2e>
 8000890:	f1c2 0020 	rsb	r0, r2, #32
 8000894:	fa24 f000 	lsr.w	r0, r4, r0
 8000898:	4091      	lsls	r1, r2
 800089a:	4097      	lsls	r7, r2
 800089c:	ea40 0c01 	orr.w	ip, r0, r1
 80008a0:	4094      	lsls	r4, r2
 80008a2:	ea4f 4817 	mov.w	r8, r7, lsr #16
 80008a6:	0c23      	lsrs	r3, r4, #16
 80008a8:	fbbc f6f8 	udiv	r6, ip, r8
 80008ac:	fa1f fe87 	uxth.w	lr, r7
 80008b0:	fb08 c116 	mls	r1, r8, r6, ip
 80008b4:	ea43 4301 	orr.w	r3, r3, r1, lsl #16
 80008b8:	fb06 f10e 	mul.w	r1, r6, lr
 80008bc:	4299      	cmp	r1, r3
 80008be:	d909      	bls.n	80008d4 <__udivmoddi4+0x60>
 80008c0:	18fb      	adds	r3, r7, r3
 80008c2:	f106 30ff 	add.w	r0, r6, #4294967295
 80008c6:	f080 8119 	bcs.w	8000afc <__udivmoddi4+0x288>
 80008ca:	4299      	cmp	r1, r3
 80008cc:	f240 8116 	bls.w	8000afc <__udivmoddi4+0x288>
 80008d0:	3e02      	subs	r6, #2
 80008d2:	443b      	add	r3, r7
 80008d4:	1a5b      	subs	r3, r3, r1
 80008d6:	b2a4      	uxth	r4, r4
 80008d8:	fbb3 f0f8 	udiv	r0, r3, r8
 80008dc:	fb08 3310 	mls	r3, r8, r0, r3
 80008e0:	ea44 4403 	orr.w	r4, r4, r3, lsl #16
 80008e4:	fb00 fe0e 	mul.w	lr, r0, lr
 80008e8:	45a6      	cmp	lr, r4
 80008ea:	d909      	bls.n	8000900 <__udivmoddi4+0x8c>
 80008ec:	193c      	adds	r4, r7, r4
 80008ee:	f100 33ff 	add.w	r3, r0, #4294967295
 80008f2:	f080 8105 	bcs.w	8000b00 <__udivmoddi4+0x28c>
 80008f6:	45a6      	cmp	lr, r4
 80008f8:	f240 8102 	bls.w	8000b00 <__udivmoddi4+0x28c>
 80008fc:	3802      	subs	r0, #2
 80008fe:	443c      	add	r4, r7
 8000900:	ea40 4006 	orr.w	r0, r0, r6, lsl #16
 8000904:	eba4 040e 	sub.w	r4, r4, lr
 8000908:	2600      	movs	r6, #0
 800090a:	b11d      	cbz	r5, 8000914 <__udivmoddi4+0xa0>
 800090c:	40d4      	lsrs	r4, r2
 800090e:	2300      	movs	r3, #0
 8000910:	e9c5 4300 	strd	r4, r3, [r5]
 8000914:	4631      	mov	r1, r6
 8000916:	e8bd 87f0 	ldmia.w	sp!, {r4, r5, r6, r7, r8, r9, sl, pc}
 800091a:	b902      	cbnz	r2, 800091e <__udivmoddi4+0xaa>
 800091c:	deff      	udf	#255	; 0xff
 800091e:	fab2 f282 	clz	r2, r2
 8000922:	2a00      	cmp	r2, #0
 8000924:	d150      	bne.n	80009c8 <__udivmoddi4+0x154>
 8000926:	1bcb      	subs	r3, r1, r7
 8000928:	ea4f 4e17 	mov.w	lr, r7, lsr #16
 800092c:	fa1f f887 	uxth.w	r8, r7
 8000930:	2601      	movs	r6, #1
 8000932:	fbb3 fcfe 	udiv	ip, r3, lr
 8000936:	0c21      	lsrs	r1, r4, #16
 8000938:	fb0e 331c 	mls	r3, lr, ip, r3
 800093c:	ea41 4103 	orr.w	r1, r1, r3, lsl #16
 8000940:	fb08 f30c 	mul.w	r3, r8, ip
 8000944:	428b      	cmp	r3, r1
 8000946:	d907      	bls.n	8000958 <__udivmoddi4+0xe4>
 8000948:	1879      	adds	r1, r7, r1
 800094a:	f10c 30ff 	add.w	r0, ip, #4294967295
 800094e:	d202      	bcs.n	8000956 <__udivmoddi4+0xe2>
 8000950:	428b      	cmp	r3, r1
 8000952:	f200 80e9 	bhi.w	8000b28 <__udivmoddi4+0x2b4>
 8000956:	4684      	mov	ip, r0
 8000958:	1ac9      	subs	r1, r1, r3
 800095a:	b2a3      	uxth	r3, r4
 800095c:	fbb1 f0fe 	udiv	r0, r1, lr
 8000960:	fb0e 1110 	mls	r1, lr, r0, r1
 8000964:	ea43 4401 	orr.w	r4, r3, r1, lsl #16
 8000968:	fb08 f800 	mul.w	r8, r8, r0
 800096c:	45a0      	cmp	r8, r4
 800096e:	d907      	bls.n	8000980 <__udivmoddi4+0x10c>
 8000970:	193c      	adds	r4, r7, r4
 8000972:	f100 33ff 	add.w	r3, r0, #4294967295
 8000976:	d202      	bcs.n	800097e <__udivmoddi4+0x10a>
 8000978:	45a0      	cmp	r8, r4
 800097a:	f200 80d9 	bhi.w	8000b30 <__udivmoddi4+0x2bc>
 800097e:	4618      	mov	r0, r3
 8000980:	eba4 0408 	sub.w	r4, r4, r8
 8000984:	ea40 400c 	orr.w	r0, r0, ip, lsl #16
 8000988:	e7bf      	b.n	800090a <__udivmoddi4+0x96>
 800098a:	428b      	cmp	r3, r1
 800098c:	d909      	bls.n	80009a2 <__udivmoddi4+0x12e>
 800098e:	2d00      	cmp	r5, #0
 8000990:	f000 80b1 	beq.w	8000af6 <__udivmoddi4+0x282>
 8000994:	2600      	movs	r6, #0
 8000996:	e9c5 0100 	strd	r0, r1, [r5]
 800099a:	4630      	mov	r0, r6
 800099c:	4631      	mov	r1, r6
 800099e:	e8bd 87f0 	ldmia.w	sp!, {r4, r5, r6, r7, r8, r9, sl, pc}
 80009a2:	fab3 f683 	clz	r6, r3
 80009a6:	2e00      	cmp	r6, #0
 80009a8:	d14a      	bne.n	8000a40 <__udivmoddi4+0x1cc>
 80009aa:	428b      	cmp	r3, r1
 80009ac:	d302      	bcc.n	80009b4 <__udivmoddi4+0x140>
 80009ae:	4282      	cmp	r2, r0
 80009b0:	f200 80b8 	bhi.w	8000b24 <__udivmoddi4+0x2b0>
 80009b4:	1a84      	subs	r4, r0, r2
 80009b6:	eb61 0103 	sbc.w	r1, r1, r3
 80009ba:	2001      	movs	r0, #1
 80009bc:	468c      	mov	ip, r1
 80009be:	2d00      	cmp	r5, #0
 80009c0:	d0a8      	beq.n	8000914 <__udivmoddi4+0xa0>
 80009c2:	e9c5 4c00 	strd	r4, ip, [r5]
 80009c6:	e7a5      	b.n	8000914 <__udivmoddi4+0xa0>
 80009c8:	f1c2 0320 	rsb	r3, r2, #32
 80009cc:	fa20 f603 	lsr.w	r6, r0, r3
 80009d0:	4097      	lsls	r7, r2
 80009d2:	fa01 f002 	lsl.w	r0, r1, r2
 80009d6:	ea4f 4e17 	mov.w	lr, r7, lsr #16
 80009da:	40d9      	lsrs	r1, r3
 80009dc:	4330      	orrs	r0, r6
 80009de:	0c03      	lsrs	r3, r0, #16
 80009e0:	fbb1 f6fe 	udiv	r6, r1, lr
 80009e4:	fa1f f887 	uxth.w	r8, r7
 80009e8:	fb0e 1116 	mls	r1, lr, r6, r1
 80009ec:	ea43 4301 	orr.w	r3, r3, r1, lsl #16
 80009f0:	fb06 f108 	mul.w	r1, r6, r8
 80009f4:	4299      	cmp	r1, r3
 80009f6:	fa04 f402 	lsl.w	r4, r4, r2
 80009fa:	d909      	bls.n	8000a10 <__udivmoddi4+0x19c>
 80009fc:	18fb      	adds	r3, r7, r3
 80009fe:	f106 3cff 	add.w	ip, r6, #4294967295
 8000a02:	f080 808d 	bcs.w	8000b20 <__udivmoddi4+0x2ac>
 8000a06:	4299      	cmp	r1, r3
 8000a08:	f240 808a 	bls.w	8000b20 <__udivmoddi4+0x2ac>
 8000a0c:	3e02      	subs	r6, #2
 8000a0e:	443b      	add	r3, r7
 8000a10:	1a5b      	subs	r3, r3, r1
 8000a12:	b281      	uxth	r1, r0
 8000a14:	fbb3 f0fe 	udiv	r0, r3, lr
 8000a18:	fb0e 3310 	mls	r3, lr, r0, r3
 8000a1c:	ea41 4103 	orr.w	r1, r1, r3, lsl #16
 8000a20:	fb00 f308 	mul.w	r3, r0, r8
 8000a24:	428b      	cmp	r3, r1
 8000a26:	d907      	bls.n	8000a38 <__udivmoddi4+0x1c4>
 8000a28:	1879      	adds	r1, r7, r1
 8000a2a:	f100 3cff 	add.w	ip, r0, #4294967295
 8000a2e:	d273      	bcs.n	8000b18 <__udivmoddi4+0x2a4>
 8000a30:	428b      	cmp	r3, r1
 8000a32:	d971      	bls.n	8000b18 <__udivmoddi4+0x2a4>
 8000a34:	3802      	subs	r0, #2
 8000a36:	4439      	add	r1, r7
 8000a38:	1acb      	subs	r3, r1, r3
 8000a3a:	ea40 4606 	orr.w	r6, r0, r6, lsl #16
 8000a3e:	e778      	b.n	8000932 <__udivmoddi4+0xbe>
 8000a40:	f1c6 0c20 	rsb	ip, r6, #32
 8000a44:	fa03 f406 	lsl.w	r4, r3, r6
 8000a48:	fa22 f30c 	lsr.w	r3, r2, ip
 8000a4c:	431c      	orrs	r4, r3
 8000a4e:	fa20 f70c 	lsr.w	r7, r0, ip
 8000a52:	fa01 f306 	lsl.w	r3, r1, r6
 8000a56:	ea4f 4e14 	mov.w	lr, r4, lsr #16
 8000a5a:	fa21 f10c 	lsr.w	r1, r1, ip
 8000a5e:	431f      	orrs	r7, r3
 8000a60:	0c3b      	lsrs	r3, r7, #16
 8000a62:	fbb1 f9fe 	udiv	r9, r1, lr
 8000a66:	fa1f f884 	uxth.w	r8, r4
 8000a6a:	fb0e 1119 	mls	r1, lr, r9, r1
 8000a6e:	ea43 4101 	orr.w	r1, r3, r1, lsl #16
 8000a72:	fb09 fa08 	mul.w	sl, r9, r8
 8000a76:	458a      	cmp	sl, r1
 8000a78:	fa02 f206 	lsl.w	r2, r2, r6
 8000a7c:	fa00 f306 	lsl.w	r3, r0, r6
 8000a80:	d908      	bls.n	8000a94 <__udivmoddi4+0x220>
 8000a82:	1861      	adds	r1, r4, r1
 8000a84:	f109 30ff 	add.w	r0, r9, #4294967295
 8000a88:	d248      	bcs.n	8000b1c <__udivmoddi4+0x2a8>
 8000a8a:	458a      	cmp	sl, r1
 8000a8c:	d946      	bls.n	8000b1c <__udivmoddi4+0x2a8>
 8000a8e:	f1a9 0902 	sub.w	r9, r9, #2
 8000a92:	4421      	add	r1, r4
 8000a94:	eba1 010a 	sub.w	r1, r1, sl
 8000a98:	b2bf      	uxth	r7, r7
 8000a9a:	fbb1 f0fe 	udiv	r0, r1, lr
 8000a9e:	fb0e 1110 	mls	r1, lr, r0, r1
 8000aa2:	ea47 4701 	orr.w	r7, r7, r1, lsl #16
 8000aa6:	fb00 f808 	mul.w	r8, r0, r8
 8000aaa:	45b8      	cmp	r8, r7
 8000aac:	d907      	bls.n	8000abe <__udivmoddi4+0x24a>
 8000aae:	19e7      	adds	r7, r4, r7
 8000ab0:	f100 31ff 	add.w	r1, r0, #4294967295
 8000ab4:	d22e      	bcs.n	8000b14 <__udivmoddi4+0x2a0>
 8000ab6:	45b8      	cmp	r8, r7
 8000ab8:	d92c      	bls.n	8000b14 <__udivmoddi4+0x2a0>
 8000aba:	3802      	subs	r0, #2
 8000abc:	4427      	add	r7, r4
 8000abe:	ea40 4009 	orr.w	r0, r0, r9, lsl #16
 8000ac2:	eba7 0708 	sub.w	r7, r7, r8
 8000ac6:	fba0 8902 	umull	r8, r9, r0, r2
 8000aca:	454f      	cmp	r7, r9
 8000acc:	46c6      	mov	lr, r8
 8000ace:	4649      	mov	r1, r9
 8000ad0:	d31a      	bcc.n	8000b08 <__udivmoddi4+0x294>
 8000ad2:	d017      	beq.n	8000b04 <__udivmoddi4+0x290>
 8000ad4:	b15d      	cbz	r5, 8000aee <__udivmoddi4+0x27a>
 8000ad6:	ebb3 020e 	subs.w	r2, r3, lr
 8000ada:	eb67 0701 	sbc.w	r7, r7, r1
 8000ade:	fa07 fc0c 	lsl.w	ip, r7, ip
 8000ae2:	40f2      	lsrs	r2, r6
 8000ae4:	ea4c 0202 	orr.w	r2, ip, r2
 8000ae8:	40f7      	lsrs	r7, r6
 8000aea:	e9c5 2700 	strd	r2, r7, [r5]
 8000aee:	2600      	movs	r6, #0
 8000af0:	4631      	mov	r1, r6
 8000af2:	e8bd 87f0 	ldmia.w	sp!, {r4, r5, r6, r7, r8, r9, sl, pc}
 8000af6:	462e      	mov	r6, r5
 8000af8:	4628      	mov	r0, r5
 8000afa:	e70b      	b.n	8000914 <__udivmoddi4+0xa0>
 8000afc:	4606      	mov	r6, r0
 8000afe:	e6e9      	b.n	80008d4 <__udivmoddi4+0x60>
 8000b00:	4618      	mov	r0, r3
 8000b02:	e6fd      	b.n	8000900 <__udivmoddi4+0x8c>
 8000b04:	4543      	cmp	r3, r8
 8000b06:	d2e5      	bcs.n	8000ad4 <__udivmoddi4+0x260>
 8000b08:	ebb8 0e02 	subs.w	lr, r8, r2
 8000b0c:	eb69 0104 	sbc.w	r1, r9, r4
 8000b10:	3801      	subs	r0, #1
 8000b12:	e7df      	b.n	8000ad4 <__udivmoddi4+0x260>
 8000b14:	4608      	mov	r0, r1
 8000b16:	e7d2      	b.n	8000abe <__udivmoddi4+0x24a>
 8000b18:	4660      	mov	r0, ip
 8000b1a:	e78d      	b.n	8000a38 <__udivmoddi4+0x1c4>
 8000b1c:	4681      	mov	r9, r0
 8000b1e:	e7b9      	b.n	8000a94 <__udivmoddi4+0x220>
 8000b20:	4666      	mov	r6, ip
 8000b22:	e775      	b.n	8000a10 <__udivmoddi4+0x19c>
 8000b24:	4630      	mov	r0, r6
 8000b26:	e74a      	b.n	80009be <__udivmoddi4+0x14a>
 8000b28:	f1ac 0c02 	sub.w	ip, ip, #2
 8000b2c:	4439      	add	r1, r7
 8000b2e:	e713      	b.n	8000958 <__udivmoddi4+0xe4>
 8000b30:	3802      	subs	r0, #2
 8000b32:	443c      	add	r4, r7
 8000b34:	e724      	b.n	8000980 <__udivmoddi4+0x10c>
 8000b36:	bf00      	nop

08000b38 <__aeabi_idiv0>:
 8000b38:	4770      	bx	lr
 8000b3a:	bf00      	nop

08000b3c <MX_GPIO_Init>:
  * @brief GPIO Initialization Function
  * @param None
  * @retval None
  */
static void MX_GPIO_Init(void)
{
 8000b3c:	b082      	sub	sp, #8

  /* GPIO Ports Clock Enable */
  __HAL_RCC_GPIOH_CLK_ENABLE();
 8000b3e:	2100      	movs	r1, #0
 8000b40:	9100      	str	r1, [sp, #0]
 8000b42:	4b0b      	ldr	r3, [pc, #44]	; (8000b70 <MX_GPIO_Init+0x34>)
 8000b44:	6b1a      	ldr	r2, [r3, #48]	; 0x30
 8000b46:	f042 0280 	orr.w	r2, r2, #128	; 0x80
 8000b4a:	631a      	str	r2, [r3, #48]	; 0x30
 8000b4c:	6b1a      	ldr	r2, [r3, #48]	; 0x30
 8000b4e:	f002 0280 	and.w	r2, r2, #128	; 0x80
 8000b52:	9200      	str	r2, [sp, #0]
 8000b54:	9a00      	ldr	r2, [sp, #0]
  __HAL_RCC_GPIOA_CLK_ENABLE();
 8000b56:	9101      	str	r1, [sp, #4]
 8000b58:	6b1a      	ldr	r2, [r3, #48]	; 0x30
 8000b5a:	f042 0201 	orr.w	r2, r2, #1
 8000b5e:	631a      	str	r2, [r3, #48]	; 0x30
 8000b60:	6b1b      	ldr	r3, [r3, #48]	; 0x30
 8000b62:	f003 0301 	and.w	r3, r3, #1
 8000b66:	9301      	str	r3, [sp, #4]
 8000b68:	9b01      	ldr	r3, [sp, #4]

}
 8000b6a:	b002      	add	sp, #8
 8000b6c:	4770      	bx	lr
 8000b6e:	bf00      	nop
 8000b70:	40023800 	.word	0x40023800

08000b74 <MX_I2S1_Init>:
{
 8000b74:	b508      	push	{r3, lr}
  hi2s1.Instance = SPI1;
 8000b76:	4809      	ldr	r0, [pc, #36]	; (8000b9c <MX_I2S1_Init+0x28>)
 8000b78:	4b09      	ldr	r3, [pc, #36]	; (8000ba0 <MX_I2S1_Init+0x2c>)
 8000b7a:	6003      	str	r3, [r0, #0]
  hi2s1.Init.Mode = I2S_MODE_MASTER_TX;
 8000b7c:	f44f 7300 	mov.w	r3, #512	; 0x200
 8000b80:	6043      	str	r3, [r0, #4]
  hi2s1.Init.Standard = I2S_STANDARD_PHILIPS;
 8000b82:	2300      	movs	r3, #0
 8000b84:	6083      	str	r3, [r0, #8]
  hi2s1.Init.DataFormat = I2S_DATAFORMAT_16B;
 8000b86:	60c3      	str	r3, [r0, #12]
  hi2s1.Init.MCLKOutput = I2S_MCLKOUTPUT_DISABLE;
 8000b88:	6103      	str	r3, [r0, #16]
  hi2s1.Init.AudioFreq = I2S_AUDIOFREQ_32K;
 8000b8a:	f44f 42fa 	mov.w	r2, #32000	; 0x7d00
 8000b8e:	6142      	str	r2, [r0, #20]
  hi2s1.Init.CPOL = I2S_CPOL_LOW;
 8000b90:	6183      	str	r3, [r0, #24]
  hi2s1.Init.ClockSource = I2S_CLOCK_PLL;
 8000b92:	61c3      	str	r3, [r0, #28]
  hi2s1.Init.FullDuplexMode = I2S_FULLDUPLEXMODE_DISABLE;
 8000b94:	6203      	str	r3, [r0, #32]
  if (HAL_I2S_Init(&hi2s1) != HAL_OK)
 8000b96:	f000 ff55 	bl	8001a44 <HAL_I2S_Init>
}
 8000b9a:	bd08      	pop	{r3, pc}
 8000b9c:	20001058 	.word	0x20001058
 8000ba0:	40013000 	.word	0x40013000

08000ba4 <MX_DMA_Init>:
{
 8000ba4:	b500      	push	{lr}
 8000ba6:	b083      	sub	sp, #12
  __HAL_RCC_DMA2_CLK_ENABLE();
 8000ba8:	2200      	movs	r2, #0
 8000baa:	9201      	str	r2, [sp, #4]
 8000bac:	4b09      	ldr	r3, [pc, #36]	; (8000bd4 <MX_DMA_Init+0x30>)
 8000bae:	6b19      	ldr	r1, [r3, #48]	; 0x30
 8000bb0:	f441 0180 	orr.w	r1, r1, #4194304	; 0x400000
 8000bb4:	6319      	str	r1, [r3, #48]	; 0x30
 8000bb6:	6b1b      	ldr	r3, [r3, #48]	; 0x30
 8000bb8:	f403 0380 	and.w	r3, r3, #4194304	; 0x400000
 8000bbc:	9301      	str	r3, [sp, #4]
 8000bbe:	9b01      	ldr	r3, [sp, #4]
  HAL_NVIC_SetPriority(DMA2_Stream2_IRQn, 13, 0);
 8000bc0:	210d      	movs	r1, #13
 8000bc2:	203a      	movs	r0, #58	; 0x3a
 8000bc4:	f000 fbf6 	bl	80013b4 <HAL_NVIC_SetPriority>
  HAL_NVIC_EnableIRQ(DMA2_Stream2_IRQn);
 8000bc8:	203a      	movs	r0, #58	; 0x3a
 8000bca:	f000 fc27 	bl	800141c <HAL_NVIC_EnableIRQ>
}
 8000bce:	b003      	add	sp, #12
 8000bd0:	f85d fb04 	ldr.w	pc, [sp], #4
 8000bd4:	40023800 	.word	0x40023800

08000bd8 <MX_USART2_UART_Init>:
{
 8000bd8:	b508      	push	{r3, lr}
  huart2.Instance = USART2;
 8000bda:	4808      	ldr	r0, [pc, #32]	; (8000bfc <MX_USART2_UART_Init+0x24>)
 8000bdc:	4b08      	ldr	r3, [pc, #32]	; (8000c00 <MX_USART2_UART_Init+0x28>)
 8000bde:	6003      	str	r3, [r0, #0]
  huart2.Init.BaudRate = 31250;
 8000be0:	f647 2312 	movw	r3, #31250	; 0x7a12
 8000be4:	6043      	str	r3, [r0, #4]
  huart2.Init.WordLength = UART_WORDLENGTH_8B;
 8000be6:	2300      	movs	r3, #0
 8000be8:	6083      	str	r3, [r0, #8]
  huart2.Init.StopBits = UART_STOPBITS_1;
 8000bea:	60c3      	str	r3, [r0, #12]
  huart2.Init.Parity = UART_PARITY_NONE;
 8000bec:	6103      	str	r3, [r0, #16]
  huart2.Init.Mode = UART_MODE_TX_RX;
 8000bee:	220c      	movs	r2, #12
 8000bf0:	6142      	str	r2, [r0, #20]
  huart2.Init.HwFlowCtl = UART_HWCONTROL_NONE;
 8000bf2:	6183      	str	r3, [r0, #24]
  huart2.Init.OverSampling = UART_OVERSAMPLING_16;
 8000bf4:	61c3      	str	r3, [r0, #28]
  if (HAL_UART_Init(&huart2) != HAL_OK)
 8000bf6:	f002 f801 	bl	8002bfc <HAL_UART_Init>
}
 8000bfa:	bd08      	pop	{r3, pc}
 8000bfc:	200010a4 	.word	0x200010a4
 8000c00:	40004400 	.word	0x40004400

08000c04 <HAL_I2S_TxHalfCpltCallback>:
void HAL_I2S_TxHalfCpltCallback(I2S_HandleTypeDef *hi2s) {
 8000c04:	b508      	push	{r3, lr}
	make_sound((uint16_t *) audiobuff, BUFF_LEN_DIV4);
 8000c06:	f44f 71fa 	mov.w	r1, #500	; 0x1f4
 8000c0a:	4802      	ldr	r0, [pc, #8]	; (8000c14 <HAL_I2S_TxHalfCpltCallback+0x10>)
 8000c0c:	f000 fb14 	bl	8001238 <make_sound>
}
 8000c10:	bd08      	pop	{r3, pc}
 8000c12:	bf00      	nop
 8000c14:	200000b0 	.word	0x200000b0

08000c18 <HAL_I2S_TxCpltCallback>:
void HAL_I2S_TxCpltCallback(I2S_HandleTypeDef *hi2s) {
 8000c18:	b508      	push	{r3, lr}
	make_sound((uint16_t *) (audiobuff + BUFF_LEN_DIV2), BUFF_LEN_DIV4);
 8000c1a:	f44f 71fa 	mov.w	r1, #500	; 0x1f4
 8000c1e:	4802      	ldr	r0, [pc, #8]	; (8000c28 <HAL_I2S_TxCpltCallback+0x10>)
 8000c20:	f000 fb0a 	bl	8001238 <make_sound>
}
 8000c24:	bd08      	pop	{r3, pc}
 8000c26:	bf00      	nop
 8000c28:	20000880 	.word	0x20000880

08000c2c <MIDInoteOn>:
  if (!noteCount) {
 8000c2c:	4b13      	ldr	r3, [pc, #76]	; (8000c7c <MIDInoteOn+0x50>)
 8000c2e:	7819      	ldrb	r1, [r3, #0]
 8000c30:	b151      	cbz	r1, 8000c48 <MIDInoteOn+0x1c>
  op1.amp=0;
 8000c32:	4b13      	ldr	r3, [pc, #76]	; (8000c80 <MIDInoteOn+0x54>)
 8000c34:	2200      	movs	r2, #0
 8000c36:	601a      	str	r2, [r3, #0]
  for (int i = 0; i < 16; i++) {
 8000c38:	2300      	movs	r3, #0
 8000c3a:	2b0f      	cmp	r3, #15
 8000c3c:	dc1c      	bgt.n	8000c78 <MIDInoteOn+0x4c>
    if (!voice[i]) {
 8000c3e:	4a11      	ldr	r2, [pc, #68]	; (8000c84 <MIDInoteOn+0x58>)
 8000c40:	5cd2      	ldrb	r2, [r2, r3]
 8000c42:	b16a      	cbz	r2, 8000c60 <MIDInoteOn+0x34>
  for (int i = 0; i < 16; i++) {
 8000c44:	3301      	adds	r3, #1
 8000c46:	e7f8      	b.n	8000c3a <MIDInoteOn+0xe>
    voice [0] = note;
 8000c48:	4b0e      	ldr	r3, [pc, #56]	; (8000c84 <MIDInoteOn+0x58>)
 8000c4a:	7018      	strb	r0, [r3, #0]
    op1.amp=1;
 8000c4c:	4b0c      	ldr	r3, [pc, #48]	; (8000c80 <MIDInoteOn+0x54>)
 8000c4e:	f04f 527e 	mov.w	r2, #1065353216	; 0x3f800000
 8000c52:	601a      	str	r2, [r3, #0]
    currNote = voice[0];
 8000c54:	4b0c      	ldr	r3, [pc, #48]	; (8000c88 <MIDInoteOn+0x5c>)
 8000c56:	7018      	strb	r0, [r3, #0]
    noteCount++;
 8000c58:	3101      	adds	r1, #1
 8000c5a:	4b08      	ldr	r3, [pc, #32]	; (8000c7c <MIDInoteOn+0x50>)
 8000c5c:	7019      	strb	r1, [r3, #0]
    return;
 8000c5e:	4770      	bx	lr
      voice[i] = note;
 8000c60:	4a08      	ldr	r2, [pc, #32]	; (8000c84 <MIDInoteOn+0x58>)
 8000c62:	54d0      	strb	r0, [r2, r3]
      currNote = voice[i];
 8000c64:	4b08      	ldr	r3, [pc, #32]	; (8000c88 <MIDInoteOn+0x5c>)
 8000c66:	7018      	strb	r0, [r3, #0]
      op1.amp=1;
 8000c68:	4b05      	ldr	r3, [pc, #20]	; (8000c80 <MIDInoteOn+0x54>)
 8000c6a:	f04f 527e 	mov.w	r2, #1065353216	; 0x3f800000
 8000c6e:	601a      	str	r2, [r3, #0]
      noteCount++;
 8000c70:	3101      	adds	r1, #1
 8000c72:	4b02      	ldr	r3, [pc, #8]	; (8000c7c <MIDInoteOn+0x50>)
 8000c74:	7019      	strb	r1, [r3, #0]
      break;
 8000c76:	4770      	bx	lr
}
 8000c78:	4770      	bx	lr
 8000c7a:	bf00      	nop
 8000c7c:	20000094 	.word	0x20000094
 8000c80:	20001144 	.word	0x20001144
 8000c84:	2000009c 	.word	0x2000009c
 8000c88:	20000000 	.word	0x20000000

08000c8c <MIDInoteOff>:
{
 8000c8c:	b410      	push	{r4}
  if (note == currNote && noteCount>1) {
 8000c8e:	4b29      	ldr	r3, [pc, #164]	; (8000d34 <MIDInoteOff+0xa8>)
 8000c90:	781b      	ldrb	r3, [r3, #0]
 8000c92:	4283      	cmp	r3, r0
 8000c94:	d010      	beq.n	8000cb8 <MIDInoteOff+0x2c>
  if (noteCount < 2) {
 8000c96:	4b28      	ldr	r3, [pc, #160]	; (8000d38 <MIDInoteOff+0xac>)
 8000c98:	781b      	ldrb	r3, [r3, #0]
 8000c9a:	2b01      	cmp	r3, #1
 8000c9c:	d92b      	bls.n	8000cf6 <MIDInoteOff+0x6a>
  if (noteCount > 1) {  //if a note is released that was held down, but not playing
 8000c9e:	4b26      	ldr	r3, [pc, #152]	; (8000d38 <MIDInoteOff+0xac>)
 8000ca0:	781c      	ldrb	r4, [r3, #0]
 8000ca2:	2c01      	cmp	r4, #1
 8000ca4:	d943      	bls.n	8000d2e <MIDInoteOff+0xa2>
    for (int i = 0; i < 16; i++) {// find the note in the array
 8000ca6:	2300      	movs	r3, #0
 8000ca8:	2b0f      	cmp	r3, #15
 8000caa:	dc40      	bgt.n	8000d2e <MIDInoteOff+0xa2>
      if (voice[i] == note) {
 8000cac:	4a23      	ldr	r2, [pc, #140]	; (8000d3c <MIDInoteOff+0xb0>)
 8000cae:	5cd2      	ldrb	r2, [r2, r3]
 8000cb0:	4282      	cmp	r2, r0
 8000cb2:	d02a      	beq.n	8000d0a <MIDInoteOff+0x7e>
    for (int i = 0; i < 16; i++) {// find the note in the array
 8000cb4:	3301      	adds	r3, #1
 8000cb6:	e7f7      	b.n	8000ca8 <MIDInoteOff+0x1c>
  if (note == currNote && noteCount>1) {
 8000cb8:	4b1f      	ldr	r3, [pc, #124]	; (8000d38 <MIDInoteOff+0xac>)
 8000cba:	7819      	ldrb	r1, [r3, #0]
 8000cbc:	2901      	cmp	r1, #1
 8000cbe:	d9ea      	bls.n	8000c96 <MIDInoteOff+0xa>
	  op1.amp=0;
 8000cc0:	4b1f      	ldr	r3, [pc, #124]	; (8000d40 <MIDInoteOff+0xb4>)
 8000cc2:	2200      	movs	r2, #0
 8000cc4:	601a      	str	r2, [r3, #0]
    for (int i = 0; i < 16; i++) {
 8000cc6:	2300      	movs	r3, #0
 8000cc8:	2b0f      	cmp	r3, #15
 8000cca:	dc30      	bgt.n	8000d2e <MIDInoteOff+0xa2>
      if (note == voice[i]) {
 8000ccc:	4a1b      	ldr	r2, [pc, #108]	; (8000d3c <MIDInoteOff+0xb0>)
 8000cce:	5cd2      	ldrb	r2, [r2, r3]
 8000cd0:	4282      	cmp	r2, r0
 8000cd2:	d001      	beq.n	8000cd8 <MIDInoteOff+0x4c>
    for (int i = 0; i < 16; i++) {
 8000cd4:	3301      	adds	r3, #1
 8000cd6:	e7f7      	b.n	8000cc8 <MIDInoteOff+0x3c>
        currNote = voice[i - 1];
 8000cd8:	1e58      	subs	r0, r3, #1
 8000cda:	4a18      	ldr	r2, [pc, #96]	; (8000d3c <MIDInoteOff+0xb0>)
 8000cdc:	5c14      	ldrb	r4, [r2, r0]
 8000cde:	4815      	ldr	r0, [pc, #84]	; (8000d34 <MIDInoteOff+0xa8>)
 8000ce0:	7004      	strb	r4, [r0, #0]
        op1.amp=1;
 8000ce2:	4817      	ldr	r0, [pc, #92]	; (8000d40 <MIDInoteOff+0xb4>)
 8000ce4:	f04f 547e 	mov.w	r4, #1065353216	; 0x3f800000
 8000ce8:	6004      	str	r4, [r0, #0]
        voice[i] = 0;
 8000cea:	2000      	movs	r0, #0
 8000cec:	54d0      	strb	r0, [r2, r3]
        noteCount--;
 8000cee:	3901      	subs	r1, #1
 8000cf0:	4b11      	ldr	r3, [pc, #68]	; (8000d38 <MIDInoteOff+0xac>)
 8000cf2:	7019      	strb	r1, [r3, #0]
        break;
 8000cf4:	e01b      	b.n	8000d2e <MIDInoteOff+0xa2>
	op1.amp=0;
 8000cf6:	4a12      	ldr	r2, [pc, #72]	; (8000d40 <MIDInoteOff+0xb4>)
 8000cf8:	2100      	movs	r1, #0
 8000cfa:	6011      	str	r1, [r2, #0]
    voice[0] = 0;
 8000cfc:	4a0f      	ldr	r2, [pc, #60]	; (8000d3c <MIDInoteOff+0xb0>)
 8000cfe:	2100      	movs	r1, #0
 8000d00:	7011      	strb	r1, [r2, #0]
    noteCount--;
 8000d02:	3b01      	subs	r3, #1
 8000d04:	4a0c      	ldr	r2, [pc, #48]	; (8000d38 <MIDInoteOff+0xac>)
 8000d06:	7013      	strb	r3, [r2, #0]
    if (noteCount < 0) {
 8000d08:	e7c9      	b.n	8000c9e <MIDInoteOff+0x12>
        voice[i] = 0; //remove the note
 8000d0a:	4a0c      	ldr	r2, [pc, #48]	; (8000d3c <MIDInoteOff+0xb0>)
 8000d0c:	2100      	movs	r1, #0
 8000d0e:	54d1      	strb	r1, [r2, r3]
        for (int c = (i + 1); c < 16; c++) {
 8000d10:	1c5a      	adds	r2, r3, #1
 8000d12:	2a0f      	cmp	r2, #15
 8000d14:	dc05      	bgt.n	8000d22 <MIDInoteOff+0x96>
          voice[i] = voice[c]; //shift all notes past the removed one, left by one place in array
 8000d16:	4909      	ldr	r1, [pc, #36]	; (8000d3c <MIDInoteOff+0xb0>)
 8000d18:	5c88      	ldrb	r0, [r1, r2]
 8000d1a:	54c8      	strb	r0, [r1, r3]
          ++i;
 8000d1c:	3301      	adds	r3, #1
        for (int c = (i + 1); c < 16; c++) {
 8000d1e:	3201      	adds	r2, #1
 8000d20:	e7f7      	b.n	8000d12 <MIDInoteOff+0x86>
        voice[15] = 0;
 8000d22:	4b06      	ldr	r3, [pc, #24]	; (8000d3c <MIDInoteOff+0xb0>)
 8000d24:	2200      	movs	r2, #0
 8000d26:	73da      	strb	r2, [r3, #15]
        noteCount--;
 8000d28:	3c01      	subs	r4, #1
 8000d2a:	4b03      	ldr	r3, [pc, #12]	; (8000d38 <MIDInoteOff+0xac>)
 8000d2c:	701c      	strb	r4, [r3, #0]
}
 8000d2e:	f85d 4b04 	ldr.w	r4, [sp], #4
 8000d32:	4770      	bx	lr
 8000d34:	20000000 	.word	0x20000000
 8000d38:	20000094 	.word	0x20000094
 8000d3c:	2000009c 	.word	0x2000009c
 8000d40:	20001144 	.word	0x20001144

08000d44 <procMIDI>:
void procMIDI(void) {
 8000d44:	b508      	push	{r3, lr}
	MIDIcmd = MIDI_rx[0];
 8000d46:	4a1d      	ldr	r2, [pc, #116]	; (8000dbc <procMIDI+0x78>)
 8000d48:	7813      	ldrb	r3, [r2, #0]
 8000d4a:	491d      	ldr	r1, [pc, #116]	; (8000dc0 <procMIDI+0x7c>)
 8000d4c:	700b      	strb	r3, [r1, #0]
	MIDInote = MIDI_rx[1];
 8000d4e:	7850      	ldrb	r0, [r2, #1]
 8000d50:	491c      	ldr	r1, [pc, #112]	; (8000dc4 <procMIDI+0x80>)
 8000d52:	7008      	strb	r0, [r1, #0]
	MIDIvel = MIDI_rx[2];
 8000d54:	7892      	ldrb	r2, [r2, #2]
 8000d56:	491c      	ldr	r1, [pc, #112]	; (8000dc8 <procMIDI+0x84>)
 8000d58:	700a      	strb	r2, [r1, #0]
	if ((!MIDIvel) && (MIDIcmd == 0x90)) {
 8000d5a:	b90a      	cbnz	r2, 8000d60 <procMIDI+0x1c>
 8000d5c:	2b90      	cmp	r3, #144	; 0x90
 8000d5e:	d008      	beq.n	8000d72 <procMIDI+0x2e>
	if (MIDIcmd == 0x80) {
 8000d60:	2b80      	cmp	r3, #128	; 0x80
 8000d62:	d00e      	beq.n	8000d82 <procMIDI+0x3e>
	if (MIDIcmd == 0x90) {
 8000d64:	2b90      	cmp	r3, #144	; 0x90
 8000d66:	d014      	beq.n	8000d92 <procMIDI+0x4e>
	if (MIDIcmd == 0xB0) {
 8000d68:	2bb0      	cmp	r3, #176	; 0xb0
 8000d6a:	d01a      	beq.n	8000da2 <procMIDI+0x5e>
	if (MIDIcmd == 0xE0) {
 8000d6c:	2be0      	cmp	r3, #224	; 0xe0
 8000d6e:	d01e      	beq.n	8000dae <procMIDI+0x6a>
}
 8000d70:	bd08      	pop	{r3, pc}
		MIDInoteOff(MIDInote);
 8000d72:	f7ff ff8b 	bl	8000c8c <MIDInoteOff>
		HAL_UART_Receive_IT(&huart2, rx_buff, 1);
 8000d76:	2201      	movs	r2, #1
 8000d78:	4914      	ldr	r1, [pc, #80]	; (8000dcc <procMIDI+0x88>)
 8000d7a:	4815      	ldr	r0, [pc, #84]	; (8000dd0 <procMIDI+0x8c>)
 8000d7c:	f001 ff6d 	bl	8002c5a <HAL_UART_Receive_IT>
		return;
 8000d80:	e7f6      	b.n	8000d70 <procMIDI+0x2c>
		MIDInoteOff(MIDInote);
 8000d82:	f7ff ff83 	bl	8000c8c <MIDInoteOff>
		HAL_UART_Receive_IT(&huart2, rx_buff, 1);
 8000d86:	2201      	movs	r2, #1
 8000d88:	4910      	ldr	r1, [pc, #64]	; (8000dcc <procMIDI+0x88>)
 8000d8a:	4811      	ldr	r0, [pc, #68]	; (8000dd0 <procMIDI+0x8c>)
 8000d8c:	f001 ff65 	bl	8002c5a <HAL_UART_Receive_IT>
		return;
 8000d90:	e7ee      	b.n	8000d70 <procMIDI+0x2c>
		MIDInoteOn(MIDInote);
 8000d92:	f7ff ff4b 	bl	8000c2c <MIDInoteOn>
		HAL_UART_Receive_IT(&huart2, rx_buff, 1);
 8000d96:	2201      	movs	r2, #1
 8000d98:	490c      	ldr	r1, [pc, #48]	; (8000dcc <procMIDI+0x88>)
 8000d9a:	480d      	ldr	r0, [pc, #52]	; (8000dd0 <procMIDI+0x8c>)
 8000d9c:	f001 ff5d 	bl	8002c5a <HAL_UART_Receive_IT>
		return;
 8000da0:	e7e6      	b.n	8000d70 <procMIDI+0x2c>
		HAL_UART_Receive_IT(&huart2, rx_buff, 1);
 8000da2:	2201      	movs	r2, #1
 8000da4:	4909      	ldr	r1, [pc, #36]	; (8000dcc <procMIDI+0x88>)
 8000da6:	480a      	ldr	r0, [pc, #40]	; (8000dd0 <procMIDI+0x8c>)
 8000da8:	f001 ff57 	bl	8002c5a <HAL_UART_Receive_IT>
		return;
 8000dac:	e7e0      	b.n	8000d70 <procMIDI+0x2c>
		HAL_UART_Receive_IT(&huart2, rx_buff, 1);
 8000dae:	2201      	movs	r2, #1
 8000db0:	4906      	ldr	r1, [pc, #24]	; (8000dcc <procMIDI+0x88>)
 8000db2:	4807      	ldr	r0, [pc, #28]	; (8000dd0 <procMIDI+0x8c>)
 8000db4:	f001 ff51 	bl	8002c5a <HAL_UART_Receive_IT>
		return;
 8000db8:	e7da      	b.n	8000d70 <procMIDI+0x2c>
 8000dba:	bf00      	nop
 8000dbc:	20001054 	.word	0x20001054
 8000dc0:	20001050 	.word	0x20001050
 8000dc4:	200010a0 	.word	0x200010a0
 8000dc8:	20001057 	.word	0x20001057
 8000dcc:	200000ac 	.word	0x200000ac
 8000dd0:	200010a4 	.word	0x200010a4

08000dd4 <HAL_UART_RxCpltCallback>:
void HAL_UART_RxCpltCallback(UART_HandleTypeDef *huart) {
 8000dd4:	b508      	push	{r3, lr}
	if (rx_buff[0] >= 0xF0) {
 8000dd6:	4b19      	ldr	r3, [pc, #100]	; (8000e3c <HAL_UART_RxCpltCallback+0x68>)
 8000dd8:	781b      	ldrb	r3, [r3, #0]
 8000dda:	2bef      	cmp	r3, #239	; 0xef
 8000ddc:	d80f      	bhi.n	8000dfe <HAL_UART_RxCpltCallback+0x2a>
	if (rx_buff[0] & 0x80) {
 8000dde:	f013 0f80 	tst.w	r3, #128	; 0x80
 8000de2:	d112      	bne.n	8000e0a <HAL_UART_RxCpltCallback+0x36>
	if (noteByteFlag) {
 8000de4:	4a16      	ldr	r2, [pc, #88]	; (8000e40 <HAL_UART_RxCpltCallback+0x6c>)
 8000de6:	7852      	ldrb	r2, [r2, #1]
 8000de8:	b9d2      	cbnz	r2, 8000e20 <HAL_UART_RxCpltCallback+0x4c>
	MIDI_rx[1] = rx_buff[0];
 8000dea:	4a16      	ldr	r2, [pc, #88]	; (8000e44 <HAL_UART_RxCpltCallback+0x70>)
 8000dec:	7053      	strb	r3, [r2, #1]
	noteByteFlag = 1;//set flag so we stop at above evaluation
 8000dee:	2201      	movs	r2, #1
 8000df0:	4b13      	ldr	r3, [pc, #76]	; (8000e40 <HAL_UART_RxCpltCallback+0x6c>)
 8000df2:	705a      	strb	r2, [r3, #1]
	HAL_UART_Receive_IT(&huart2, rx_buff, 1);
 8000df4:	4911      	ldr	r1, [pc, #68]	; (8000e3c <HAL_UART_RxCpltCallback+0x68>)
 8000df6:	4814      	ldr	r0, [pc, #80]	; (8000e48 <HAL_UART_RxCpltCallback+0x74>)
 8000df8:	f001 ff2f 	bl	8002c5a <HAL_UART_Receive_IT>
}
 8000dfc:	bd08      	pop	{r3, pc}
		HAL_UART_Receive_IT(&huart2, rx_buff, 1);
 8000dfe:	2201      	movs	r2, #1
 8000e00:	490e      	ldr	r1, [pc, #56]	; (8000e3c <HAL_UART_RxCpltCallback+0x68>)
 8000e02:	4811      	ldr	r0, [pc, #68]	; (8000e48 <HAL_UART_RxCpltCallback+0x74>)
 8000e04:	f001 ff29 	bl	8002c5a <HAL_UART_Receive_IT>
		return;
 8000e08:	e7f8      	b.n	8000dfc <HAL_UART_RxCpltCallback+0x28>
		MIDI_rx[0] = rx_buff[0];
 8000e0a:	4a0e      	ldr	r2, [pc, #56]	; (8000e44 <HAL_UART_RxCpltCallback+0x70>)
 8000e0c:	7013      	strb	r3, [r2, #0]
		noteByteFlag = 0;// clear the flag
 8000e0e:	4b0c      	ldr	r3, [pc, #48]	; (8000e40 <HAL_UART_RxCpltCallback+0x6c>)
 8000e10:	2200      	movs	r2, #0
 8000e12:	705a      	strb	r2, [r3, #1]
		HAL_UART_Receive_IT(&huart2, rx_buff, 1);
 8000e14:	2201      	movs	r2, #1
 8000e16:	4909      	ldr	r1, [pc, #36]	; (8000e3c <HAL_UART_RxCpltCallback+0x68>)
 8000e18:	480b      	ldr	r0, [pc, #44]	; (8000e48 <HAL_UART_RxCpltCallback+0x74>)
 8000e1a:	f001 ff1e 	bl	8002c5a <HAL_UART_Receive_IT>
		return;
 8000e1e:	e7ed      	b.n	8000dfc <HAL_UART_RxCpltCallback+0x28>
		noteByteFlag = 0;
 8000e20:	4a07      	ldr	r2, [pc, #28]	; (8000e40 <HAL_UART_RxCpltCallback+0x6c>)
 8000e22:	2100      	movs	r1, #0
 8000e24:	7051      	strb	r1, [r2, #1]
		MIDI_rx[2] = rx_buff[0];
 8000e26:	4a07      	ldr	r2, [pc, #28]	; (8000e44 <HAL_UART_RxCpltCallback+0x70>)
 8000e28:	7093      	strb	r3, [r2, #2]
		HAL_UART_Receive_IT(&huart2, rx_buff, 1);
 8000e2a:	2201      	movs	r2, #1
 8000e2c:	4903      	ldr	r1, [pc, #12]	; (8000e3c <HAL_UART_RxCpltCallback+0x68>)
 8000e2e:	4806      	ldr	r0, [pc, #24]	; (8000e48 <HAL_UART_RxCpltCallback+0x74>)
 8000e30:	f001 ff13 	bl	8002c5a <HAL_UART_Receive_IT>
		procMIDI();//we have three bytes, LET's GO PROCESS THEM!
 8000e34:	f7ff ff86 	bl	8000d44 <procMIDI>
		return;
 8000e38:	e7e0      	b.n	8000dfc <HAL_UART_RxCpltCallback+0x28>
 8000e3a:	bf00      	nop
 8000e3c:	200000ac 	.word	0x200000ac
 8000e40:	20000094 	.word	0x20000094
 8000e44:	20001054 	.word	0x20001054
 8000e48:	200010a4 	.word	0x200010a4

08000e4c <SystemClock_Config>:
{
 8000e4c:	b570      	push	{r4, r5, r6, lr}
 8000e4e:	b09a      	sub	sp, #104	; 0x68
  RCC_OscInitTypeDef RCC_OscInitStruct = {0};
 8000e50:	2230      	movs	r2, #48	; 0x30
 8000e52:	2100      	movs	r1, #0
 8000e54:	a80e      	add	r0, sp, #56	; 0x38
 8000e56:	f002 f87d 	bl	8002f54 <memset>
  RCC_ClkInitTypeDef RCC_ClkInitStruct = {0};
 8000e5a:	2400      	movs	r4, #0
 8000e5c:	9409      	str	r4, [sp, #36]	; 0x24
 8000e5e:	940a      	str	r4, [sp, #40]	; 0x28
 8000e60:	940b      	str	r4, [sp, #44]	; 0x2c
 8000e62:	940c      	str	r4, [sp, #48]	; 0x30
 8000e64:	940d      	str	r4, [sp, #52]	; 0x34
  RCC_PeriphCLKInitTypeDef PeriphClkInitStruct = {0};
 8000e66:	9403      	str	r4, [sp, #12]
 8000e68:	9404      	str	r4, [sp, #16]
 8000e6a:	9405      	str	r4, [sp, #20]
 8000e6c:	9406      	str	r4, [sp, #24]
 8000e6e:	9407      	str	r4, [sp, #28]
 8000e70:	9408      	str	r4, [sp, #32]
  __HAL_RCC_PWR_CLK_ENABLE();
 8000e72:	9401      	str	r4, [sp, #4]
 8000e74:	4b1f      	ldr	r3, [pc, #124]	; (8000ef4 <SystemClock_Config+0xa8>)
 8000e76:	6c1a      	ldr	r2, [r3, #64]	; 0x40
 8000e78:	f042 5280 	orr.w	r2, r2, #268435456	; 0x10000000
 8000e7c:	641a      	str	r2, [r3, #64]	; 0x40
 8000e7e:	6c1b      	ldr	r3, [r3, #64]	; 0x40
 8000e80:	f003 5380 	and.w	r3, r3, #268435456	; 0x10000000
 8000e84:	9301      	str	r3, [sp, #4]
 8000e86:	9b01      	ldr	r3, [sp, #4]
  __HAL_PWR_VOLTAGESCALING_CONFIG(PWR_REGULATOR_VOLTAGE_SCALE1);
 8000e88:	9402      	str	r4, [sp, #8]
 8000e8a:	4b1b      	ldr	r3, [pc, #108]	; (8000ef8 <SystemClock_Config+0xac>)
 8000e8c:	681a      	ldr	r2, [r3, #0]
 8000e8e:	f442 4240 	orr.w	r2, r2, #49152	; 0xc000
 8000e92:	601a      	str	r2, [r3, #0]
 8000e94:	681b      	ldr	r3, [r3, #0]
 8000e96:	f403 4340 	and.w	r3, r3, #49152	; 0xc000
 8000e9a:	9302      	str	r3, [sp, #8]
 8000e9c:	9b02      	ldr	r3, [sp, #8]
  RCC_OscInitStruct.OscillatorType = RCC_OSCILLATORTYPE_HSE;
 8000e9e:	2601      	movs	r6, #1
 8000ea0:	960e      	str	r6, [sp, #56]	; 0x38
  RCC_OscInitStruct.HSEState = RCC_HSE_ON;
 8000ea2:	f44f 3380 	mov.w	r3, #65536	; 0x10000
 8000ea6:	930f      	str	r3, [sp, #60]	; 0x3c
  RCC_OscInitStruct.PLL.PLLState = RCC_PLL_ON;
 8000ea8:	2502      	movs	r5, #2
 8000eaa:	9514      	str	r5, [sp, #80]	; 0x50
  RCC_OscInitStruct.PLL.PLLSource = RCC_PLLSOURCE_HSE;
 8000eac:	f44f 0380 	mov.w	r3, #4194304	; 0x400000
 8000eb0:	9315      	str	r3, [sp, #84]	; 0x54
  RCC_OscInitStruct.PLL.PLLM = 12;
 8000eb2:	230c      	movs	r3, #12
 8000eb4:	9316      	str	r3, [sp, #88]	; 0x58
  RCC_OscInitStruct.PLL.PLLN = 96;
 8000eb6:	2360      	movs	r3, #96	; 0x60
 8000eb8:	9317      	str	r3, [sp, #92]	; 0x5c
  RCC_OscInitStruct.PLL.PLLP = RCC_PLLP_DIV2;
 8000eba:	9518      	str	r5, [sp, #96]	; 0x60
  RCC_OscInitStruct.PLL.PLLQ = 4;
 8000ebc:	2304      	movs	r3, #4
 8000ebe:	9319      	str	r3, [sp, #100]	; 0x64
  if (HAL_RCC_OscConfig(&RCC_OscInitStruct) != HAL_OK)
 8000ec0:	a80e      	add	r0, sp, #56	; 0x38
 8000ec2:	f001 f955 	bl	8002170 <HAL_RCC_OscConfig>
  RCC_ClkInitStruct.ClockType = RCC_CLOCKTYPE_HCLK|RCC_CLOCKTYPE_SYSCLK
 8000ec6:	230f      	movs	r3, #15
 8000ec8:	9309      	str	r3, [sp, #36]	; 0x24
  RCC_ClkInitStruct.SYSCLKSource = RCC_SYSCLKSOURCE_PLLCLK;
 8000eca:	950a      	str	r5, [sp, #40]	; 0x28
  RCC_ClkInitStruct.AHBCLKDivider = RCC_SYSCLK_DIV1;
 8000ecc:	940b      	str	r4, [sp, #44]	; 0x2c
  RCC_ClkInitStruct.APB1CLKDivider = RCC_HCLK_DIV2;
 8000ece:	f44f 5380 	mov.w	r3, #4096	; 0x1000
 8000ed2:	930c      	str	r3, [sp, #48]	; 0x30
  RCC_ClkInitStruct.APB2CLKDivider = RCC_HCLK_DIV1;
 8000ed4:	940d      	str	r4, [sp, #52]	; 0x34
  if (HAL_RCC_ClockConfig(&RCC_ClkInitStruct, FLASH_LATENCY_3) != HAL_OK)
 8000ed6:	2103      	movs	r1, #3
 8000ed8:	a809      	add	r0, sp, #36	; 0x24
 8000eda:	f001 fb8f 	bl	80025fc <HAL_RCC_ClockConfig>
  PeriphClkInitStruct.PeriphClockSelection = RCC_PERIPHCLK_I2S;
 8000ede:	9603      	str	r6, [sp, #12]
  PeriphClkInitStruct.PLLI2S.PLLI2SN = 194;
 8000ee0:	23c2      	movs	r3, #194	; 0xc2
 8000ee2:	9305      	str	r3, [sp, #20]
  PeriphClkInitStruct.PLLI2S.PLLI2SM = 16;
 8000ee4:	2310      	movs	r3, #16
 8000ee6:	9304      	str	r3, [sp, #16]
  PeriphClkInitStruct.PLLI2S.PLLI2SR = 2;
 8000ee8:	9506      	str	r5, [sp, #24]
  if (HAL_RCCEx_PeriphCLKConfig(&PeriphClkInitStruct) != HAL_OK)
 8000eea:	a803      	add	r0, sp, #12
 8000eec:	f001 fc5c 	bl	80027a8 <HAL_RCCEx_PeriphCLKConfig>
}
 8000ef0:	b01a      	add	sp, #104	; 0x68
 8000ef2:	bd70      	pop	{r4, r5, r6, pc}
 8000ef4:	40023800 	.word	0x40023800
 8000ef8:	40007000 	.word	0x40007000

08000efc <main>:
{
 8000efc:	b508      	push	{r3, lr}
  HAL_Init();
 8000efe:	f000 fa1b 	bl	8001338 <HAL_Init>
  SystemClock_Config();
 8000f02:	f7ff ffa3 	bl	8000e4c <SystemClock_Config>
  MX_GPIO_Init();
 8000f06:	f7ff fe19 	bl	8000b3c <MX_GPIO_Init>
  MX_DMA_Init();
 8000f0a:	f7ff fe4b 	bl	8000ba4 <MX_DMA_Init>
  MX_I2S1_Init();
 8000f0e:	f7ff fe31 	bl	8000b74 <MX_I2S1_Init>
  MX_USART2_UART_Init();
 8000f12:	f7ff fe61 	bl	8000bd8 <MX_USART2_UART_Init>
  Synth_Init();//inits some basic settings to the oscillator
 8000f16:	f000 f97f 	bl	8001218 <Synth_Init>
  HAL_I2S_Init(&hi2s1);
 8000f1a:	4c08      	ldr	r4, [pc, #32]	; (8000f3c <main+0x40>)
 8000f1c:	4620      	mov	r0, r4
 8000f1e:	f000 fd91 	bl	8001a44 <HAL_I2S_Init>
  HAL_I2S_Transmit_DMA(&hi2s1, (uint16_t*) &audiobuff[0], BUFF_LEN);
 8000f22:	f44f 62fa 	mov.w	r2, #2000	; 0x7d0
 8000f26:	4906      	ldr	r1, [pc, #24]	; (8000f40 <main+0x44>)
 8000f28:	4620      	mov	r0, r4
 8000f2a:	f000 fe59 	bl	8001be0 <HAL_I2S_Transmit_DMA>
	HAL_UART_Receive_IT(&huart2, rx_buff, 1);
 8000f2e:	2201      	movs	r2, #1
 8000f30:	4904      	ldr	r1, [pc, #16]	; (8000f44 <main+0x48>)
 8000f32:	4805      	ldr	r0, [pc, #20]	; (8000f48 <main+0x4c>)
 8000f34:	f001 fe91 	bl	8002c5a <HAL_UART_Receive_IT>
  while (1)
 8000f38:	e7f9      	b.n	8000f2e <main+0x32>
 8000f3a:	bf00      	nop
 8000f3c:	20001058 	.word	0x20001058
 8000f40:	200000b0 	.word	0x200000b0
 8000f44:	200000ac 	.word	0x200000ac
 8000f48:	200010a4 	.word	0x200010a4

08000f4c <Error_Handler>:
{
  /* USER CODE BEGIN Error_Handler_Debug */
  /* User can add his own implementation to report the HAL error return state */

  /* USER CODE END Error_Handler_Debug */
}
 8000f4c:	4770      	bx	lr

08000f4e <osc_init>:
/*===============================================================================================================*/

void
osc_init(Oscillator_t * op, float_t amp, float_t freq)
{
	op->amp = amp;
 8000f4e:	ed80 0a00 	vstr	s0, [r0]
	op->last_amp = amp;
 8000f52:	ed80 0a01 	vstr	s0, [r0, #4]
	op->syncin = 0;  //hardsync in
 8000f56:	2300      	movs	r3, #0
 8000f58:	7303      	strb	r3, [r0, #12]
	op->syncout = 0;  //hardsync out
 8000f5a:	7343      	strb	r3, [r0, #13]
	op->freq = freq;
 8000f5c:	edc0 0a02 	vstr	s1, [r0, #8]
	op->phase = 0;
 8000f60:	2300      	movs	r3, #0
 8000f62:	6103      	str	r3, [r0, #16]
	op->out = 0;
 8000f64:	6203      	str	r3, [r0, #32]
	op->modInd = 0;
 8000f66:	6183      	str	r3, [r0, #24]
	op->mul = 1;
 8000f68:	f04f 537e 	mov.w	r3, #1065353216	; 0x3f800000
 8000f6c:	61c3      	str	r3, [r0, #28]
}
 8000f6e:	4770      	bx	lr

08000f70 <OpSetFreq>:
/*-------------------------------------------------------*/

void
OpSetFreq(Oscillator_t * op, float_t f)
{
	op->freq = f;
 8000f70:	ed80 0a02 	vstr	s0, [r0, #8]
}
 8000f74:	4770      	bx	lr
	...

08000f78 <BasicSaw>:

/*-------------------------------------------------------*/
float_t BasicSaw(Oscillator_t * op) // basic sawtooth
{
	while (op->phase < 0) // keep phase in [0, 2pi]
 8000f78:	edd0 7a04 	vldr	s15, [r0, #16]
 8000f7c:	eef5 7ac0 	vcmpe.f32	s15, #0.0
 8000f80:	eef1 fa10 	vmrs	APSR_nzcv, fpscr
 8000f84:	d50c      	bpl.n	8000fa0 <BasicSaw+0x28>
		op->phase += _2PI;
 8000f86:	ed9f 7a25 	vldr	s14, [pc, #148]	; 800101c <BasicSaw+0xa4>
 8000f8a:	ee77 7a87 	vadd.f32	s15, s15, s14
 8000f8e:	edc0 7a04 	vstr	s15, [r0, #16]
 8000f92:	e7f1      	b.n	8000f78 <BasicSaw>
	while (op->phase >= _2PI)
		op->phase -= _2PI;
 8000f94:	ed9f 7a21 	vldr	s14, [pc, #132]	; 800101c <BasicSaw+0xa4>
 8000f98:	ee77 7ac7 	vsub.f32	s15, s15, s14
 8000f9c:	edc0 7a04 	vstr	s15, [r0, #16]
	while (op->phase >= _2PI)
 8000fa0:	edd0 7a04 	vldr	s15, [r0, #16]
 8000fa4:	ed9f 7a1d 	vldr	s14, [pc, #116]	; 800101c <BasicSaw+0xa4>
 8000fa8:	eef4 7ac7 	vcmpe.f32	s15, s14
 8000fac:	eef1 fa10 	vmrs	APSR_nzcv, fpscr
 8000fb0:	daf0      	bge.n	8000f94 <BasicSaw+0x1c>

	if (op->phase < _PI) op->out = 0.5f*op->amp * (op->phase / _PI);
 8000fb2:	ed9f 7a1b 	vldr	s14, [pc, #108]	; 8001020 <BasicSaw+0xa8>
 8000fb6:	eef4 7ac7 	vcmpe.f32	s15, s14
 8000fba:	eef1 fa10 	vmrs	APSR_nzcv, fpscr
 8000fbe:	d51a      	bpl.n	8000ff6 <BasicSaw+0x7e>
 8000fc0:	ed90 7a00 	vldr	s14, [r0]
 8000fc4:	eef6 6a00 	vmov.f32	s13, #96	; 0x3f000000  0.5
 8000fc8:	ee27 7a26 	vmul.f32	s14, s14, s13
 8000fcc:	ed9f 6a14 	vldr	s12, [pc, #80]	; 8001020 <BasicSaw+0xa8>
 8000fd0:	eec7 6a86 	vdiv.f32	s13, s15, s12
 8000fd4:	ee27 7a26 	vmul.f32	s14, s14, s13
 8000fd8:	ed80 7a08 	vstr	s14, [r0, #32]
	else op->out =  .5f*op->amp * (op->phase / _PI - 2);

	op->phase += _2PI * Ts * op->freq; // increment phase
 8000fdc:	ed90 7a02 	vldr	s14, [r0, #8]
 8000fe0:	eddf 6a10 	vldr	s13, [pc, #64]	; 8001024 <BasicSaw+0xac>
 8000fe4:	ee27 7a26 	vmul.f32	s14, s14, s13
 8000fe8:	ee77 7a87 	vadd.f32	s15, s15, s14
 8000fec:	edc0 7a04 	vstr	s15, [r0, #16]
	return op->out;
}
 8000ff0:	ed90 0a08 	vldr	s0, [r0, #32]
 8000ff4:	4770      	bx	lr
	else op->out =  .5f*op->amp * (op->phase / _PI - 2);
 8000ff6:	ed90 7a00 	vldr	s14, [r0]
 8000ffa:	eef6 6a00 	vmov.f32	s13, #96	; 0x3f000000  0.5
 8000ffe:	ee27 7a26 	vmul.f32	s14, s14, s13
 8001002:	ed9f 6a07 	vldr	s12, [pc, #28]	; 8001020 <BasicSaw+0xa8>
 8001006:	eec7 6a86 	vdiv.f32	s13, s15, s12
 800100a:	eeb0 6a00 	vmov.f32	s12, #0	; 0x40000000  2.0
 800100e:	ee76 6ac6 	vsub.f32	s13, s13, s12
 8001012:	ee27 7a26 	vmul.f32	s14, s14, s13
 8001016:	ed80 7a08 	vstr	s14, [r0, #32]
 800101a:	e7df      	b.n	8000fdc <BasicSaw+0x64>
 800101c:	40c90fdb 	.word	0x40c90fdb
 8001020:	40490fdb 	.word	0x40490fdb
 8001024:	394de32f 	.word	0x394de32f

08001028 <waveCompute>:
/*-------------------------------------------------------*/


float waveCompute(float frq)
{
 8001028:	b510      	push	{r4, lr}
	float y;

	OpSetFreq(&op1, frq);
 800102a:	4c06      	ldr	r4, [pc, #24]	; (8001044 <waveCompute+0x1c>)
 800102c:	4620      	mov	r0, r4
 800102e:	f7ff ff9f 	bl	8000f70 <OpSetFreq>

	y = 0.8f * BasicSaw(&op1);
 8001032:	4620      	mov	r0, r4
 8001034:	f7ff ffa0 	bl	8000f78 <BasicSaw>

	return y;
}
 8001038:	eddf 7a03 	vldr	s15, [pc, #12]	; 8001048 <waveCompute+0x20>
 800103c:	ee20 0a27 	vmul.f32	s0, s0, s15
 8001040:	bd10      	pop	{r4, pc}
 8001042:	bf00      	nop
 8001044:	20001144 	.word	0x20001144
 8001048:	3f4ccccd 	.word	0x3f4ccccd

0800104c <HAL_MspInit>:
/* USER CODE END 0 */
/**
  * Initializes the Global MSP.
  */
void HAL_MspInit(void)
{
 800104c:	b082      	sub	sp, #8
  /* USER CODE BEGIN MspInit 0 */

  /* USER CODE END MspInit 0 */

  __HAL_RCC_SYSCFG_CLK_ENABLE();
 800104e:	2100      	movs	r1, #0
 8001050:	9100      	str	r1, [sp, #0]
 8001052:	4b0b      	ldr	r3, [pc, #44]	; (8001080 <HAL_MspInit+0x34>)
 8001054:	6c5a      	ldr	r2, [r3, #68]	; 0x44
 8001056:	f442 4280 	orr.w	r2, r2, #16384	; 0x4000
 800105a:	645a      	str	r2, [r3, #68]	; 0x44
 800105c:	6c5a      	ldr	r2, [r3, #68]	; 0x44
 800105e:	f402 4280 	and.w	r2, r2, #16384	; 0x4000
 8001062:	9200      	str	r2, [sp, #0]
 8001064:	9a00      	ldr	r2, [sp, #0]
  __HAL_RCC_PWR_CLK_ENABLE();
 8001066:	9101      	str	r1, [sp, #4]
 8001068:	6c1a      	ldr	r2, [r3, #64]	; 0x40
 800106a:	f042 5280 	orr.w	r2, r2, #268435456	; 0x10000000
 800106e:	641a      	str	r2, [r3, #64]	; 0x40
 8001070:	6c1b      	ldr	r3, [r3, #64]	; 0x40
 8001072:	f003 5380 	and.w	r3, r3, #268435456	; 0x10000000
 8001076:	9301      	str	r3, [sp, #4]
 8001078:	9b01      	ldr	r3, [sp, #4]
  /* System interrupt init*/

  /* USER CODE BEGIN MspInit 1 */

  /* USER CODE END MspInit 1 */
}
 800107a:	b002      	add	sp, #8
 800107c:	4770      	bx	lr
 800107e:	bf00      	nop
 8001080:	40023800 	.word	0x40023800

08001084 <HAL_I2S_MspInit>:
* This function configures the hardware resources used in this example
* @param hi2s: I2S handle pointer
* @retval None
*/
void HAL_I2S_MspInit(I2S_HandleTypeDef* hi2s)
{
 8001084:	b530      	push	{r4, r5, lr}
 8001086:	b089      	sub	sp, #36	; 0x24
  GPIO_InitTypeDef GPIO_InitStruct = {0};
 8001088:	2300      	movs	r3, #0
 800108a:	9303      	str	r3, [sp, #12]
 800108c:	9304      	str	r3, [sp, #16]
 800108e:	9305      	str	r3, [sp, #20]
 8001090:	9306      	str	r3, [sp, #24]
 8001092:	9307      	str	r3, [sp, #28]
  if(hi2s->Instance==SPI1)
 8001094:	6802      	ldr	r2, [r0, #0]
 8001096:	4b27      	ldr	r3, [pc, #156]	; (8001134 <HAL_I2S_MspInit+0xb0>)
 8001098:	429a      	cmp	r2, r3
 800109a:	d001      	beq.n	80010a0 <HAL_I2S_MspInit+0x1c>
  /* USER CODE BEGIN SPI1_MspInit 1 */

  /* USER CODE END SPI1_MspInit 1 */
  }

}
 800109c:	b009      	add	sp, #36	; 0x24
 800109e:	bd30      	pop	{r4, r5, pc}
 80010a0:	4604      	mov	r4, r0
    __HAL_RCC_SPI1_CLK_ENABLE();
 80010a2:	2500      	movs	r5, #0
 80010a4:	9501      	str	r5, [sp, #4]
 80010a6:	f503 3384 	add.w	r3, r3, #67584	; 0x10800
 80010aa:	6c5a      	ldr	r2, [r3, #68]	; 0x44
 80010ac:	f442 5280 	orr.w	r2, r2, #4096	; 0x1000
 80010b0:	645a      	str	r2, [r3, #68]	; 0x44
 80010b2:	6c5a      	ldr	r2, [r3, #68]	; 0x44
 80010b4:	f402 5280 	and.w	r2, r2, #4096	; 0x1000
 80010b8:	9201      	str	r2, [sp, #4]
 80010ba:	9a01      	ldr	r2, [sp, #4]
    __HAL_RCC_GPIOA_CLK_ENABLE();
 80010bc:	9502      	str	r5, [sp, #8]
 80010be:	6b1a      	ldr	r2, [r3, #48]	; 0x30
 80010c0:	f042 0201 	orr.w	r2, r2, #1
 80010c4:	631a      	str	r2, [r3, #48]	; 0x30
 80010c6:	6b1b      	ldr	r3, [r3, #48]	; 0x30
 80010c8:	f003 0301 	and.w	r3, r3, #1
 80010cc:	9302      	str	r3, [sp, #8]
 80010ce:	9b02      	ldr	r3, [sp, #8]
    GPIO_InitStruct.Pin = GPIO_PIN_4|GPIO_PIN_5|GPIO_PIN_7;
 80010d0:	23b0      	movs	r3, #176	; 0xb0
 80010d2:	9303      	str	r3, [sp, #12]
    GPIO_InitStruct.Mode = GPIO_MODE_AF_PP;
 80010d4:	2302      	movs	r3, #2
 80010d6:	9304      	str	r3, [sp, #16]
    GPIO_InitStruct.Pull = GPIO_NOPULL;
 80010d8:	9505      	str	r5, [sp, #20]
    GPIO_InitStruct.Speed = GPIO_SPEED_FREQ_LOW;
 80010da:	9506      	str	r5, [sp, #24]
    GPIO_InitStruct.Alternate = GPIO_AF5_SPI1;
 80010dc:	2305      	movs	r3, #5
 80010de:	9307      	str	r3, [sp, #28]
    HAL_GPIO_Init(GPIOA, &GPIO_InitStruct);
 80010e0:	a903      	add	r1, sp, #12
 80010e2:	4815      	ldr	r0, [pc, #84]	; (8001138 <HAL_I2S_MspInit+0xb4>)
 80010e4:	f000 fbda 	bl	800189c <HAL_GPIO_Init>
    hdma_spi1_tx.Instance = DMA2_Stream2;
 80010e8:	4814      	ldr	r0, [pc, #80]	; (800113c <HAL_I2S_MspInit+0xb8>)
 80010ea:	4b15      	ldr	r3, [pc, #84]	; (8001140 <HAL_I2S_MspInit+0xbc>)
 80010ec:	6003      	str	r3, [r0, #0]
    hdma_spi1_tx.Init.Channel = DMA_CHANNEL_2;
 80010ee:	f04f 6380 	mov.w	r3, #67108864	; 0x4000000
 80010f2:	6043      	str	r3, [r0, #4]
    hdma_spi1_tx.Init.Direction = DMA_MEMORY_TO_PERIPH;
 80010f4:	2340      	movs	r3, #64	; 0x40
 80010f6:	6083      	str	r3, [r0, #8]
    hdma_spi1_tx.Init.PeriphInc = DMA_PINC_DISABLE;
 80010f8:	60c5      	str	r5, [r0, #12]
    hdma_spi1_tx.Init.MemInc = DMA_MINC_ENABLE;
 80010fa:	f44f 6380 	mov.w	r3, #1024	; 0x400
 80010fe:	6103      	str	r3, [r0, #16]
    hdma_spi1_tx.Init.PeriphDataAlignment = DMA_PDATAALIGN_HALFWORD;
 8001100:	f44f 6300 	mov.w	r3, #2048	; 0x800
 8001104:	6143      	str	r3, [r0, #20]
    hdma_spi1_tx.Init.MemDataAlignment = DMA_MDATAALIGN_HALFWORD;
 8001106:	f44f 5300 	mov.w	r3, #8192	; 0x2000
 800110a:	6183      	str	r3, [r0, #24]
    hdma_spi1_tx.Init.Mode = DMA_CIRCULAR;
 800110c:	f44f 7380 	mov.w	r3, #256	; 0x100
 8001110:	61c3      	str	r3, [r0, #28]
    hdma_spi1_tx.Init.Priority = DMA_PRIORITY_LOW;
 8001112:	6205      	str	r5, [r0, #32]
    hdma_spi1_tx.Init.FIFOMode = DMA_FIFOMODE_ENABLE;
 8001114:	2304      	movs	r3, #4
 8001116:	6243      	str	r3, [r0, #36]	; 0x24
    hdma_spi1_tx.Init.FIFOThreshold = DMA_FIFO_THRESHOLD_FULL;
 8001118:	2303      	movs	r3, #3
 800111a:	6283      	str	r3, [r0, #40]	; 0x28
    hdma_spi1_tx.Init.MemBurst = DMA_MBURST_SINGLE;
 800111c:	62c5      	str	r5, [r0, #44]	; 0x2c
    hdma_spi1_tx.Init.PeriphBurst = DMA_PBURST_SINGLE;
 800111e:	6305      	str	r5, [r0, #48]	; 0x30
    if (HAL_DMA_Init(&hdma_spi1_tx) != HAL_OK)
 8001120:	f000 fa20 	bl	8001564 <HAL_DMA_Init>
 8001124:	b918      	cbnz	r0, 800112e <HAL_I2S_MspInit+0xaa>
    __HAL_LINKDMA(hi2s,hdmatx,hdma_spi1_tx);
 8001126:	4b05      	ldr	r3, [pc, #20]	; (800113c <HAL_I2S_MspInit+0xb8>)
 8001128:	63a3      	str	r3, [r4, #56]	; 0x38
 800112a:	639c      	str	r4, [r3, #56]	; 0x38
}
 800112c:	e7b6      	b.n	800109c <HAL_I2S_MspInit+0x18>
      Error_Handler();
 800112e:	f7ff ff0d 	bl	8000f4c <Error_Handler>
 8001132:	e7f8      	b.n	8001126 <HAL_I2S_MspInit+0xa2>
 8001134:	40013000 	.word	0x40013000
 8001138:	40020000 	.word	0x40020000
 800113c:	200010e4 	.word	0x200010e4
 8001140:	40026440 	.word	0x40026440

08001144 <HAL_UART_MspInit>:
* This function configures the hardware resources used in this example
* @param huart: UART handle pointer
* @retval None
*/
void HAL_UART_MspInit(UART_HandleTypeDef* huart)
{
 8001144:	b510      	push	{r4, lr}
 8001146:	b088      	sub	sp, #32
  GPIO_InitTypeDef GPIO_InitStruct = {0};
 8001148:	2300      	movs	r3, #0
 800114a:	9303      	str	r3, [sp, #12]
 800114c:	9304      	str	r3, [sp, #16]
 800114e:	9305      	str	r3, [sp, #20]
 8001150:	9306      	str	r3, [sp, #24]
 8001152:	9307      	str	r3, [sp, #28]
  if(huart->Instance==USART2)
 8001154:	6802      	ldr	r2, [r0, #0]
 8001156:	4b19      	ldr	r3, [pc, #100]	; (80011bc <HAL_UART_MspInit+0x78>)
 8001158:	429a      	cmp	r2, r3
 800115a:	d001      	beq.n	8001160 <HAL_UART_MspInit+0x1c>
  /* USER CODE BEGIN USART2_MspInit 1 */

  /* USER CODE END USART2_MspInit 1 */
  }

}
 800115c:	b008      	add	sp, #32
 800115e:	bd10      	pop	{r4, pc}
    __HAL_RCC_USART2_CLK_ENABLE();
 8001160:	2400      	movs	r4, #0
 8001162:	9401      	str	r4, [sp, #4]
 8001164:	f503 33fa 	add.w	r3, r3, #128000	; 0x1f400
 8001168:	6c1a      	ldr	r2, [r3, #64]	; 0x40
 800116a:	f442 3200 	orr.w	r2, r2, #131072	; 0x20000
 800116e:	641a      	str	r2, [r3, #64]	; 0x40
 8001170:	6c1a      	ldr	r2, [r3, #64]	; 0x40
 8001172:	f402 3200 	and.w	r2, r2, #131072	; 0x20000
 8001176:	9201      	str	r2, [sp, #4]
 8001178:	9a01      	ldr	r2, [sp, #4]
    __HAL_RCC_GPIOA_CLK_ENABLE();
 800117a:	9402      	str	r4, [sp, #8]
 800117c:	6b1a      	ldr	r2, [r3, #48]	; 0x30
 800117e:	f042 0201 	orr.w	r2, r2, #1
 8001182:	631a      	str	r2, [r3, #48]	; 0x30
 8001184:	6b1b      	ldr	r3, [r3, #48]	; 0x30
 8001186:	f003 0301 	and.w	r3, r3, #1
 800118a:	9302      	str	r3, [sp, #8]
 800118c:	9b02      	ldr	r3, [sp, #8]
    GPIO_InitStruct.Pin = GPIO_PIN_2|GPIO_PIN_3;
 800118e:	230c      	movs	r3, #12
 8001190:	9303      	str	r3, [sp, #12]
    GPIO_InitStruct.Mode = GPIO_MODE_AF_PP;
 8001192:	2302      	movs	r3, #2
 8001194:	9304      	str	r3, [sp, #16]
    GPIO_InitStruct.Pull = GPIO_NOPULL;
 8001196:	9405      	str	r4, [sp, #20]
    GPIO_InitStruct.Speed = GPIO_SPEED_FREQ_VERY_HIGH;
 8001198:	2303      	movs	r3, #3
 800119a:	9306      	str	r3, [sp, #24]
    GPIO_InitStruct.Alternate = GPIO_AF7_USART2;
 800119c:	2307      	movs	r3, #7
 800119e:	9307      	str	r3, [sp, #28]
    HAL_GPIO_Init(GPIOA, &GPIO_InitStruct);
 80011a0:	a903      	add	r1, sp, #12
 80011a2:	4807      	ldr	r0, [pc, #28]	; (80011c0 <HAL_UART_MspInit+0x7c>)
 80011a4:	f000 fb7a 	bl	800189c <HAL_GPIO_Init>
    HAL_NVIC_SetPriority(USART2_IRQn, 0, 0);
 80011a8:	4622      	mov	r2, r4
 80011aa:	4621      	mov	r1, r4
 80011ac:	2026      	movs	r0, #38	; 0x26
 80011ae:	f000 f901 	bl	80013b4 <HAL_NVIC_SetPriority>
    HAL_NVIC_EnableIRQ(USART2_IRQn);
 80011b2:	2026      	movs	r0, #38	; 0x26
 80011b4:	f000 f932 	bl	800141c <HAL_NVIC_EnableIRQ>
}
 80011b8:	e7d0      	b.n	800115c <HAL_UART_MspInit+0x18>
 80011ba:	bf00      	nop
 80011bc:	40004400 	.word	0x40004400
 80011c0:	40020000 	.word	0x40020000

080011c4 <NMI_Handler>:

  /* USER CODE END NonMaskableInt_IRQn 0 */
  /* USER CODE BEGIN NonMaskableInt_IRQn 1 */

  /* USER CODE END NonMaskableInt_IRQn 1 */
}
 80011c4:	4770      	bx	lr

080011c6 <HardFault_Handler>:
void HardFault_Handler(void)
{
  /* USER CODE BEGIN HardFault_IRQn 0 */

  /* USER CODE END HardFault_IRQn 0 */
  while (1)
 80011c6:	e7fe      	b.n	80011c6 <HardFault_Handler>

080011c8 <MemManage_Handler>:
void MemManage_Handler(void)
{
  /* USER CODE BEGIN MemoryManagement_IRQn 0 */

  /* USER CODE END MemoryManagement_IRQn 0 */
  while (1)
 80011c8:	e7fe      	b.n	80011c8 <MemManage_Handler>

080011ca <BusFault_Handler>:
void BusFault_Handler(void)
{
  /* USER CODE BEGIN BusFault_IRQn 0 */

  /* USER CODE END BusFault_IRQn 0 */
  while (1)
 80011ca:	e7fe      	b.n	80011ca <BusFault_Handler>

080011cc <UsageFault_Handler>:
void UsageFault_Handler(void)
{
  /* USER CODE BEGIN UsageFault_IRQn 0 */

  /* USER CODE END UsageFault_IRQn 0 */
  while (1)
 80011cc:	e7fe      	b.n	80011cc <UsageFault_Handler>

080011ce <SVC_Handler>:

  /* USER CODE END SVCall_IRQn 0 */
  /* USER CODE BEGIN SVCall_IRQn 1 */

  /* USER CODE END SVCall_IRQn 1 */
}
 80011ce:	4770      	bx	lr

080011d0 <DebugMon_Handler>:

  /* USER CODE END DebugMonitor_IRQn 0 */
  /* USER CODE BEGIN DebugMonitor_IRQn 1 */

  /* USER CODE END DebugMonitor_IRQn 1 */
}
 80011d0:	4770      	bx	lr

080011d2 <PendSV_Handler>:

  /* USER CODE END PendSV_IRQn 0 */
  /* USER CODE BEGIN PendSV_IRQn 1 */

  /* USER CODE END PendSV_IRQn 1 */
}
 80011d2:	4770      	bx	lr

080011d4 <SysTick_Handler>:

/**
  * @brief This function handles System tick timer.
  */
void SysTick_Handler(void)
{
 80011d4:	b508      	push	{r3, lr}
  /* USER CODE BEGIN SysTick_IRQn 0 */

  /* USER CODE END SysTick_IRQn 0 */
  HAL_IncTick();
 80011d6:	f000 f8c9 	bl	800136c <HAL_IncTick>
  /* USER CODE BEGIN SysTick_IRQn 1 */

  /* USER CODE END SysTick_IRQn 1 */
}
 80011da:	bd08      	pop	{r3, pc}

080011dc <USART2_IRQHandler>:

/**
  * @brief This function handles USART2 global interrupt.
  */
void USART2_IRQHandler(void)
{
 80011dc:	b508      	push	{r3, lr}
  /* USER CODE BEGIN USART2_IRQn 0 */

  /* USER CODE END USART2_IRQn 0 */
  HAL_UART_IRQHandler(&huart2);
 80011de:	4802      	ldr	r0, [pc, #8]	; (80011e8 <USART2_IRQHandler+0xc>)
 80011e0:	f001 fdc8 	bl	8002d74 <HAL_UART_IRQHandler>
  /* USER CODE BEGIN USART2_IRQn 1 */

  /* USER CODE END USART2_IRQn 1 */
}
 80011e4:	bd08      	pop	{r3, pc}
 80011e6:	bf00      	nop
 80011e8:	200010a4 	.word	0x200010a4

080011ec <DMA2_Stream2_IRQHandler>:

/**
  * @brief This function handles DMA2 stream2 global interrupt.
  */
void DMA2_Stream2_IRQHandler(void)
{
 80011ec:	b508      	push	{r3, lr}
  /* USER CODE BEGIN DMA2_Stream2_IRQn 0 */

  /* USER CODE END DMA2_Stream2_IRQn 0 */
  HAL_DMA_IRQHandler(&hdma_spi1_tx);
 80011ee:	4802      	ldr	r0, [pc, #8]	; (80011f8 <DMA2_Stream2_IRQHandler+0xc>)
 80011f0:	f000 fa66 	bl	80016c0 <HAL_DMA_IRQHandler>
  /* USER CODE BEGIN DMA2_Stream2_IRQn 1 */

  /* USER CODE END DMA2_Stream2_IRQn 1 */
}
 80011f4:	bd08      	pop	{r3, pc}
 80011f6:	bf00      	nop
 80011f8:	200010e4 	.word	0x200010e4

080011fc <SystemInit>:
  */
void SystemInit(void)
{
  /* FPU settings ------------------------------------------------------------*/
  #if (__FPU_PRESENT == 1) && (__FPU_USED == 1)
    SCB->CPACR |= ((3UL << 10*2)|(3UL << 11*2));  /* set CP10 and CP11 Full Access */
 80011fc:	4b05      	ldr	r3, [pc, #20]	; (8001214 <SystemInit+0x18>)
 80011fe:	f8d3 2088 	ldr.w	r2, [r3, #136]	; 0x88
 8001202:	f442 0270 	orr.w	r2, r2, #15728640	; 0xf00000
 8001206:	f8c3 2088 	str.w	r2, [r3, #136]	; 0x88

  /* Configure the Vector Table location add offset address ------------------*/
#ifdef VECT_TAB_SRAM
  SCB->VTOR = SRAM_BASE | VECT_TAB_OFFSET; /* Vector Table Relocation in Internal SRAM */
#else
  SCB->VTOR = FLASH_BASE | VECT_TAB_OFFSET; /* Vector Table Relocation in Internal FLASH */
 800120a:	f04f 6200 	mov.w	r2, #134217728	; 0x8000000
 800120e:	609a      	str	r2, [r3, #8]
#endif
}
 8001210:	4770      	bx	lr
 8001212:	bf00      	nop
 8001214:	e000ed00 	.word	0xe000ed00

08001218 <Synth_Init>:

/*===============================================================================================================*/

//this will initialize basic settings to start the synth with
void Synth_Init(void)
{
 8001218:	b508      	push	{r3, lr}
	osc_init(&op1, 0.0f, 587.f);//inits the  &op1 oscillator
 800121a:	eddf 0a04 	vldr	s1, [pc, #16]	; 800122c <Synth_Init+0x14>
 800121e:	ed9f 0a04 	vldr	s0, [pc, #16]	; 8001230 <Synth_Init+0x18>
 8001222:	4804      	ldr	r0, [pc, #16]	; (8001234 <Synth_Init+0x1c>)
 8001224:	f7ff fe93 	bl	8000f4e <osc_init>
}
 8001228:	bd08      	pop	{r3, pc}
 800122a:	bf00      	nop
 800122c:	4412c000 	.word	0x4412c000
 8001230:	00000000 	.word	0x00000000
 8001234:	20001144 	.word	0x20001144

08001238 <make_sound>:

/*-------------THIS IS WHERE THE MAGIC HAPPENS!!!-------------------
----(this function will create the samples for the DMA buffer)----*/

void make_sound(uint16_t *buf , uint16_t length){
 8001238:	b570      	push	{r4, r5, r6, lr}
 800123a:	4605      	mov	r5, r0
 800123c:	460e      	mov	r6, r1
	outp = buf;

	//f0=200.0;

	//MIDI note to frequency conversion equation
	f0=440.0 * powf(2.0, (float)(currNote - 69) * 0.08333333);
 800123e:	4b28      	ldr	r3, [pc, #160]	; (80012e0 <make_sound+0xa8>)
 8001240:	7818      	ldrb	r0, [r3, #0]
 8001242:	3845      	subs	r0, #69	; 0x45
 8001244:	ee07 0a90 	vmov	s15, r0
 8001248:	eef8 7ae7 	vcvt.f32.s32	s15, s15
 800124c:	ee17 0a90 	vmov	r0, s15
 8001250:	f7ff fa50 	bl	80006f4 <__aeabi_f2d>
 8001254:	a320      	add	r3, pc, #128	; (adr r3, 80012d8 <make_sound+0xa0>)
 8001256:	e9d3 2300 	ldrd	r2, r3, [r3]
 800125a:	f7fe ffbd 	bl	80001d8 <__aeabi_dmul>
 800125e:	f7ff faa1 	bl	80007a4 <__aeabi_d2f>
 8001262:	ee00 0a90 	vmov	s1, r0
 8001266:	eeb0 0a00 	vmov.f32	s0, #0	; 0x40000000  2.0
 800126a:	f001 fe7b 	bl	8002f64 <powf>
 800126e:	eddf 7a1d 	vldr	s15, [pc, #116]	; 80012e4 <make_sound+0xac>
 8001272:	ee20 0a27 	vmul.f32	s0, s0, s15
 8001276:	4b1c      	ldr	r3, [pc, #112]	; (80012e8 <make_sound+0xb0>)
 8001278:	ed83 0a00 	vstr	s0, [r3]
	//is same as--> 440 * ( 2^ ((midiNote - 69) * 0.08333333))

	for (pos = 0; pos < length; pos++)
 800127c:	2400      	movs	r4, #0
 800127e:	e00f      	b.n	80012a0 <make_sound+0x68>
		yR = (yR > 1.0f) ? 1.0f : yR; //clip too loud right samples
		yR = (yR < -1.0f) ? -1.0f : yR;

		/****** let's hear the new sample *******/

		valueL = (uint16_t)((int16_t)((32767.0f) * yL)); // conversion float -> int
 8001280:	eddf 7a1a 	vldr	s15, [pc, #104]	; 80012ec <make_sound+0xb4>
 8001284:	ee20 0a27 	vmul.f32	s0, s0, s15
 8001288:	eebd 0ac0 	vcvt.s32.f32	s0, s0
 800128c:	ee10 3a10 	vmov	r3, s0
 8001290:	b29b      	uxth	r3, r3
		valueR = (uint16_t)((int16_t)((32767.0f) * yR));

		*outp++ = valueL; // left channel sample
 8001292:	462a      	mov	r2, r5
 8001294:	f822 3b04 	strh.w	r3, [r2], #4
		*outp++ = valueR; // right channel sample
 8001298:	806b      	strh	r3, [r5, #2]
	for (pos = 0; pos < length; pos++)
 800129a:	3401      	adds	r4, #1
 800129c:	b2a4      	uxth	r4, r4
		*outp++ = valueR; // right channel sample
 800129e:	4615      	mov	r5, r2
	for (pos = 0; pos < length; pos++)
 80012a0:	42b4      	cmp	r4, r6
 80012a2:	d217      	bcs.n	80012d4 <make_sound+0x9c>
		y = waveCompute(f0);
 80012a4:	4b10      	ldr	r3, [pc, #64]	; (80012e8 <make_sound+0xb0>)
 80012a6:	ed93 0a00 	vldr	s0, [r3]
 80012aa:	f7ff febd 	bl	8001028 <waveCompute>
		yL = (yL > 1.0f) ? 1.0f : yL; //clip too loud left samples
 80012ae:	eef7 7a00 	vmov.f32	s15, #112	; 0x3f800000  1.0
 80012b2:	eeb4 0ae7 	vcmpe.f32	s0, s15
 80012b6:	eef1 fa10 	vmrs	APSR_nzcv, fpscr
 80012ba:	dd01      	ble.n	80012c0 <make_sound+0x88>
 80012bc:	eeb0 0a67 	vmov.f32	s0, s15
		yL = (yL < -1.0f) ? -1.0f : yL;
 80012c0:	eeff 7a00 	vmov.f32	s15, #240	; 0xbf800000 -1.0
 80012c4:	eeb4 0ae7 	vcmpe.f32	s0, s15
 80012c8:	eef1 fa10 	vmrs	APSR_nzcv, fpscr
 80012cc:	d5d8      	bpl.n	8001280 <make_sound+0x48>
 80012ce:	eeb0 0a67 	vmov.f32	s0, s15
 80012d2:	e7d5      	b.n	8001280 <make_sound+0x48>

	}


}
 80012d4:	bd70      	pop	{r4, r5, r6, pc}
 80012d6:	bf00      	nop
 80012d8:	47044b69 	.word	0x47044b69
 80012dc:	3fb55555 	.word	0x3fb55555
 80012e0:	20000000 	.word	0x20000000
 80012e4:	43dc0000 	.word	0x43dc0000
 80012e8:	20000098 	.word	0x20000098
 80012ec:	46fffe00 	.word	0x46fffe00

080012f0 <HAL_InitTick>:
  *       implementation  in user file.
  * @param TickPriority Tick interrupt priority.
  * @retval HAL status
  */
__weak HAL_StatusTypeDef HAL_InitTick(uint32_t TickPriority)
{
 80012f0:	b510      	push	{r4, lr}
 80012f2:	4604      	mov	r4, r0
  /* Configure the SysTick to have interrupt in 1ms time basis*/
  if (HAL_SYSTICK_Config(SystemCoreClock / (1000U / uwTickFreq)) > 0U)
 80012f4:	4b0e      	ldr	r3, [pc, #56]	; (8001330 <HAL_InitTick+0x40>)
 80012f6:	7818      	ldrb	r0, [r3, #0]
 80012f8:	f44f 737a 	mov.w	r3, #1000	; 0x3e8
 80012fc:	fbb3 f3f0 	udiv	r3, r3, r0
 8001300:	4a0c      	ldr	r2, [pc, #48]	; (8001334 <HAL_InitTick+0x44>)
 8001302:	6810      	ldr	r0, [r2, #0]
 8001304:	fbb0 f0f3 	udiv	r0, r0, r3
 8001308:	f000 f896 	bl	8001438 <HAL_SYSTICK_Config>
 800130c:	b968      	cbnz	r0, 800132a <HAL_InitTick+0x3a>
  {
    return HAL_ERROR;
  }

  /* Configure the SysTick IRQ priority */
  if (TickPriority < (1UL << __NVIC_PRIO_BITS))
 800130e:	2c0f      	cmp	r4, #15
 8001310:	d901      	bls.n	8001316 <HAL_InitTick+0x26>
    HAL_NVIC_SetPriority(SysTick_IRQn, TickPriority, 0U);
    uwTickPrio = TickPriority;
  }
  else
  {
    return HAL_ERROR;
 8001312:	2001      	movs	r0, #1
 8001314:	e00a      	b.n	800132c <HAL_InitTick+0x3c>
    HAL_NVIC_SetPriority(SysTick_IRQn, TickPriority, 0U);
 8001316:	2200      	movs	r2, #0
 8001318:	4621      	mov	r1, r4
 800131a:	f04f 30ff 	mov.w	r0, #4294967295
 800131e:	f000 f849 	bl	80013b4 <HAL_NVIC_SetPriority>
    uwTickPrio = TickPriority;
 8001322:	4b03      	ldr	r3, [pc, #12]	; (8001330 <HAL_InitTick+0x40>)
 8001324:	605c      	str	r4, [r3, #4]
  }

  /* Return function status */
  return HAL_OK;
 8001326:	2000      	movs	r0, #0
 8001328:	e000      	b.n	800132c <HAL_InitTick+0x3c>
    return HAL_ERROR;
 800132a:	2001      	movs	r0, #1
}
 800132c:	bd10      	pop	{r4, pc}
 800132e:	bf00      	nop
 8001330:	20000008 	.word	0x20000008
 8001334:	20000004 	.word	0x20000004

08001338 <HAL_Init>:
{
 8001338:	b508      	push	{r3, lr}
  __HAL_FLASH_INSTRUCTION_CACHE_ENABLE();
 800133a:	4b0b      	ldr	r3, [pc, #44]	; (8001368 <HAL_Init+0x30>)
 800133c:	681a      	ldr	r2, [r3, #0]
 800133e:	f442 7200 	orr.w	r2, r2, #512	; 0x200
 8001342:	601a      	str	r2, [r3, #0]
  __HAL_FLASH_DATA_CACHE_ENABLE();
 8001344:	681a      	ldr	r2, [r3, #0]
 8001346:	f442 6280 	orr.w	r2, r2, #1024	; 0x400
 800134a:	601a      	str	r2, [r3, #0]
  __HAL_FLASH_PREFETCH_BUFFER_ENABLE();
 800134c:	681a      	ldr	r2, [r3, #0]
 800134e:	f442 7280 	orr.w	r2, r2, #256	; 0x100
 8001352:	601a      	str	r2, [r3, #0]
  HAL_NVIC_SetPriorityGrouping(NVIC_PRIORITYGROUP_4);
 8001354:	2003      	movs	r0, #3
 8001356:	f000 f81b 	bl	8001390 <HAL_NVIC_SetPriorityGrouping>
  HAL_InitTick(TICK_INT_PRIORITY);
 800135a:	2000      	movs	r0, #0
 800135c:	f7ff ffc8 	bl	80012f0 <HAL_InitTick>
  HAL_MspInit();
 8001360:	f7ff fe74 	bl	800104c <HAL_MspInit>
}
 8001364:	2000      	movs	r0, #0
 8001366:	bd08      	pop	{r3, pc}
 8001368:	40023c00 	.word	0x40023c00

0800136c <HAL_IncTick>:
  *      implementations in user file.
  * @retval None
  */
__weak void HAL_IncTick(void)
{
  uwTick += uwTickFreq;
 800136c:	4a03      	ldr	r2, [pc, #12]	; (800137c <HAL_IncTick+0x10>)
 800136e:	6811      	ldr	r1, [r2, #0]
 8001370:	4b03      	ldr	r3, [pc, #12]	; (8001380 <HAL_IncTick+0x14>)
 8001372:	781b      	ldrb	r3, [r3, #0]
 8001374:	440b      	add	r3, r1
 8001376:	6013      	str	r3, [r2, #0]
}
 8001378:	4770      	bx	lr
 800137a:	bf00      	nop
 800137c:	20001168 	.word	0x20001168
 8001380:	20000008 	.word	0x20000008

08001384 <HAL_GetTick>:
  *       implementations in user file.
  * @retval tick value
  */
__weak uint32_t HAL_GetTick(void)
{
  return uwTick;
 8001384:	4b01      	ldr	r3, [pc, #4]	; (800138c <HAL_GetTick+0x8>)
 8001386:	6818      	ldr	r0, [r3, #0]
}
 8001388:	4770      	bx	lr
 800138a:	bf00      	nop
 800138c:	20001168 	.word	0x20001168

08001390 <HAL_NVIC_SetPriorityGrouping>:
__STATIC_INLINE void __NVIC_SetPriorityGrouping(uint32_t PriorityGroup)
{
  uint32_t reg_value;
  uint32_t PriorityGroupTmp = (PriorityGroup & (uint32_t)0x07UL);             /* only values 0..7 are used          */

  reg_value  =  SCB->AIRCR;                                                   /* read old register configuration    */
 8001390:	4a07      	ldr	r2, [pc, #28]	; (80013b0 <HAL_NVIC_SetPriorityGrouping+0x20>)
 8001392:	68d3      	ldr	r3, [r2, #12]
  reg_value &= ~((uint32_t)(SCB_AIRCR_VECTKEY_Msk | SCB_AIRCR_PRIGROUP_Msk)); /* clear bits to change               */
 8001394:	f423 63e0 	bic.w	r3, r3, #1792	; 0x700
 8001398:	041b      	lsls	r3, r3, #16
 800139a:	0c1b      	lsrs	r3, r3, #16
  reg_value  =  (reg_value                                   |
                ((uint32_t)0x5FAUL << SCB_AIRCR_VECTKEY_Pos) |
                (PriorityGroupTmp << SCB_AIRCR_PRIGROUP_Pos)  );              /* Insert write key and priority group */
 800139c:	0200      	lsls	r0, r0, #8
 800139e:	f400 60e0 	and.w	r0, r0, #1792	; 0x700
                ((uint32_t)0x5FAUL << SCB_AIRCR_VECTKEY_Pos) |
 80013a2:	4303      	orrs	r3, r0
  reg_value  =  (reg_value                                   |
 80013a4:	f043 63bf 	orr.w	r3, r3, #100139008	; 0x5f80000
 80013a8:	f443 3300 	orr.w	r3, r3, #131072	; 0x20000
  SCB->AIRCR =  reg_value;
 80013ac:	60d3      	str	r3, [r2, #12]
  /* Check the parameters */
  assert_param(IS_NVIC_PRIORITY_GROUP(PriorityGroup));
  
  /* Set the PRIGROUP[10:8] bits according to the PriorityGroup parameter value */
  NVIC_SetPriorityGrouping(PriorityGroup);
}
 80013ae:	4770      	bx	lr
 80013b0:	e000ed00 	.word	0xe000ed00

080013b4 <HAL_NVIC_SetPriority>:
  *         This parameter can be a value between 0 and 15
  *         A lower priority value indicates a higher priority.          
  * @retval None
  */
void HAL_NVIC_SetPriority(IRQn_Type IRQn, uint32_t PreemptPriority, uint32_t SubPriority)
{ 
 80013b4:	b430      	push	{r4, r5}
  \details Reads the priority grouping field from the NVIC Interrupt Controller.
  \return                Priority grouping field (SCB->AIRCR [10:8] PRIGROUP field).
 */
__STATIC_INLINE uint32_t __NVIC_GetPriorityGrouping(void)
{
  return ((uint32_t)((SCB->AIRCR & SCB_AIRCR_PRIGROUP_Msk) >> SCB_AIRCR_PRIGROUP_Pos));
 80013b6:	4b17      	ldr	r3, [pc, #92]	; (8001414 <HAL_NVIC_SetPriority+0x60>)
 80013b8:	68db      	ldr	r3, [r3, #12]
 80013ba:	f3c3 2302 	ubfx	r3, r3, #8, #3
{
  uint32_t PriorityGroupTmp = (PriorityGroup & (uint32_t)0x07UL);   /* only values 0..7 are used          */
  uint32_t PreemptPriorityBits;
  uint32_t SubPriorityBits;

  PreemptPriorityBits = ((7UL - PriorityGroupTmp) > (uint32_t)(__NVIC_PRIO_BITS)) ? (uint32_t)(__NVIC_PRIO_BITS) : (uint32_t)(7UL - PriorityGroupTmp);
 80013be:	f1c3 0407 	rsb	r4, r3, #7
 80013c2:	2c04      	cmp	r4, #4
 80013c4:	bf28      	it	cs
 80013c6:	2404      	movcs	r4, #4
  SubPriorityBits     = ((PriorityGroupTmp + (uint32_t)(__NVIC_PRIO_BITS)) < (uint32_t)7UL) ? (uint32_t)0UL : (uint32_t)((PriorityGroupTmp - 7UL) + (uint32_t)(__NVIC_PRIO_BITS));
 80013c8:	1d1d      	adds	r5, r3, #4
 80013ca:	2d06      	cmp	r5, #6
 80013cc:	d918      	bls.n	8001400 <HAL_NVIC_SetPriority+0x4c>
 80013ce:	3b03      	subs	r3, #3

  return (
           ((PreemptPriority & (uint32_t)((1UL << (PreemptPriorityBits)) - 1UL)) << SubPriorityBits) |
 80013d0:	f04f 35ff 	mov.w	r5, #4294967295
 80013d4:	fa05 f404 	lsl.w	r4, r5, r4
 80013d8:	ea21 0104 	bic.w	r1, r1, r4
 80013dc:	4099      	lsls	r1, r3
           ((SubPriority     & (uint32_t)((1UL << (SubPriorityBits    )) - 1UL)))
 80013de:	fa05 f303 	lsl.w	r3, r5, r3
 80013e2:	ea22 0303 	bic.w	r3, r2, r3
           ((PreemptPriority & (uint32_t)((1UL << (PreemptPriorityBits)) - 1UL)) << SubPriorityBits) |
 80013e6:	4319      	orrs	r1, r3
  if ((int32_t)(IRQn) >= 0)
 80013e8:	2800      	cmp	r0, #0
 80013ea:	db0b      	blt.n	8001404 <HAL_NVIC_SetPriority+0x50>
    NVIC->IP[((uint32_t)IRQn)]               = (uint8_t)((priority << (8U - __NVIC_PRIO_BITS)) & (uint32_t)0xFFUL);
 80013ec:	0109      	lsls	r1, r1, #4
 80013ee:	b2c9      	uxtb	r1, r1
 80013f0:	f100 4060 	add.w	r0, r0, #3758096384	; 0xe0000000
 80013f4:	f500 4061 	add.w	r0, r0, #57600	; 0xe100
 80013f8:	f880 1300 	strb.w	r1, [r0, #768]	; 0x300
  assert_param(IS_NVIC_PREEMPTION_PRIORITY(PreemptPriority));
  
  prioritygroup = NVIC_GetPriorityGrouping();
  
  NVIC_SetPriority(IRQn, NVIC_EncodePriority(prioritygroup, PreemptPriority, SubPriority));
}
 80013fc:	bc30      	pop	{r4, r5}
 80013fe:	4770      	bx	lr
  SubPriorityBits     = ((PriorityGroupTmp + (uint32_t)(__NVIC_PRIO_BITS)) < (uint32_t)7UL) ? (uint32_t)0UL : (uint32_t)((PriorityGroupTmp - 7UL) + (uint32_t)(__NVIC_PRIO_BITS));
 8001400:	2300      	movs	r3, #0
 8001402:	e7e5      	b.n	80013d0 <HAL_NVIC_SetPriority+0x1c>
    SCB->SHP[(((uint32_t)IRQn) & 0xFUL)-4UL] = (uint8_t)((priority << (8U - __NVIC_PRIO_BITS)) & (uint32_t)0xFFUL);
 8001404:	f000 000f 	and.w	r0, r0, #15
 8001408:	0109      	lsls	r1, r1, #4
 800140a:	b2c9      	uxtb	r1, r1
 800140c:	4b02      	ldr	r3, [pc, #8]	; (8001418 <HAL_NVIC_SetPriority+0x64>)
 800140e:	5419      	strb	r1, [r3, r0]
 8001410:	e7f4      	b.n	80013fc <HAL_NVIC_SetPriority+0x48>
 8001412:	bf00      	nop
 8001414:	e000ed00 	.word	0xe000ed00
 8001418:	e000ed14 	.word	0xe000ed14

0800141c <HAL_NVIC_EnableIRQ>:
  if ((int32_t)(IRQn) >= 0)
 800141c:	2800      	cmp	r0, #0
 800141e:	db07      	blt.n	8001430 <HAL_NVIC_EnableIRQ+0x14>
    NVIC->ISER[(((uint32_t)IRQn) >> 5UL)] = (uint32_t)(1UL << (((uint32_t)IRQn) & 0x1FUL));
 8001420:	f000 021f 	and.w	r2, r0, #31
 8001424:	0940      	lsrs	r0, r0, #5
 8001426:	2301      	movs	r3, #1
 8001428:	4093      	lsls	r3, r2
 800142a:	4a02      	ldr	r2, [pc, #8]	; (8001434 <HAL_NVIC_EnableIRQ+0x18>)
 800142c:	f842 3020 	str.w	r3, [r2, r0, lsl #2]
  /* Check the parameters */
  assert_param(IS_NVIC_DEVICE_IRQ(IRQn));
  
  /* Enable interrupt */
  NVIC_EnableIRQ(IRQn);
}
 8001430:	4770      	bx	lr
 8001432:	bf00      	nop
 8001434:	e000e100 	.word	0xe000e100

08001438 <HAL_SYSTICK_Config>:
           function <b>SysTick_Config</b> is not included. In this case, the file <b><i>device</i>.h</b>
           must contain a vendor-specific implementation of this function.
 */
__STATIC_INLINE uint32_t SysTick_Config(uint32_t ticks)
{
  if ((ticks - 1UL) > SysTick_LOAD_RELOAD_Msk)
 8001438:	3801      	subs	r0, #1
 800143a:	f1b0 7f80 	cmp.w	r0, #16777216	; 0x1000000
 800143e:	d20a      	bcs.n	8001456 <HAL_SYSTICK_Config+0x1e>
  {
    return (1UL);                                                   /* Reload value impossible */
  }

  SysTick->LOAD  = (uint32_t)(ticks - 1UL);                         /* set reload register */
 8001440:	4b06      	ldr	r3, [pc, #24]	; (800145c <HAL_SYSTICK_Config+0x24>)
 8001442:	6058      	str	r0, [r3, #4]
    SCB->SHP[(((uint32_t)IRQn) & 0xFUL)-4UL] = (uint8_t)((priority << (8U - __NVIC_PRIO_BITS)) & (uint32_t)0xFFUL);
 8001444:	4a06      	ldr	r2, [pc, #24]	; (8001460 <HAL_SYSTICK_Config+0x28>)
 8001446:	21f0      	movs	r1, #240	; 0xf0
 8001448:	f882 1023 	strb.w	r1, [r2, #35]	; 0x23
  NVIC_SetPriority (SysTick_IRQn, (1UL << __NVIC_PRIO_BITS) - 1UL); /* set Priority for Systick Interrupt */
  SysTick->VAL   = 0UL;                                             /* Load the SysTick Counter Value */
 800144c:	2000      	movs	r0, #0
 800144e:	6098      	str	r0, [r3, #8]
  SysTick->CTRL  = SysTick_CTRL_CLKSOURCE_Msk |
 8001450:	2207      	movs	r2, #7
 8001452:	601a      	str	r2, [r3, #0]
                   SysTick_CTRL_TICKINT_Msk   |
                   SysTick_CTRL_ENABLE_Msk;                         /* Enable SysTick IRQ and SysTick Timer */
  return (0UL);                                                     /* Function successful */
 8001454:	4770      	bx	lr
    return (1UL);                                                   /* Reload value impossible */
 8001456:	2001      	movs	r0, #1
  *                  - 1  Function failed.
  */
uint32_t HAL_SYSTICK_Config(uint32_t TicksNumb)
{
   return SysTick_Config(TicksNumb);
}
 8001458:	4770      	bx	lr
 800145a:	bf00      	nop
 800145c:	e000e010 	.word	0xe000e010
 8001460:	e000ed00 	.word	0xe000ed00

08001464 <DMA_SetConfig>:
  * @param  DstAddress The destination memory Buffer address
  * @param  DataLength The length of data to be transferred from source to destination
  * @retval HAL status
  */
static void DMA_SetConfig(DMA_HandleTypeDef *hdma, uint32_t SrcAddress, uint32_t DstAddress, uint32_t DataLength)
{
 8001464:	b430      	push	{r4, r5}
  /* Clear DBM bit */
  hdma->Instance->CR &= (uint32_t)(~DMA_SxCR_DBM);
 8001466:	6805      	ldr	r5, [r0, #0]
 8001468:	682c      	ldr	r4, [r5, #0]
 800146a:	f424 2480 	bic.w	r4, r4, #262144	; 0x40000
 800146e:	602c      	str	r4, [r5, #0]

  /* Configure DMA Stream data length */
  hdma->Instance->NDTR = DataLength;
 8001470:	6804      	ldr	r4, [r0, #0]
 8001472:	6063      	str	r3, [r4, #4]

  /* Memory to Peripheral */
  if((hdma->Init.Direction) == DMA_MEMORY_TO_PERIPH)
 8001474:	6883      	ldr	r3, [r0, #8]
 8001476:	2b40      	cmp	r3, #64	; 0x40
 8001478:	d005      	beq.n	8001486 <DMA_SetConfig+0x22>
  }
  /* Peripheral to Memory */
  else
  {
    /* Configure DMA Stream source address */
    hdma->Instance->PAR = SrcAddress;
 800147a:	6803      	ldr	r3, [r0, #0]
 800147c:	6099      	str	r1, [r3, #8]

    /* Configure DMA Stream destination address */
    hdma->Instance->M0AR = DstAddress;
 800147e:	6803      	ldr	r3, [r0, #0]
 8001480:	60da      	str	r2, [r3, #12]
  }
}
 8001482:	bc30      	pop	{r4, r5}
 8001484:	4770      	bx	lr
    hdma->Instance->PAR = DstAddress;
 8001486:	6803      	ldr	r3, [r0, #0]
 8001488:	609a      	str	r2, [r3, #8]
    hdma->Instance->M0AR = SrcAddress;
 800148a:	6803      	ldr	r3, [r0, #0]
 800148c:	60d9      	str	r1, [r3, #12]
 800148e:	e7f8      	b.n	8001482 <DMA_SetConfig+0x1e>

08001490 <DMA_CalcBaseAndBitshift>:
  * @param  hdma       pointer to a DMA_HandleTypeDef structure that contains
  *                     the configuration information for the specified DMA Stream. 
  * @retval Stream base address
  */
static uint32_t DMA_CalcBaseAndBitshift(DMA_HandleTypeDef *hdma)
{
 8001490:	b410      	push	{r4}
  uint32_t stream_number = (((uint32_t)hdma->Instance & 0xFFU) - 16U) / 24U;
 8001492:	6803      	ldr	r3, [r0, #0]
 8001494:	b2d9      	uxtb	r1, r3
 8001496:	3910      	subs	r1, #16
 8001498:	4a0c      	ldr	r2, [pc, #48]	; (80014cc <DMA_CalcBaseAndBitshift+0x3c>)
 800149a:	fba2 4201 	umull	r4, r2, r2, r1
 800149e:	0912      	lsrs	r2, r2, #4
  
  /* lookup table for necessary bitshift of flags within status registers */
  static const uint8_t flagBitshiftOffset[8U] = {0U, 6U, 16U, 22U, 0U, 6U, 16U, 22U};
  hdma->StreamIndex = flagBitshiftOffset[stream_number];
 80014a0:	4c0b      	ldr	r4, [pc, #44]	; (80014d0 <DMA_CalcBaseAndBitshift+0x40>)
 80014a2:	5ca2      	ldrb	r2, [r4, r2]
 80014a4:	65c2      	str	r2, [r0, #92]	; 0x5c
  
  if (stream_number > 3U)
 80014a6:	295f      	cmp	r1, #95	; 0x5f
 80014a8:	d909      	bls.n	80014be <DMA_CalcBaseAndBitshift+0x2e>
  {
    /* return pointer to HISR and HIFCR */
    hdma->StreamBaseAddress = (((uint32_t)hdma->Instance & (uint32_t)(~0x3FFU)) + 4U);
 80014aa:	f423 737f 	bic.w	r3, r3, #1020	; 0x3fc
 80014ae:	f023 0303 	bic.w	r3, r3, #3
 80014b2:	3304      	adds	r3, #4
 80014b4:	6583      	str	r3, [r0, #88]	; 0x58
    /* return pointer to LISR and LIFCR */
    hdma->StreamBaseAddress = ((uint32_t)hdma->Instance & (uint32_t)(~0x3FFU));
  }
  
  return hdma->StreamBaseAddress;
}
 80014b6:	6d80      	ldr	r0, [r0, #88]	; 0x58
 80014b8:	f85d 4b04 	ldr.w	r4, [sp], #4
 80014bc:	4770      	bx	lr
    hdma->StreamBaseAddress = ((uint32_t)hdma->Instance & (uint32_t)(~0x3FFU));
 80014be:	f423 737f 	bic.w	r3, r3, #1020	; 0x3fc
 80014c2:	f023 0303 	bic.w	r3, r3, #3
 80014c6:	6583      	str	r3, [r0, #88]	; 0x58
 80014c8:	e7f5      	b.n	80014b6 <DMA_CalcBaseAndBitshift+0x26>
 80014ca:	bf00      	nop
 80014cc:	aaaaaaab 	.word	0xaaaaaaab
 80014d0:	0800381c 	.word	0x0800381c

080014d4 <DMA_CheckFifoParam>:
  * @retval HAL status
  */
static HAL_StatusTypeDef DMA_CheckFifoParam(DMA_HandleTypeDef *hdma)
{
  HAL_StatusTypeDef status = HAL_OK;
  uint32_t tmp = hdma->Init.FIFOThreshold;
 80014d4:	6a83      	ldr	r3, [r0, #40]	; 0x28
  
  /* Memory Data size equal to Byte */
  if(hdma->Init.MemDataAlignment == DMA_MDATAALIGN_BYTE)
 80014d6:	6982      	ldr	r2, [r0, #24]
 80014d8:	b992      	cbnz	r2, 8001500 <DMA_CheckFifoParam+0x2c>
  {
    switch (tmp)
 80014da:	2b01      	cmp	r3, #1
 80014dc:	d00a      	beq.n	80014f4 <DMA_CheckFifoParam+0x20>
 80014de:	2b02      	cmp	r3, #2
 80014e0:	d002      	beq.n	80014e8 <DMA_CheckFifoParam+0x14>
 80014e2:	b10b      	cbz	r3, 80014e8 <DMA_CheckFifoParam+0x14>
 80014e4:	2000      	movs	r0, #0
 80014e6:	4770      	bx	lr
    {
    case DMA_FIFO_THRESHOLD_1QUARTERFULL:
    case DMA_FIFO_THRESHOLD_3QUARTERSFULL:
      if ((hdma->Init.MemBurst & DMA_SxCR_MBURST_1) == DMA_SxCR_MBURST_1)
 80014e8:	6ac3      	ldr	r3, [r0, #44]	; 0x2c
 80014ea:	f013 7f80 	tst.w	r3, #16777216	; 0x1000000
 80014ee:	d128      	bne.n	8001542 <DMA_CheckFifoParam+0x6e>
  HAL_StatusTypeDef status = HAL_OK;
 80014f0:	2000      	movs	r0, #0
 80014f2:	4770      	bx	lr
      {
        status = HAL_ERROR;
      }
      break;
    case DMA_FIFO_THRESHOLD_HALFFULL:
      if (hdma->Init.MemBurst == DMA_MBURST_INC16)
 80014f4:	6ac3      	ldr	r3, [r0, #44]	; 0x2c
 80014f6:	f1b3 7fc0 	cmp.w	r3, #25165824	; 0x1800000
 80014fa:	d024      	beq.n	8001546 <DMA_CheckFifoParam+0x72>
  HAL_StatusTypeDef status = HAL_OK;
 80014fc:	2000      	movs	r0, #0
 80014fe:	4770      	bx	lr
      break;
    }
  }
  
  /* Memory Data size equal to Half-Word */
  else if (hdma->Init.MemDataAlignment == DMA_MDATAALIGN_HALFWORD)
 8001500:	f5b2 5f00 	cmp.w	r2, #8192	; 0x2000
 8001504:	d009      	beq.n	800151a <DMA_CheckFifoParam+0x46>
  }
  
  /* Memory Data size equal to Word */
  else
  {
    switch (tmp)
 8001506:	2b02      	cmp	r3, #2
 8001508:	d925      	bls.n	8001556 <DMA_CheckFifoParam+0x82>
 800150a:	2b03      	cmp	r3, #3
 800150c:	d125      	bne.n	800155a <DMA_CheckFifoParam+0x86>
    case DMA_FIFO_THRESHOLD_HALFFULL:
    case DMA_FIFO_THRESHOLD_3QUARTERSFULL:
      status = HAL_ERROR;
      break;
    case DMA_FIFO_THRESHOLD_FULL:
      if ((hdma->Init.MemBurst & DMA_SxCR_MBURST_1) == DMA_SxCR_MBURST_1)
 800150e:	6ac3      	ldr	r3, [r0, #44]	; 0x2c
 8001510:	f013 7f80 	tst.w	r3, #16777216	; 0x1000000
 8001514:	d123      	bne.n	800155e <DMA_CheckFifoParam+0x8a>
  HAL_StatusTypeDef status = HAL_OK;
 8001516:	2000      	movs	r0, #0
 8001518:	4770      	bx	lr
    switch (tmp)
 800151a:	2b03      	cmp	r3, #3
 800151c:	d803      	bhi.n	8001526 <DMA_CheckFifoParam+0x52>
 800151e:	e8df f003 	tbb	[pc, r3]
 8001522:	0414      	.short	0x0414
 8001524:	0a14      	.short	0x0a14
  else if (hdma->Init.MemDataAlignment == DMA_MDATAALIGN_HALFWORD)
 8001526:	2000      	movs	r0, #0
 8001528:	4770      	bx	lr
      if ((hdma->Init.MemBurst & DMA_SxCR_MBURST_1) == DMA_SxCR_MBURST_1)
 800152a:	6ac3      	ldr	r3, [r0, #44]	; 0x2c
 800152c:	f013 7f80 	tst.w	r3, #16777216	; 0x1000000
 8001530:	d10d      	bne.n	800154e <DMA_CheckFifoParam+0x7a>
  HAL_StatusTypeDef status = HAL_OK;
 8001532:	2000      	movs	r0, #0
 8001534:	4770      	bx	lr
      if (hdma->Init.MemBurst == DMA_MBURST_INC16)
 8001536:	6ac3      	ldr	r3, [r0, #44]	; 0x2c
 8001538:	f1b3 7fc0 	cmp.w	r3, #25165824	; 0x1800000
 800153c:	d009      	beq.n	8001552 <DMA_CheckFifoParam+0x7e>
  HAL_StatusTypeDef status = HAL_OK;
 800153e:	2000      	movs	r0, #0
 8001540:	4770      	bx	lr
        status = HAL_ERROR;
 8001542:	2001      	movs	r0, #1
 8001544:	4770      	bx	lr
        status = HAL_ERROR;
 8001546:	2001      	movs	r0, #1
 8001548:	4770      	bx	lr
      status = HAL_ERROR;
 800154a:	2001      	movs	r0, #1
 800154c:	4770      	bx	lr
        status = HAL_ERROR;
 800154e:	2001      	movs	r0, #1
 8001550:	4770      	bx	lr
        status = HAL_ERROR;
 8001552:	2001      	movs	r0, #1
 8001554:	4770      	bx	lr
      status = HAL_ERROR;
 8001556:	2001      	movs	r0, #1
 8001558:	4770      	bx	lr
    switch (tmp)
 800155a:	2000      	movs	r0, #0
 800155c:	4770      	bx	lr
      {
        status = HAL_ERROR;
 800155e:	2001      	movs	r0, #1
      break;
    }
  } 
  
  return status; 
}
 8001560:	4770      	bx	lr
	...

08001564 <HAL_DMA_Init>:
{
 8001564:	b570      	push	{r4, r5, r6, lr}
 8001566:	4604      	mov	r4, r0
  uint32_t tickstart = HAL_GetTick();
 8001568:	f7ff ff0c 	bl	8001384 <HAL_GetTick>
  if(hdma == NULL)
 800156c:	2c00      	cmp	r4, #0
 800156e:	d05b      	beq.n	8001628 <HAL_DMA_Init+0xc4>
 8001570:	4605      	mov	r5, r0
  __HAL_UNLOCK(hdma);
 8001572:	2300      	movs	r3, #0
 8001574:	f884 3034 	strb.w	r3, [r4, #52]	; 0x34
  hdma->State = HAL_DMA_STATE_BUSY;
 8001578:	2302      	movs	r3, #2
 800157a:	f884 3035 	strb.w	r3, [r4, #53]	; 0x35
  __HAL_DMA_DISABLE(hdma);
 800157e:	6822      	ldr	r2, [r4, #0]
 8001580:	6813      	ldr	r3, [r2, #0]
 8001582:	f023 0301 	bic.w	r3, r3, #1
 8001586:	6013      	str	r3, [r2, #0]
  while((hdma->Instance->CR & DMA_SxCR_EN) != RESET)
 8001588:	6823      	ldr	r3, [r4, #0]
 800158a:	681a      	ldr	r2, [r3, #0]
 800158c:	f012 0f01 	tst.w	r2, #1
 8001590:	d00a      	beq.n	80015a8 <HAL_DMA_Init+0x44>
    if((HAL_GetTick() - tickstart ) > HAL_TIMEOUT_DMA_ABORT)
 8001592:	f7ff fef7 	bl	8001384 <HAL_GetTick>
 8001596:	1b43      	subs	r3, r0, r5
 8001598:	2b05      	cmp	r3, #5
 800159a:	d9f5      	bls.n	8001588 <HAL_DMA_Init+0x24>
      hdma->ErrorCode = HAL_DMA_ERROR_TIMEOUT;
 800159c:	2320      	movs	r3, #32
 800159e:	6563      	str	r3, [r4, #84]	; 0x54
      hdma->State = HAL_DMA_STATE_TIMEOUT;
 80015a0:	2003      	movs	r0, #3
 80015a2:	f884 0035 	strb.w	r0, [r4, #53]	; 0x35
}
 80015a6:	bd70      	pop	{r4, r5, r6, pc}
  tmp = hdma->Instance->CR;
 80015a8:	681a      	ldr	r2, [r3, #0]
  tmp &= ((uint32_t)~(DMA_SxCR_CHSEL | DMA_SxCR_MBURST | DMA_SxCR_PBURST | \
 80015aa:	4820      	ldr	r0, [pc, #128]	; (800162c <HAL_DMA_Init+0xc8>)
 80015ac:	4010      	ands	r0, r2
  tmp |=  hdma->Init.Channel             | hdma->Init.Direction        |
 80015ae:	6861      	ldr	r1, [r4, #4]
 80015b0:	68a2      	ldr	r2, [r4, #8]
 80015b2:	430a      	orrs	r2, r1
          hdma->Init.PeriphInc           | hdma->Init.MemInc           |
 80015b4:	68e1      	ldr	r1, [r4, #12]
  tmp |=  hdma->Init.Channel             | hdma->Init.Direction        |
 80015b6:	430a      	orrs	r2, r1
          hdma->Init.PeriphInc           | hdma->Init.MemInc           |
 80015b8:	6921      	ldr	r1, [r4, #16]
 80015ba:	430a      	orrs	r2, r1
          hdma->Init.PeriphDataAlignment | hdma->Init.MemDataAlignment |
 80015bc:	6961      	ldr	r1, [r4, #20]
          hdma->Init.PeriphInc           | hdma->Init.MemInc           |
 80015be:	430a      	orrs	r2, r1
          hdma->Init.PeriphDataAlignment | hdma->Init.MemDataAlignment |
 80015c0:	69a1      	ldr	r1, [r4, #24]
 80015c2:	430a      	orrs	r2, r1
          hdma->Init.Mode                | hdma->Init.Priority;
 80015c4:	69e1      	ldr	r1, [r4, #28]
          hdma->Init.PeriphDataAlignment | hdma->Init.MemDataAlignment |
 80015c6:	430a      	orrs	r2, r1
          hdma->Init.Mode                | hdma->Init.Priority;
 80015c8:	6a21      	ldr	r1, [r4, #32]
 80015ca:	430a      	orrs	r2, r1
  tmp |=  hdma->Init.Channel             | hdma->Init.Direction        |
 80015cc:	4302      	orrs	r2, r0
  if(hdma->Init.FIFOMode == DMA_FIFOMODE_ENABLE)
 80015ce:	6a61      	ldr	r1, [r4, #36]	; 0x24
 80015d0:	2904      	cmp	r1, #4
 80015d2:	d01e      	beq.n	8001612 <HAL_DMA_Init+0xae>
  hdma->Instance->CR = tmp;  
 80015d4:	601a      	str	r2, [r3, #0]
  tmp = hdma->Instance->FCR;
 80015d6:	6826      	ldr	r6, [r4, #0]
 80015d8:	6975      	ldr	r5, [r6, #20]
  tmp &= (uint32_t)~(DMA_SxFCR_DMDIS | DMA_SxFCR_FTH);
 80015da:	f025 0507 	bic.w	r5, r5, #7
  tmp |= hdma->Init.FIFOMode;
 80015de:	6a63      	ldr	r3, [r4, #36]	; 0x24
 80015e0:	431d      	orrs	r5, r3
  if(hdma->Init.FIFOMode == DMA_FIFOMODE_ENABLE)
 80015e2:	2b04      	cmp	r3, #4
 80015e4:	d107      	bne.n	80015f6 <HAL_DMA_Init+0x92>
    tmp |= hdma->Init.FIFOThreshold;
 80015e6:	6aa3      	ldr	r3, [r4, #40]	; 0x28
 80015e8:	431d      	orrs	r5, r3
    if (hdma->Init.MemBurst != DMA_MBURST_SINGLE)
 80015ea:	6ae3      	ldr	r3, [r4, #44]	; 0x2c
 80015ec:	b11b      	cbz	r3, 80015f6 <HAL_DMA_Init+0x92>
      if (DMA_CheckFifoParam(hdma) != HAL_OK)
 80015ee:	4620      	mov	r0, r4
 80015f0:	f7ff ff70 	bl	80014d4 <DMA_CheckFifoParam>
 80015f4:	b990      	cbnz	r0, 800161c <HAL_DMA_Init+0xb8>
  hdma->Instance->FCR = tmp;
 80015f6:	6175      	str	r5, [r6, #20]
  regs = (DMA_Base_Registers *)DMA_CalcBaseAndBitshift(hdma);
 80015f8:	4620      	mov	r0, r4
 80015fa:	f7ff ff49 	bl	8001490 <DMA_CalcBaseAndBitshift>
  regs->IFCR = 0x3FU << hdma->StreamIndex;
 80015fe:	6de2      	ldr	r2, [r4, #92]	; 0x5c
 8001600:	233f      	movs	r3, #63	; 0x3f
 8001602:	4093      	lsls	r3, r2
 8001604:	6083      	str	r3, [r0, #8]
  hdma->ErrorCode = HAL_DMA_ERROR_NONE;
 8001606:	2000      	movs	r0, #0
 8001608:	6560      	str	r0, [r4, #84]	; 0x54
  hdma->State = HAL_DMA_STATE_READY;
 800160a:	2301      	movs	r3, #1
 800160c:	f884 3035 	strb.w	r3, [r4, #53]	; 0x35
  return HAL_OK;
 8001610:	e7c9      	b.n	80015a6 <HAL_DMA_Init+0x42>
    tmp |=  hdma->Init.MemBurst | hdma->Init.PeriphBurst;
 8001612:	6ae1      	ldr	r1, [r4, #44]	; 0x2c
 8001614:	6b20      	ldr	r0, [r4, #48]	; 0x30
 8001616:	4301      	orrs	r1, r0
 8001618:	430a      	orrs	r2, r1
 800161a:	e7db      	b.n	80015d4 <HAL_DMA_Init+0x70>
        hdma->ErrorCode = HAL_DMA_ERROR_PARAM;
 800161c:	2340      	movs	r3, #64	; 0x40
 800161e:	6563      	str	r3, [r4, #84]	; 0x54
        hdma->State = HAL_DMA_STATE_READY;
 8001620:	2001      	movs	r0, #1
 8001622:	f884 0035 	strb.w	r0, [r4, #53]	; 0x35
        return HAL_ERROR; 
 8001626:	e7be      	b.n	80015a6 <HAL_DMA_Init+0x42>
    return HAL_ERROR;
 8001628:	2001      	movs	r0, #1
 800162a:	e7bc      	b.n	80015a6 <HAL_DMA_Init+0x42>
 800162c:	f010803f 	.word	0xf010803f

08001630 <HAL_DMA_Start_IT>:
{
 8001630:	b538      	push	{r3, r4, r5, lr}
 8001632:	4604      	mov	r4, r0
  DMA_Base_Registers *regs = (DMA_Base_Registers *)hdma->StreamBaseAddress;
 8001634:	6d85      	ldr	r5, [r0, #88]	; 0x58
  __HAL_LOCK(hdma);
 8001636:	f890 0034 	ldrb.w	r0, [r0, #52]	; 0x34
 800163a:	2801      	cmp	r0, #1
 800163c:	d02b      	beq.n	8001696 <HAL_DMA_Start_IT+0x66>
 800163e:	2001      	movs	r0, #1
 8001640:	f884 0034 	strb.w	r0, [r4, #52]	; 0x34
  if(HAL_DMA_STATE_READY == hdma->State)
 8001644:	f894 0035 	ldrb.w	r0, [r4, #53]	; 0x35
 8001648:	b2c0      	uxtb	r0, r0
 800164a:	2801      	cmp	r0, #1
 800164c:	d004      	beq.n	8001658 <HAL_DMA_Start_IT+0x28>
    __HAL_UNLOCK(hdma);	  
 800164e:	2300      	movs	r3, #0
 8001650:	f884 3034 	strb.w	r3, [r4, #52]	; 0x34
    status = HAL_BUSY;
 8001654:	2002      	movs	r0, #2
}
 8001656:	bd38      	pop	{r3, r4, r5, pc}
    hdma->State = HAL_DMA_STATE_BUSY;
 8001658:	2002      	movs	r0, #2
 800165a:	f884 0035 	strb.w	r0, [r4, #53]	; 0x35
    hdma->ErrorCode = HAL_DMA_ERROR_NONE;
 800165e:	2000      	movs	r0, #0
 8001660:	6560      	str	r0, [r4, #84]	; 0x54
    DMA_SetConfig(hdma, SrcAddress, DstAddress, DataLength);
 8001662:	4620      	mov	r0, r4
 8001664:	f7ff fefe 	bl	8001464 <DMA_SetConfig>
    regs->IFCR = 0x3FU << hdma->StreamIndex;
 8001668:	6de2      	ldr	r2, [r4, #92]	; 0x5c
 800166a:	233f      	movs	r3, #63	; 0x3f
 800166c:	4093      	lsls	r3, r2
 800166e:	60ab      	str	r3, [r5, #8]
    hdma->Instance->CR  |= DMA_IT_TC | DMA_IT_TE | DMA_IT_DME;
 8001670:	6822      	ldr	r2, [r4, #0]
 8001672:	6813      	ldr	r3, [r2, #0]
 8001674:	f043 0316 	orr.w	r3, r3, #22
 8001678:	6013      	str	r3, [r2, #0]
    if(hdma->XferHalfCpltCallback != NULL)
 800167a:	6c23      	ldr	r3, [r4, #64]	; 0x40
 800167c:	b123      	cbz	r3, 8001688 <HAL_DMA_Start_IT+0x58>
      hdma->Instance->CR  |= DMA_IT_HT;
 800167e:	6822      	ldr	r2, [r4, #0]
 8001680:	6813      	ldr	r3, [r2, #0]
 8001682:	f043 0308 	orr.w	r3, r3, #8
 8001686:	6013      	str	r3, [r2, #0]
    __HAL_DMA_ENABLE(hdma);
 8001688:	6822      	ldr	r2, [r4, #0]
 800168a:	6813      	ldr	r3, [r2, #0]
 800168c:	f043 0301 	orr.w	r3, r3, #1
 8001690:	6013      	str	r3, [r2, #0]
  HAL_StatusTypeDef status = HAL_OK;
 8001692:	2000      	movs	r0, #0
 8001694:	e7df      	b.n	8001656 <HAL_DMA_Start_IT+0x26>
  __HAL_LOCK(hdma);
 8001696:	2002      	movs	r0, #2
 8001698:	e7dd      	b.n	8001656 <HAL_DMA_Start_IT+0x26>

0800169a <HAL_DMA_Abort_IT>:
  if(hdma->State != HAL_DMA_STATE_BUSY)
 800169a:	f890 3035 	ldrb.w	r3, [r0, #53]	; 0x35
 800169e:	b2db      	uxtb	r3, r3
 80016a0:	2b02      	cmp	r3, #2
 80016a2:	d003      	beq.n	80016ac <HAL_DMA_Abort_IT+0x12>
    hdma->ErrorCode = HAL_DMA_ERROR_NO_XFER;
 80016a4:	2380      	movs	r3, #128	; 0x80
 80016a6:	6543      	str	r3, [r0, #84]	; 0x54
    return HAL_ERROR;
 80016a8:	2001      	movs	r0, #1
 80016aa:	4770      	bx	lr
    hdma->State = HAL_DMA_STATE_ABORT;
 80016ac:	2305      	movs	r3, #5
 80016ae:	f880 3035 	strb.w	r3, [r0, #53]	; 0x35
    __HAL_DMA_DISABLE(hdma);
 80016b2:	6802      	ldr	r2, [r0, #0]
 80016b4:	6813      	ldr	r3, [r2, #0]
 80016b6:	f023 0301 	bic.w	r3, r3, #1
 80016ba:	6013      	str	r3, [r2, #0]
  return HAL_OK;
 80016bc:	2000      	movs	r0, #0
}
 80016be:	4770      	bx	lr

080016c0 <HAL_DMA_IRQHandler>:
{
 80016c0:	b5f0      	push	{r4, r5, r6, r7, lr}
 80016c2:	b083      	sub	sp, #12
 80016c4:	4604      	mov	r4, r0
  __IO uint32_t count = 0U;
 80016c6:	2300      	movs	r3, #0
 80016c8:	9301      	str	r3, [sp, #4]
  uint32_t timeout = SystemCoreClock / 9600U;
 80016ca:	4b72      	ldr	r3, [pc, #456]	; (8001894 <HAL_DMA_IRQHandler+0x1d4>)
 80016cc:	681d      	ldr	r5, [r3, #0]
 80016ce:	4b72      	ldr	r3, [pc, #456]	; (8001898 <HAL_DMA_IRQHandler+0x1d8>)
 80016d0:	fba3 3505 	umull	r3, r5, r3, r5
 80016d4:	0aad      	lsrs	r5, r5, #10
  DMA_Base_Registers *regs = (DMA_Base_Registers *)hdma->StreamBaseAddress;
 80016d6:	6d87      	ldr	r7, [r0, #88]	; 0x58
  tmpisr = regs->ISR;
 80016d8:	683e      	ldr	r6, [r7, #0]
  if ((tmpisr & (DMA_FLAG_TEIF0_4 << hdma->StreamIndex)) != RESET)
 80016da:	6dc2      	ldr	r2, [r0, #92]	; 0x5c
 80016dc:	2308      	movs	r3, #8
 80016de:	4093      	lsls	r3, r2
 80016e0:	4233      	tst	r3, r6
 80016e2:	d010      	beq.n	8001706 <HAL_DMA_IRQHandler+0x46>
    if(__HAL_DMA_GET_IT_SOURCE(hdma, DMA_IT_TE) != RESET)
 80016e4:	6803      	ldr	r3, [r0, #0]
 80016e6:	681a      	ldr	r2, [r3, #0]
 80016e8:	f012 0f04 	tst.w	r2, #4
 80016ec:	d00b      	beq.n	8001706 <HAL_DMA_IRQHandler+0x46>
      hdma->Instance->CR  &= ~(DMA_IT_TE);
 80016ee:	681a      	ldr	r2, [r3, #0]
 80016f0:	f022 0204 	bic.w	r2, r2, #4
 80016f4:	601a      	str	r2, [r3, #0]
      regs->IFCR = DMA_FLAG_TEIF0_4 << hdma->StreamIndex;
 80016f6:	6dc2      	ldr	r2, [r0, #92]	; 0x5c
 80016f8:	2308      	movs	r3, #8
 80016fa:	4093      	lsls	r3, r2
 80016fc:	60bb      	str	r3, [r7, #8]
      hdma->ErrorCode |= HAL_DMA_ERROR_TE;
 80016fe:	6d43      	ldr	r3, [r0, #84]	; 0x54
 8001700:	f043 0301 	orr.w	r3, r3, #1
 8001704:	6543      	str	r3, [r0, #84]	; 0x54
  if ((tmpisr & (DMA_FLAG_FEIF0_4 << hdma->StreamIndex)) != RESET)
 8001706:	6de2      	ldr	r2, [r4, #92]	; 0x5c
 8001708:	2301      	movs	r3, #1
 800170a:	4093      	lsls	r3, r2
 800170c:	4233      	tst	r3, r6
 800170e:	d009      	beq.n	8001724 <HAL_DMA_IRQHandler+0x64>
    if(__HAL_DMA_GET_IT_SOURCE(hdma, DMA_IT_FE) != RESET)
 8001710:	6822      	ldr	r2, [r4, #0]
 8001712:	6952      	ldr	r2, [r2, #20]
 8001714:	f012 0f80 	tst.w	r2, #128	; 0x80
 8001718:	d004      	beq.n	8001724 <HAL_DMA_IRQHandler+0x64>
      regs->IFCR = DMA_FLAG_FEIF0_4 << hdma->StreamIndex;
 800171a:	60bb      	str	r3, [r7, #8]
      hdma->ErrorCode |= HAL_DMA_ERROR_FE;
 800171c:	6d63      	ldr	r3, [r4, #84]	; 0x54
 800171e:	f043 0302 	orr.w	r3, r3, #2
 8001722:	6563      	str	r3, [r4, #84]	; 0x54
  if ((tmpisr & (DMA_FLAG_DMEIF0_4 << hdma->StreamIndex)) != RESET)
 8001724:	6de2      	ldr	r2, [r4, #92]	; 0x5c
 8001726:	2304      	movs	r3, #4
 8001728:	4093      	lsls	r3, r2
 800172a:	4233      	tst	r3, r6
 800172c:	d009      	beq.n	8001742 <HAL_DMA_IRQHandler+0x82>
    if(__HAL_DMA_GET_IT_SOURCE(hdma, DMA_IT_DME) != RESET)
 800172e:	6822      	ldr	r2, [r4, #0]
 8001730:	6812      	ldr	r2, [r2, #0]
 8001732:	f012 0f02 	tst.w	r2, #2
 8001736:	d004      	beq.n	8001742 <HAL_DMA_IRQHandler+0x82>
      regs->IFCR = DMA_FLAG_DMEIF0_4 << hdma->StreamIndex;
 8001738:	60bb      	str	r3, [r7, #8]
      hdma->ErrorCode |= HAL_DMA_ERROR_DME;
 800173a:	6d63      	ldr	r3, [r4, #84]	; 0x54
 800173c:	f043 0304 	orr.w	r3, r3, #4
 8001740:	6563      	str	r3, [r4, #84]	; 0x54
  if ((tmpisr & (DMA_FLAG_HTIF0_4 << hdma->StreamIndex)) != RESET)
 8001742:	6de2      	ldr	r2, [r4, #92]	; 0x5c
 8001744:	2310      	movs	r3, #16
 8001746:	4093      	lsls	r3, r2
 8001748:	4233      	tst	r3, r6
 800174a:	d024      	beq.n	8001796 <HAL_DMA_IRQHandler+0xd6>
    if(__HAL_DMA_GET_IT_SOURCE(hdma, DMA_IT_HT) != RESET)
 800174c:	6822      	ldr	r2, [r4, #0]
 800174e:	6812      	ldr	r2, [r2, #0]
 8001750:	f012 0f08 	tst.w	r2, #8
 8001754:	d01f      	beq.n	8001796 <HAL_DMA_IRQHandler+0xd6>
      regs->IFCR = DMA_FLAG_HTIF0_4 << hdma->StreamIndex;
 8001756:	60bb      	str	r3, [r7, #8]
      if(((hdma->Instance->CR) & (uint32_t)(DMA_SxCR_DBM)) != RESET)
 8001758:	6823      	ldr	r3, [r4, #0]
 800175a:	681a      	ldr	r2, [r3, #0]
 800175c:	f412 2f80 	tst.w	r2, #262144	; 0x40000
 8001760:	d00d      	beq.n	800177e <HAL_DMA_IRQHandler+0xbe>
        if((hdma->Instance->CR & DMA_SxCR_CT) == RESET)
 8001762:	681b      	ldr	r3, [r3, #0]
 8001764:	f413 2f00 	tst.w	r3, #524288	; 0x80000
 8001768:	d104      	bne.n	8001774 <HAL_DMA_IRQHandler+0xb4>
          if(hdma->XferHalfCpltCallback != NULL)
 800176a:	6c23      	ldr	r3, [r4, #64]	; 0x40
 800176c:	b19b      	cbz	r3, 8001796 <HAL_DMA_IRQHandler+0xd6>
            hdma->XferHalfCpltCallback(hdma);
 800176e:	4620      	mov	r0, r4
 8001770:	4798      	blx	r3
 8001772:	e010      	b.n	8001796 <HAL_DMA_IRQHandler+0xd6>
          if(hdma->XferM1HalfCpltCallback != NULL)
 8001774:	6ca3      	ldr	r3, [r4, #72]	; 0x48
 8001776:	b173      	cbz	r3, 8001796 <HAL_DMA_IRQHandler+0xd6>
            hdma->XferM1HalfCpltCallback(hdma);
 8001778:	4620      	mov	r0, r4
 800177a:	4798      	blx	r3
 800177c:	e00b      	b.n	8001796 <HAL_DMA_IRQHandler+0xd6>
        if((hdma->Instance->CR & DMA_SxCR_CIRC) == RESET)
 800177e:	681a      	ldr	r2, [r3, #0]
 8001780:	f412 7f80 	tst.w	r2, #256	; 0x100
 8001784:	d103      	bne.n	800178e <HAL_DMA_IRQHandler+0xce>
          hdma->Instance->CR  &= ~(DMA_IT_HT);
 8001786:	681a      	ldr	r2, [r3, #0]
 8001788:	f022 0208 	bic.w	r2, r2, #8
 800178c:	601a      	str	r2, [r3, #0]
        if(hdma->XferHalfCpltCallback != NULL)
 800178e:	6c23      	ldr	r3, [r4, #64]	; 0x40
 8001790:	b10b      	cbz	r3, 8001796 <HAL_DMA_IRQHandler+0xd6>
          hdma->XferHalfCpltCallback(hdma);
 8001792:	4620      	mov	r0, r4
 8001794:	4798      	blx	r3
  if ((tmpisr & (DMA_FLAG_TCIF0_4 << hdma->StreamIndex)) != RESET)
 8001796:	6de2      	ldr	r2, [r4, #92]	; 0x5c
 8001798:	2320      	movs	r3, #32
 800179a:	4093      	lsls	r3, r2
 800179c:	4233      	tst	r3, r6
 800179e:	d055      	beq.n	800184c <HAL_DMA_IRQHandler+0x18c>
    if(__HAL_DMA_GET_IT_SOURCE(hdma, DMA_IT_TC) != RESET)
 80017a0:	6822      	ldr	r2, [r4, #0]
 80017a2:	6812      	ldr	r2, [r2, #0]
 80017a4:	f012 0f10 	tst.w	r2, #16
 80017a8:	d050      	beq.n	800184c <HAL_DMA_IRQHandler+0x18c>
      regs->IFCR = DMA_FLAG_TCIF0_4 << hdma->StreamIndex;
 80017aa:	60bb      	str	r3, [r7, #8]
      if(HAL_DMA_STATE_ABORT == hdma->State)
 80017ac:	f894 3035 	ldrb.w	r3, [r4, #53]	; 0x35
 80017b0:	b2db      	uxtb	r3, r3
 80017b2:	2b05      	cmp	r3, #5
 80017b4:	d00e      	beq.n	80017d4 <HAL_DMA_IRQHandler+0x114>
      if(((hdma->Instance->CR) & (uint32_t)(DMA_SxCR_DBM)) != RESET)
 80017b6:	6823      	ldr	r3, [r4, #0]
 80017b8:	681a      	ldr	r2, [r3, #0]
 80017ba:	f412 2f80 	tst.w	r2, #262144	; 0x40000
 80017be:	d033      	beq.n	8001828 <HAL_DMA_IRQHandler+0x168>
        if((hdma->Instance->CR & DMA_SxCR_CT) == RESET)
 80017c0:	681b      	ldr	r3, [r3, #0]
 80017c2:	f413 2f00 	tst.w	r3, #524288	; 0x80000
 80017c6:	d12a      	bne.n	800181e <HAL_DMA_IRQHandler+0x15e>
          if(hdma->XferM1CpltCallback != NULL)
 80017c8:	6c63      	ldr	r3, [r4, #68]	; 0x44
 80017ca:	2b00      	cmp	r3, #0
 80017cc:	d03e      	beq.n	800184c <HAL_DMA_IRQHandler+0x18c>
            hdma->XferM1CpltCallback(hdma);
 80017ce:	4620      	mov	r0, r4
 80017d0:	4798      	blx	r3
 80017d2:	e03b      	b.n	800184c <HAL_DMA_IRQHandler+0x18c>
        hdma->Instance->CR  &= ~(DMA_IT_TC | DMA_IT_TE | DMA_IT_DME);
 80017d4:	6822      	ldr	r2, [r4, #0]
 80017d6:	6813      	ldr	r3, [r2, #0]
 80017d8:	f023 0316 	bic.w	r3, r3, #22
 80017dc:	6013      	str	r3, [r2, #0]
        hdma->Instance->FCR &= ~(DMA_IT_FE);
 80017de:	6822      	ldr	r2, [r4, #0]
 80017e0:	6953      	ldr	r3, [r2, #20]
 80017e2:	f023 0380 	bic.w	r3, r3, #128	; 0x80
 80017e6:	6153      	str	r3, [r2, #20]
        if((hdma->XferHalfCpltCallback != NULL) || (hdma->XferM1HalfCpltCallback != NULL))
 80017e8:	6c23      	ldr	r3, [r4, #64]	; 0x40
 80017ea:	b1a3      	cbz	r3, 8001816 <HAL_DMA_IRQHandler+0x156>
          hdma->Instance->CR  &= ~(DMA_IT_HT);
 80017ec:	6822      	ldr	r2, [r4, #0]
 80017ee:	6813      	ldr	r3, [r2, #0]
 80017f0:	f023 0308 	bic.w	r3, r3, #8
 80017f4:	6013      	str	r3, [r2, #0]
        regs->IFCR = 0x3FU << hdma->StreamIndex;
 80017f6:	6de2      	ldr	r2, [r4, #92]	; 0x5c
 80017f8:	233f      	movs	r3, #63	; 0x3f
 80017fa:	4093      	lsls	r3, r2
 80017fc:	60bb      	str	r3, [r7, #8]
        __HAL_UNLOCK(hdma);
 80017fe:	2300      	movs	r3, #0
 8001800:	f884 3034 	strb.w	r3, [r4, #52]	; 0x34
        hdma->State = HAL_DMA_STATE_READY;
 8001804:	2301      	movs	r3, #1
 8001806:	f884 3035 	strb.w	r3, [r4, #53]	; 0x35
        if(hdma->XferAbortCallback != NULL)
 800180a:	6d23      	ldr	r3, [r4, #80]	; 0x50
 800180c:	2b00      	cmp	r3, #0
 800180e:	d03f      	beq.n	8001890 <HAL_DMA_IRQHandler+0x1d0>
          hdma->XferAbortCallback(hdma);
 8001810:	4620      	mov	r0, r4
 8001812:	4798      	blx	r3
        return;
 8001814:	e03c      	b.n	8001890 <HAL_DMA_IRQHandler+0x1d0>
        if((hdma->XferHalfCpltCallback != NULL) || (hdma->XferM1HalfCpltCallback != NULL))
 8001816:	6ca3      	ldr	r3, [r4, #72]	; 0x48
 8001818:	2b00      	cmp	r3, #0
 800181a:	d1e7      	bne.n	80017ec <HAL_DMA_IRQHandler+0x12c>
 800181c:	e7eb      	b.n	80017f6 <HAL_DMA_IRQHandler+0x136>
          if(hdma->XferCpltCallback != NULL)
 800181e:	6be3      	ldr	r3, [r4, #60]	; 0x3c
 8001820:	b1a3      	cbz	r3, 800184c <HAL_DMA_IRQHandler+0x18c>
            hdma->XferCpltCallback(hdma);
 8001822:	4620      	mov	r0, r4
 8001824:	4798      	blx	r3
 8001826:	e011      	b.n	800184c <HAL_DMA_IRQHandler+0x18c>
        if((hdma->Instance->CR & DMA_SxCR_CIRC) == RESET)
 8001828:	681a      	ldr	r2, [r3, #0]
 800182a:	f412 7f80 	tst.w	r2, #256	; 0x100
 800182e:	d109      	bne.n	8001844 <HAL_DMA_IRQHandler+0x184>
          hdma->Instance->CR  &= ~(DMA_IT_TC);
 8001830:	681a      	ldr	r2, [r3, #0]
 8001832:	f022 0210 	bic.w	r2, r2, #16
 8001836:	601a      	str	r2, [r3, #0]
          __HAL_UNLOCK(hdma);
 8001838:	2300      	movs	r3, #0
 800183a:	f884 3034 	strb.w	r3, [r4, #52]	; 0x34
          hdma->State = HAL_DMA_STATE_READY;
 800183e:	2301      	movs	r3, #1
 8001840:	f884 3035 	strb.w	r3, [r4, #53]	; 0x35
        if(hdma->XferCpltCallback != NULL)
 8001844:	6be3      	ldr	r3, [r4, #60]	; 0x3c
 8001846:	b10b      	cbz	r3, 800184c <HAL_DMA_IRQHandler+0x18c>
          hdma->XferCpltCallback(hdma);
 8001848:	4620      	mov	r0, r4
 800184a:	4798      	blx	r3
  if(hdma->ErrorCode != HAL_DMA_ERROR_NONE)
 800184c:	6d63      	ldr	r3, [r4, #84]	; 0x54
 800184e:	b1fb      	cbz	r3, 8001890 <HAL_DMA_IRQHandler+0x1d0>
    if((hdma->ErrorCode & HAL_DMA_ERROR_TE) != RESET)
 8001850:	6d63      	ldr	r3, [r4, #84]	; 0x54
 8001852:	f013 0f01 	tst.w	r3, #1
 8001856:	d017      	beq.n	8001888 <HAL_DMA_IRQHandler+0x1c8>
      hdma->State = HAL_DMA_STATE_ABORT;
 8001858:	2305      	movs	r3, #5
 800185a:	f884 3035 	strb.w	r3, [r4, #53]	; 0x35
      __HAL_DMA_DISABLE(hdma);
 800185e:	6822      	ldr	r2, [r4, #0]
 8001860:	6813      	ldr	r3, [r2, #0]
 8001862:	f023 0301 	bic.w	r3, r3, #1
 8001866:	6013      	str	r3, [r2, #0]
        if (++count > timeout)
 8001868:	9b01      	ldr	r3, [sp, #4]
 800186a:	3301      	adds	r3, #1
 800186c:	9301      	str	r3, [sp, #4]
 800186e:	42ab      	cmp	r3, r5
 8001870:	d804      	bhi.n	800187c <HAL_DMA_IRQHandler+0x1bc>
      while((hdma->Instance->CR & DMA_SxCR_EN) != RESET);
 8001872:	6823      	ldr	r3, [r4, #0]
 8001874:	681b      	ldr	r3, [r3, #0]
 8001876:	f013 0f01 	tst.w	r3, #1
 800187a:	d1f5      	bne.n	8001868 <HAL_DMA_IRQHandler+0x1a8>
      __HAL_UNLOCK(hdma);
 800187c:	2300      	movs	r3, #0
 800187e:	f884 3034 	strb.w	r3, [r4, #52]	; 0x34
      hdma->State = HAL_DMA_STATE_READY;
 8001882:	2301      	movs	r3, #1
 8001884:	f884 3035 	strb.w	r3, [r4, #53]	; 0x35
    if(hdma->XferErrorCallback != NULL)
 8001888:	6ce3      	ldr	r3, [r4, #76]	; 0x4c
 800188a:	b10b      	cbz	r3, 8001890 <HAL_DMA_IRQHandler+0x1d0>
      hdma->XferErrorCallback(hdma);
 800188c:	4620      	mov	r0, r4
 800188e:	4798      	blx	r3
}
 8001890:	b003      	add	sp, #12
 8001892:	bdf0      	pop	{r4, r5, r6, r7, pc}
 8001894:	20000004 	.word	0x20000004
 8001898:	1b4e81b5 	.word	0x1b4e81b5

0800189c <HAL_GPIO_Init>:
  assert_param(IS_GPIO_PIN(GPIO_Init->Pin));
  assert_param(IS_GPIO_MODE(GPIO_Init->Mode));
  assert_param(IS_GPIO_PULL(GPIO_Init->Pull));

  /* Configure the port pins */
  for(position = 0U; position < GPIO_NUMBER; position++)
 800189c:	2300      	movs	r3, #0
 800189e:	2b0f      	cmp	r3, #15
 80018a0:	f200 80c7 	bhi.w	8001a32 <HAL_GPIO_Init+0x196>
{
 80018a4:	b5f0      	push	{r4, r5, r6, r7, lr}
 80018a6:	b083      	sub	sp, #12
 80018a8:	e039      	b.n	800191e <HAL_GPIO_Init+0x82>
        /* Enable SYSCFG Clock */
        __HAL_RCC_SYSCFG_CLK_ENABLE();

        temp = SYSCFG->EXTICR[position >> 2U];
        temp &= ~(0x0FU << (4U * (position & 0x03U)));
        temp |= ((uint32_t)(GPIO_GET_INDEX(GPIOx)) << (4U * (position & 0x03U)));
 80018aa:	2204      	movs	r2, #4
 80018ac:	e000      	b.n	80018b0 <HAL_GPIO_Init+0x14>
 80018ae:	2200      	movs	r2, #0
 80018b0:	40b2      	lsls	r2, r6
 80018b2:	433a      	orrs	r2, r7
        SYSCFG->EXTICR[position >> 2U] = temp;
 80018b4:	3402      	adds	r4, #2
 80018b6:	4e5f      	ldr	r6, [pc, #380]	; (8001a34 <HAL_GPIO_Init+0x198>)
 80018b8:	f846 2024 	str.w	r2, [r6, r4, lsl #2]

        /* Clear EXTI line configuration */
        temp = EXTI->IMR;
 80018bc:	4a5e      	ldr	r2, [pc, #376]	; (8001a38 <HAL_GPIO_Init+0x19c>)
 80018be:	6814      	ldr	r4, [r2, #0]
        temp &= ~((uint32_t)iocurrent);
 80018c0:	43ea      	mvns	r2, r5
 80018c2:	ea24 0605 	bic.w	r6, r4, r5
        if((GPIO_Init->Mode & GPIO_MODE_IT) == GPIO_MODE_IT)
 80018c6:	684f      	ldr	r7, [r1, #4]
 80018c8:	f417 3f80 	tst.w	r7, #65536	; 0x10000
 80018cc:	d001      	beq.n	80018d2 <HAL_GPIO_Init+0x36>
        {
          temp |= iocurrent;
 80018ce:	ea45 0604 	orr.w	r6, r5, r4
        }
        EXTI->IMR = temp;
 80018d2:	4c59      	ldr	r4, [pc, #356]	; (8001a38 <HAL_GPIO_Init+0x19c>)
 80018d4:	6026      	str	r6, [r4, #0]

        temp = EXTI->EMR;
 80018d6:	6864      	ldr	r4, [r4, #4]
        temp &= ~((uint32_t)iocurrent);
 80018d8:	ea02 0604 	and.w	r6, r2, r4
        if((GPIO_Init->Mode & GPIO_MODE_EVT) == GPIO_MODE_EVT)
 80018dc:	684f      	ldr	r7, [r1, #4]
 80018de:	f417 3f00 	tst.w	r7, #131072	; 0x20000
 80018e2:	d001      	beq.n	80018e8 <HAL_GPIO_Init+0x4c>
        {
          temp |= iocurrent;
 80018e4:	ea45 0604 	orr.w	r6, r5, r4
        }
        EXTI->EMR = temp;
 80018e8:	4c53      	ldr	r4, [pc, #332]	; (8001a38 <HAL_GPIO_Init+0x19c>)
 80018ea:	6066      	str	r6, [r4, #4]

        /* Clear Rising Falling edge configuration */
        temp = EXTI->RTSR;
 80018ec:	68a4      	ldr	r4, [r4, #8]
        temp &= ~((uint32_t)iocurrent);
 80018ee:	ea02 0604 	and.w	r6, r2, r4
        if((GPIO_Init->Mode & RISING_EDGE) == RISING_EDGE)
 80018f2:	684f      	ldr	r7, [r1, #4]
 80018f4:	f417 1f80 	tst.w	r7, #1048576	; 0x100000
 80018f8:	d001      	beq.n	80018fe <HAL_GPIO_Init+0x62>
        {
          temp |= iocurrent;
 80018fa:	ea45 0604 	orr.w	r6, r5, r4
        }
        EXTI->RTSR = temp;
 80018fe:	4c4e      	ldr	r4, [pc, #312]	; (8001a38 <HAL_GPIO_Init+0x19c>)
 8001900:	60a6      	str	r6, [r4, #8]

        temp = EXTI->FTSR;
 8001902:	68e4      	ldr	r4, [r4, #12]
        temp &= ~((uint32_t)iocurrent);
 8001904:	4022      	ands	r2, r4
        if((GPIO_Init->Mode & FALLING_EDGE) == FALLING_EDGE)
 8001906:	684e      	ldr	r6, [r1, #4]
 8001908:	f416 1f00 	tst.w	r6, #2097152	; 0x200000
 800190c:	d001      	beq.n	8001912 <HAL_GPIO_Init+0x76>
        {
          temp |= iocurrent;
 800190e:	ea45 0204 	orr.w	r2, r5, r4
        }
        EXTI->FTSR = temp;
 8001912:	4c49      	ldr	r4, [pc, #292]	; (8001a38 <HAL_GPIO_Init+0x19c>)
 8001914:	60e2      	str	r2, [r4, #12]
  for(position = 0U; position < GPIO_NUMBER; position++)
 8001916:	3301      	adds	r3, #1
 8001918:	2b0f      	cmp	r3, #15
 800191a:	f200 8088 	bhi.w	8001a2e <HAL_GPIO_Init+0x192>
    ioposition = 0x01U << position;
 800191e:	2201      	movs	r2, #1
 8001920:	409a      	lsls	r2, r3
    iocurrent = (uint32_t)(GPIO_Init->Pin) & ioposition;
 8001922:	680c      	ldr	r4, [r1, #0]
 8001924:	ea04 0502 	and.w	r5, r4, r2
    if(iocurrent == ioposition)
 8001928:	ea32 0404 	bics.w	r4, r2, r4
 800192c:	d1f3      	bne.n	8001916 <HAL_GPIO_Init+0x7a>
      if((GPIO_Init->Mode == GPIO_MODE_OUTPUT_PP) || (GPIO_Init->Mode == GPIO_MODE_AF_PP) ||
 800192e:	684c      	ldr	r4, [r1, #4]
 8001930:	1e66      	subs	r6, r4, #1
 8001932:	2e01      	cmp	r6, #1
 8001934:	d903      	bls.n	800193e <HAL_GPIO_Init+0xa2>
 8001936:	2c11      	cmp	r4, #17
 8001938:	d001      	beq.n	800193e <HAL_GPIO_Init+0xa2>
         (GPIO_Init->Mode == GPIO_MODE_OUTPUT_OD) || (GPIO_Init->Mode == GPIO_MODE_AF_OD))
 800193a:	2c12      	cmp	r4, #18
 800193c:	d112      	bne.n	8001964 <HAL_GPIO_Init+0xc8>
        temp = GPIOx->OSPEEDR; 
 800193e:	6886      	ldr	r6, [r0, #8]
        temp &= ~(GPIO_OSPEEDER_OSPEEDR0 << (position * 2U));
 8001940:	005f      	lsls	r7, r3, #1
 8001942:	2403      	movs	r4, #3
 8001944:	40bc      	lsls	r4, r7
 8001946:	ea26 0604 	bic.w	r6, r6, r4
        temp |= (GPIO_Init->Speed << (position * 2U));
 800194a:	68cc      	ldr	r4, [r1, #12]
 800194c:	40bc      	lsls	r4, r7
 800194e:	4334      	orrs	r4, r6
        GPIOx->OSPEEDR = temp;
 8001950:	6084      	str	r4, [r0, #8]
        temp = GPIOx->OTYPER;
 8001952:	6846      	ldr	r6, [r0, #4]
        temp &= ~(GPIO_OTYPER_OT_0 << position) ;
 8001954:	ea26 0602 	bic.w	r6, r6, r2
        temp |= (((GPIO_Init->Mode & GPIO_OUTPUT_TYPE) >> 4U) << position);
 8001958:	684c      	ldr	r4, [r1, #4]
 800195a:	f3c4 1200 	ubfx	r2, r4, #4, #1
 800195e:	409a      	lsls	r2, r3
 8001960:	4332      	orrs	r2, r6
        GPIOx->OTYPER = temp;
 8001962:	6042      	str	r2, [r0, #4]
      temp = GPIOx->PUPDR;
 8001964:	68c7      	ldr	r7, [r0, #12]
      temp &= ~(GPIO_PUPDR_PUPDR0 << (position * 2U));
 8001966:	005e      	lsls	r6, r3, #1
 8001968:	2403      	movs	r4, #3
 800196a:	40b4      	lsls	r4, r6
 800196c:	43e2      	mvns	r2, r4
 800196e:	ea27 0704 	bic.w	r7, r7, r4
      temp |= ((GPIO_Init->Pull) << (position * 2U));
 8001972:	688c      	ldr	r4, [r1, #8]
 8001974:	40b4      	lsls	r4, r6
 8001976:	433c      	orrs	r4, r7
      GPIOx->PUPDR = temp;
 8001978:	60c4      	str	r4, [r0, #12]
      if((GPIO_Init->Mode == GPIO_MODE_AF_PP) || (GPIO_Init->Mode == GPIO_MODE_AF_OD))
 800197a:	684c      	ldr	r4, [r1, #4]
 800197c:	2c02      	cmp	r4, #2
 800197e:	d001      	beq.n	8001984 <HAL_GPIO_Init+0xe8>
 8001980:	2c12      	cmp	r4, #18
 8001982:	d113      	bne.n	80019ac <HAL_GPIO_Init+0x110>
        temp = GPIOx->AFR[position >> 3U];
 8001984:	08df      	lsrs	r7, r3, #3
 8001986:	3708      	adds	r7, #8
 8001988:	f850 e027 	ldr.w	lr, [r0, r7, lsl #2]
        temp &= ~(0xFU << ((uint32_t)(position & 0x07U) * 4U)) ;
 800198c:	f003 0407 	and.w	r4, r3, #7
 8001990:	ea4f 0c84 	mov.w	ip, r4, lsl #2
 8001994:	240f      	movs	r4, #15
 8001996:	fa04 f40c 	lsl.w	r4, r4, ip
 800199a:	ea2e 0e04 	bic.w	lr, lr, r4
        temp |= ((uint32_t)(GPIO_Init->Alternate) << (((uint32_t)position & 0x07U) * 4U));
 800199e:	690c      	ldr	r4, [r1, #16]
 80019a0:	fa04 f40c 	lsl.w	r4, r4, ip
 80019a4:	ea44 040e 	orr.w	r4, r4, lr
        GPIOx->AFR[position >> 3U] = temp;
 80019a8:	f840 4027 	str.w	r4, [r0, r7, lsl #2]
      temp = GPIOx->MODER;
 80019ac:	6804      	ldr	r4, [r0, #0]
      temp &= ~(GPIO_MODER_MODER0 << (position * 2U));
 80019ae:	4014      	ands	r4, r2
      temp |= ((GPIO_Init->Mode & GPIO_MODE) << (position * 2U));
 80019b0:	684a      	ldr	r2, [r1, #4]
 80019b2:	f002 0203 	and.w	r2, r2, #3
 80019b6:	40b2      	lsls	r2, r6
 80019b8:	4322      	orrs	r2, r4
      GPIOx->MODER = temp;
 80019ba:	6002      	str	r2, [r0, #0]
      if((GPIO_Init->Mode & EXTI_MODE) == EXTI_MODE)
 80019bc:	684a      	ldr	r2, [r1, #4]
 80019be:	f012 5f80 	tst.w	r2, #268435456	; 0x10000000
 80019c2:	d0a8      	beq.n	8001916 <HAL_GPIO_Init+0x7a>
        __HAL_RCC_SYSCFG_CLK_ENABLE();
 80019c4:	2200      	movs	r2, #0
 80019c6:	9201      	str	r2, [sp, #4]
 80019c8:	4a1c      	ldr	r2, [pc, #112]	; (8001a3c <HAL_GPIO_Init+0x1a0>)
 80019ca:	6c54      	ldr	r4, [r2, #68]	; 0x44
 80019cc:	f444 4480 	orr.w	r4, r4, #16384	; 0x4000
 80019d0:	6454      	str	r4, [r2, #68]	; 0x44
 80019d2:	6c52      	ldr	r2, [r2, #68]	; 0x44
 80019d4:	f402 4280 	and.w	r2, r2, #16384	; 0x4000
 80019d8:	9201      	str	r2, [sp, #4]
 80019da:	9a01      	ldr	r2, [sp, #4]
        temp = SYSCFG->EXTICR[position >> 2U];
 80019dc:	089c      	lsrs	r4, r3, #2
 80019de:	1ca6      	adds	r6, r4, #2
 80019e0:	4a14      	ldr	r2, [pc, #80]	; (8001a34 <HAL_GPIO_Init+0x198>)
 80019e2:	f852 7026 	ldr.w	r7, [r2, r6, lsl #2]
        temp &= ~(0x0FU << (4U * (position & 0x03U)));
 80019e6:	f003 0203 	and.w	r2, r3, #3
 80019ea:	0096      	lsls	r6, r2, #2
 80019ec:	220f      	movs	r2, #15
 80019ee:	40b2      	lsls	r2, r6
 80019f0:	ea27 0702 	bic.w	r7, r7, r2
        temp |= ((uint32_t)(GPIO_GET_INDEX(GPIOx)) << (4U * (position & 0x03U)));
 80019f4:	4a12      	ldr	r2, [pc, #72]	; (8001a40 <HAL_GPIO_Init+0x1a4>)
 80019f6:	4290      	cmp	r0, r2
 80019f8:	f43f af59 	beq.w	80018ae <HAL_GPIO_Init+0x12>
 80019fc:	f502 6280 	add.w	r2, r2, #1024	; 0x400
 8001a00:	4290      	cmp	r0, r2
 8001a02:	d00e      	beq.n	8001a22 <HAL_GPIO_Init+0x186>
 8001a04:	f502 6280 	add.w	r2, r2, #1024	; 0x400
 8001a08:	4290      	cmp	r0, r2
 8001a0a:	d00c      	beq.n	8001a26 <HAL_GPIO_Init+0x18a>
 8001a0c:	f502 6280 	add.w	r2, r2, #1024	; 0x400
 8001a10:	4290      	cmp	r0, r2
 8001a12:	d00a      	beq.n	8001a2a <HAL_GPIO_Init+0x18e>
 8001a14:	f502 6280 	add.w	r2, r2, #1024	; 0x400
 8001a18:	4290      	cmp	r0, r2
 8001a1a:	f43f af46 	beq.w	80018aa <HAL_GPIO_Init+0xe>
 8001a1e:	2207      	movs	r2, #7
 8001a20:	e746      	b.n	80018b0 <HAL_GPIO_Init+0x14>
 8001a22:	2201      	movs	r2, #1
 8001a24:	e744      	b.n	80018b0 <HAL_GPIO_Init+0x14>
 8001a26:	2202      	movs	r2, #2
 8001a28:	e742      	b.n	80018b0 <HAL_GPIO_Init+0x14>
 8001a2a:	2203      	movs	r2, #3
 8001a2c:	e740      	b.n	80018b0 <HAL_GPIO_Init+0x14>
      }
    }
  }
}
 8001a2e:	b003      	add	sp, #12
 8001a30:	bdf0      	pop	{r4, r5, r6, r7, pc}
 8001a32:	4770      	bx	lr
 8001a34:	40013800 	.word	0x40013800
 8001a38:	40013c00 	.word	0x40013c00
 8001a3c:	40023800 	.word	0x40023800
 8001a40:	40020000 	.word	0x40020000

08001a44 <HAL_I2S_Init>:
#if defined (SPI_I2S_FULLDUPLEX_SUPPORT)
  uint16_t tmpreg;
#endif

  /* Check the I2S handle allocation */
  if (hi2s == NULL)
 8001a44:	2800      	cmp	r0, #0
 8001a46:	f000 80bf 	beq.w	8001bc8 <HAL_I2S_Init+0x184>
{
 8001a4a:	b570      	push	{r4, r5, r6, lr}
 8001a4c:	4604      	mov	r4, r0
  assert_param(IS_I2S_MCLK_OUTPUT(hi2s->Init.MCLKOutput));
  assert_param(IS_I2S_AUDIO_FREQ(hi2s->Init.AudioFreq));
  assert_param(IS_I2S_CPOL(hi2s->Init.CPOL));
  assert_param(IS_I2S_CLOCKSOURCE(hi2s->Init.ClockSource));

  if (hi2s->State == HAL_I2S_STATE_RESET)
 8001a4e:	f890 3041 	ldrb.w	r3, [r0, #65]	; 0x41
 8001a52:	2b00      	cmp	r3, #0
 8001a54:	d051      	beq.n	8001afa <HAL_I2S_Init+0xb6>
    /* Init the low level hardware : GPIO, CLOCK, CORTEX...etc */
    HAL_I2S_MspInit(hi2s);
#endif /* USE_HAL_I2S_REGISTER_CALLBACKS */
  }

  hi2s->State = HAL_I2S_STATE_BUSY;
 8001a56:	2202      	movs	r2, #2
 8001a58:	f884 2041 	strb.w	r2, [r4, #65]	; 0x41

  /*----------------------- SPIx I2SCFGR & I2SPR Configuration ----------------*/
  /* Clear I2SMOD, I2SE, I2SCFG, PCMSYNC, I2SSTD, CKPOL, DATLEN and CHLEN bits */
  CLEAR_BIT(hi2s->Instance->I2SCFGR, (SPI_I2SCFGR_CHLEN | SPI_I2SCFGR_DATLEN | SPI_I2SCFGR_CKPOL | \
 8001a5c:	6821      	ldr	r1, [r4, #0]
 8001a5e:	69cb      	ldr	r3, [r1, #28]
 8001a60:	f423 637b 	bic.w	r3, r3, #4016	; 0xfb0
 8001a64:	f023 030f 	bic.w	r3, r3, #15
 8001a68:	61cb      	str	r3, [r1, #28]
                                      SPI_I2SCFGR_I2SSTD | SPI_I2SCFGR_PCMSYNC | SPI_I2SCFGR_I2SCFG | \
                                      SPI_I2SCFGR_I2SE | SPI_I2SCFGR_I2SMOD));
  hi2s->Instance->I2SPR = 0x0002U;
 8001a6a:	6823      	ldr	r3, [r4, #0]
 8001a6c:	621a      	str	r2, [r3, #32]

  /*----------------------- I2SPR: I2SDIV and ODD Calculation -----------------*/
  /* If the requested audio frequency is not the default, compute the prescaler */
  if (hi2s->Init.AudioFreq != I2S_AUDIOFREQ_DEFAULT)
 8001a6e:	6963      	ldr	r3, [r4, #20]
 8001a70:	4293      	cmp	r3, r2
 8001a72:	d063      	beq.n	8001b3c <HAL_I2S_Init+0xf8>
  {
    /* Check the frame length (For the Prescaler computing) ********************/
    if (hi2s->Init.DataFormat == I2S_DATAFORMAT_16B)
 8001a74:	68e3      	ldr	r3, [r4, #12]
 8001a76:	2b00      	cmp	r3, #0
 8001a78:	d146      	bne.n	8001b08 <HAL_I2S_Init+0xc4>
    {
      /* Packet length is 16 bits */
      packetlength = 16U;
 8001a7a:	2510      	movs	r5, #16
      /* Packet length is 32 bits */
      packetlength = 32U;
    }

    /* I2S standard */
    if (hi2s->Init.Standard <= I2S_STANDARD_LSB)
 8001a7c:	68a3      	ldr	r3, [r4, #8]
 8001a7e:	2b20      	cmp	r3, #32
 8001a80:	d800      	bhi.n	8001a84 <HAL_I2S_Init+0x40>
    {
      /* In I2S standard packet lenght is multiplied by 2 */
      packetlength = packetlength * 2U;
 8001a82:	006d      	lsls	r5, r5, #1
    else
    {
      i2sclk = HAL_RCCEx_GetPeriphCLKFreq(RCC_PERIPHCLK_I2S_APB2);
    }
#else
    i2sclk = HAL_RCCEx_GetPeriphCLKFreq(RCC_PERIPHCLK_I2S);
 8001a84:	2001      	movs	r0, #1
 8001a86:	f000 ff47 	bl	8002918 <HAL_RCCEx_GetPeriphCLKFreq>
#endif

    /* Compute the Real divider depending on the MCLK output state, with a floating point */
    if (hi2s->Init.MCLKOutput == I2S_MCLKOUTPUT_ENABLE)
 8001a8a:	6923      	ldr	r3, [r4, #16]
 8001a8c:	f5b3 7f00 	cmp.w	r3, #512	; 0x200
 8001a90:	d03c      	beq.n	8001b0c <HAL_I2S_Init+0xc8>
      }
    }
    else
    {
      /* MCLK output is disabled */
      tmp = (uint32_t)(((((i2sclk / packetlength) * 10U) / hi2s->Init.AudioFreq)) + 5U);
 8001a92:	fbb0 f0f5 	udiv	r0, r0, r5
 8001a96:	eb00 0080 	add.w	r0, r0, r0, lsl #2
 8001a9a:	0043      	lsls	r3, r0, #1
 8001a9c:	6960      	ldr	r0, [r4, #20]
 8001a9e:	fbb3 f3f0 	udiv	r3, r3, r0
 8001aa2:	3305      	adds	r3, #5
    }

    /* Remove the flatting point */
    tmp = tmp / 10U;
 8001aa4:	4a49      	ldr	r2, [pc, #292]	; (8001bcc <HAL_I2S_Init+0x188>)
 8001aa6:	fba2 2303 	umull	r2, r3, r2, r3

    /* Check the parity of the divider */
    i2sodd = (uint32_t)(tmp & (uint32_t)1U);
 8001aaa:	f3c3 02c0 	ubfx	r2, r3, #3, #1

    /* Compute the i2sdiv prescaler */
    i2sdiv = (uint32_t)((tmp - i2sodd) / 2U);
 8001aae:	ebc2 03d3 	rsb	r3, r2, r3, lsr #3
 8001ab2:	085b      	lsrs	r3, r3, #1

    /* Get the Mask for the Odd bit (SPI_I2SPR[8]) register */
    i2sodd = (uint32_t)(i2sodd << 8U);
 8001ab4:	0211      	lsls	r1, r2, #8
    i2sdiv = 2U;
    i2sodd = 0U;
  }

  /* Test if the divider is 1 or 0 or greater than 0xFF */
  if ((i2sdiv < 2U) || (i2sdiv > 0xFFU))
 8001ab6:	1e9a      	subs	r2, r3, #2
 8001ab8:	2afd      	cmp	r2, #253	; 0xfd
 8001aba:	d841      	bhi.n	8001b40 <HAL_I2S_Init+0xfc>
  }

  /*----------------------- SPIx I2SCFGR & I2SPR Configuration ----------------*/

  /* Write to SPIx I2SPR register the computed value */
  hi2s->Instance->I2SPR = (uint32_t)((uint32_t)i2sdiv | (uint32_t)(i2sodd | (uint32_t)hi2s->Init.MCLKOutput));
 8001abc:	6922      	ldr	r2, [r4, #16]
 8001abe:	430a      	orrs	r2, r1
 8001ac0:	6821      	ldr	r1, [r4, #0]
 8001ac2:	4313      	orrs	r3, r2
 8001ac4:	620b      	str	r3, [r1, #32]

  /* Clear I2SMOD, I2SE, I2SCFG, PCMSYNC, I2SSTD, CKPOL, DATLEN and CHLEN bits */
  /* And configure the I2S with the I2S_InitStruct values                      */
  MODIFY_REG(hi2s->Instance->I2SCFGR, (SPI_I2SCFGR_CHLEN | SPI_I2SCFGR_DATLEN | \
 8001ac6:	6821      	ldr	r1, [r4, #0]
 8001ac8:	69cb      	ldr	r3, [r1, #28]
 8001aca:	f423 637b 	bic.w	r3, r3, #4016	; 0xfb0
 8001ace:	f023 030f 	bic.w	r3, r3, #15
 8001ad2:	6862      	ldr	r2, [r4, #4]
 8001ad4:	68a0      	ldr	r0, [r4, #8]
 8001ad6:	4302      	orrs	r2, r0
 8001ad8:	68e0      	ldr	r0, [r4, #12]
 8001ada:	4302      	orrs	r2, r0
 8001adc:	69a0      	ldr	r0, [r4, #24]
 8001ade:	4302      	orrs	r2, r0
 8001ae0:	4313      	orrs	r3, r2
 8001ae2:	f443 6300 	orr.w	r3, r3, #2048	; 0x800
 8001ae6:	61cb      	str	r3, [r1, #28]
#if defined (SPI_I2S_FULLDUPLEX_SUPPORT)

  /* Configure the I2S extended if the full duplex mode is enabled */
  assert_param(IS_I2S_FULLDUPLEX_MODE(hi2s->Init.FullDuplexMode));

  if (hi2s->Init.FullDuplexMode == I2S_FULLDUPLEXMODE_ENABLE)
 8001ae8:	6a23      	ldr	r3, [r4, #32]
 8001aea:	2b01      	cmp	r3, #1
 8001aec:	d02e      	beq.n	8001b4c <HAL_I2S_Init+0x108>
    /* Write to SPIx I2SCFGR */
    WRITE_REG(I2SxEXT(hi2s->Instance)->I2SCFGR, tmpreg);
  }
#endif /* SPI_I2S_FULLDUPLEX_SUPPORT */

  hi2s->ErrorCode = HAL_I2S_ERROR_NONE;
 8001aee:	2000      	movs	r0, #0
 8001af0:	6460      	str	r0, [r4, #68]	; 0x44
  hi2s->State     = HAL_I2S_STATE_READY;
 8001af2:	2301      	movs	r3, #1
 8001af4:	f884 3041 	strb.w	r3, [r4, #65]	; 0x41

  return HAL_OK;
}
 8001af8:	bd70      	pop	{r4, r5, r6, pc}
    hi2s->Lock = HAL_UNLOCKED;
 8001afa:	f880 3040 	strb.w	r3, [r0, #64]	; 0x40
    hi2s->IrqHandlerISR = I2S_IRQHandler;
 8001afe:	4b34      	ldr	r3, [pc, #208]	; (8001bd0 <HAL_I2S_Init+0x18c>)
 8001b00:	6343      	str	r3, [r0, #52]	; 0x34
    HAL_I2S_MspInit(hi2s);
 8001b02:	f7ff fabf 	bl	8001084 <HAL_I2S_MspInit>
 8001b06:	e7a6      	b.n	8001a56 <HAL_I2S_Init+0x12>
      packetlength = 32U;
 8001b08:	2520      	movs	r5, #32
 8001b0a:	e7b7      	b.n	8001a7c <HAL_I2S_Init+0x38>
      if (hi2s->Init.DataFormat != I2S_DATAFORMAT_16B)
 8001b0c:	68e3      	ldr	r3, [r4, #12]
 8001b0e:	b153      	cbz	r3, 8001b26 <HAL_I2S_Init+0xe2>
        tmp = (uint32_t)(((((i2sclk / (packetlength * 4U)) * 10U) / hi2s->Init.AudioFreq)) + 5U);
 8001b10:	00ad      	lsls	r5, r5, #2
 8001b12:	fbb0 f0f5 	udiv	r0, r0, r5
 8001b16:	eb00 0080 	add.w	r0, r0, r0, lsl #2
 8001b1a:	0043      	lsls	r3, r0, #1
 8001b1c:	6960      	ldr	r0, [r4, #20]
 8001b1e:	fbb3 f3f0 	udiv	r3, r3, r0
 8001b22:	3305      	adds	r3, #5
 8001b24:	e7be      	b.n	8001aa4 <HAL_I2S_Init+0x60>
        tmp = (uint32_t)(((((i2sclk / (packetlength * 8U)) * 10U) / hi2s->Init.AudioFreq)) + 5U);
 8001b26:	00ed      	lsls	r5, r5, #3
 8001b28:	fbb0 f0f5 	udiv	r0, r0, r5
 8001b2c:	eb00 0080 	add.w	r0, r0, r0, lsl #2
 8001b30:	0043      	lsls	r3, r0, #1
 8001b32:	6960      	ldr	r0, [r4, #20]
 8001b34:	fbb3 f3f0 	udiv	r3, r3, r0
 8001b38:	3305      	adds	r3, #5
 8001b3a:	e7b3      	b.n	8001aa4 <HAL_I2S_Init+0x60>
    i2sodd = 0U;
 8001b3c:	2100      	movs	r1, #0
 8001b3e:	e7ba      	b.n	8001ab6 <HAL_I2S_Init+0x72>
    SET_BIT(hi2s->ErrorCode, HAL_I2S_ERROR_PRESCALER);
 8001b40:	6c63      	ldr	r3, [r4, #68]	; 0x44
 8001b42:	f043 0310 	orr.w	r3, r3, #16
 8001b46:	6463      	str	r3, [r4, #68]	; 0x44
    return  HAL_ERROR;
 8001b48:	2001      	movs	r0, #1
 8001b4a:	e7d5      	b.n	8001af8 <HAL_I2S_Init+0xb4>
    hi2s->IrqHandlerISR = HAL_I2SEx_FullDuplex_IRQHandler;
 8001b4c:	4b21      	ldr	r3, [pc, #132]	; (8001bd4 <HAL_I2S_Init+0x190>)
 8001b4e:	6363      	str	r3, [r4, #52]	; 0x34
    CLEAR_BIT(I2SxEXT(hi2s->Instance)->I2SCFGR, (SPI_I2SCFGR_CHLEN | SPI_I2SCFGR_DATLEN | SPI_I2SCFGR_CKPOL | \
 8001b50:	6822      	ldr	r2, [r4, #0]
 8001b52:	4b21      	ldr	r3, [pc, #132]	; (8001bd8 <HAL_I2S_Init+0x194>)
 8001b54:	429a      	cmp	r2, r3
 8001b56:	d01f      	beq.n	8001b98 <HAL_I2S_Init+0x154>
 8001b58:	f04f 2240 	mov.w	r2, #1073758208	; 0x40004000
 8001b5c:	69d3      	ldr	r3, [r2, #28]
 8001b5e:	f423 637b 	bic.w	r3, r3, #4016	; 0xfb0
 8001b62:	f023 030f 	bic.w	r3, r3, #15
 8001b66:	61d3      	str	r3, [r2, #28]
    I2SxEXT(hi2s->Instance)->I2SPR = 2U;
 8001b68:	6822      	ldr	r2, [r4, #0]
 8001b6a:	4b1b      	ldr	r3, [pc, #108]	; (8001bd8 <HAL_I2S_Init+0x194>)
 8001b6c:	429a      	cmp	r2, r3
 8001b6e:	d015      	beq.n	8001b9c <HAL_I2S_Init+0x158>
 8001b70:	f04f 2340 	mov.w	r3, #1073758208	; 0x40004000
 8001b74:	2202      	movs	r2, #2
 8001b76:	621a      	str	r2, [r3, #32]
    tmpreg = I2SxEXT(hi2s->Instance)->I2SCFGR;
 8001b78:	6822      	ldr	r2, [r4, #0]
 8001b7a:	4b17      	ldr	r3, [pc, #92]	; (8001bd8 <HAL_I2S_Init+0x194>)
 8001b7c:	429a      	cmp	r2, r3
 8001b7e:	d010      	beq.n	8001ba2 <HAL_I2S_Init+0x15e>
 8001b80:	f04f 2140 	mov.w	r1, #1073758208	; 0x40004000
 8001b84:	69ca      	ldr	r2, [r1, #28]
 8001b86:	b292      	uxth	r2, r2
    if ((hi2s->Init.Mode == I2S_MODE_MASTER_TX) || (hi2s->Init.Mode == I2S_MODE_SLAVE_TX))
 8001b88:	6863      	ldr	r3, [r4, #4]
 8001b8a:	f5b3 7f00 	cmp.w	r3, #512	; 0x200
 8001b8e:	d00a      	beq.n	8001ba6 <HAL_I2S_Init+0x162>
 8001b90:	b9c3      	cbnz	r3, 8001bc4 <HAL_I2S_Init+0x180>
      tmp = I2S_MODE_SLAVE_RX;
 8001b92:	f44f 7680 	mov.w	r6, #256	; 0x100
 8001b96:	e008      	b.n	8001baa <HAL_I2S_Init+0x166>
    CLEAR_BIT(I2SxEXT(hi2s->Instance)->I2SCFGR, (SPI_I2SCFGR_CHLEN | SPI_I2SCFGR_DATLEN | SPI_I2SCFGR_CKPOL | \
 8001b98:	4a10      	ldr	r2, [pc, #64]	; (8001bdc <HAL_I2S_Init+0x198>)
 8001b9a:	e7df      	b.n	8001b5c <HAL_I2S_Init+0x118>
    I2SxEXT(hi2s->Instance)->I2SPR = 2U;
 8001b9c:	f5a3 6380 	sub.w	r3, r3, #1024	; 0x400
 8001ba0:	e7e8      	b.n	8001b74 <HAL_I2S_Init+0x130>
    tmpreg = I2SxEXT(hi2s->Instance)->I2SCFGR;
 8001ba2:	490e      	ldr	r1, [pc, #56]	; (8001bdc <HAL_I2S_Init+0x198>)
 8001ba4:	e7ee      	b.n	8001b84 <HAL_I2S_Init+0x140>
      tmp = I2S_MODE_SLAVE_RX;
 8001ba6:	f44f 7680 	mov.w	r6, #256	; 0x100
                         (uint16_t)(hi2s->Init.Standard | (uint16_t)(hi2s->Init.DataFormat | \
 8001baa:	68a0      	ldr	r0, [r4, #8]
 8001bac:	68e5      	ldr	r5, [r4, #12]
                                    (uint16_t)hi2s->Init.CPOL))));
 8001bae:	8b23      	ldrh	r3, [r4, #24]
                         (uint16_t)(hi2s->Init.Standard | (uint16_t)(hi2s->Init.DataFormat | \
 8001bb0:	432b      	orrs	r3, r5
 8001bb2:	b29b      	uxth	r3, r3
 8001bb4:	4303      	orrs	r3, r0
 8001bb6:	b29b      	uxth	r3, r3
    tmpreg |= (uint16_t)((uint16_t)SPI_I2SCFGR_I2SMOD | (uint16_t)(tmp | \
 8001bb8:	4333      	orrs	r3, r6
 8001bba:	4313      	orrs	r3, r2
 8001bbc:	f443 6300 	orr.w	r3, r3, #2048	; 0x800
    WRITE_REG(I2SxEXT(hi2s->Instance)->I2SCFGR, tmpreg);
 8001bc0:	61cb      	str	r3, [r1, #28]
 8001bc2:	e794      	b.n	8001aee <HAL_I2S_Init+0xaa>
      tmp = I2S_MODE_SLAVE_TX;
 8001bc4:	2600      	movs	r6, #0
 8001bc6:	e7f0      	b.n	8001baa <HAL_I2S_Init+0x166>
    return HAL_ERROR;
 8001bc8:	2001      	movs	r0, #1
}
 8001bca:	4770      	bx	lr
 8001bcc:	cccccccd 	.word	0xcccccccd
 8001bd0:	08001d5f 	.word	0x08001d5f
 8001bd4:	08001f99 	.word	0x08001f99
 8001bd8:	40003800 	.word	0x40003800
 8001bdc:	40003400 	.word	0x40003400

08001be0 <HAL_I2S_Transmit_DMA>:
  */
HAL_StatusTypeDef HAL_I2S_Transmit_DMA(I2S_HandleTypeDef *hi2s, uint16_t *pData, uint16_t Size)
{
  uint32_t tmpreg_cfgr;

  if ((pData == NULL) || (Size == 0U))
 8001be0:	2900      	cmp	r1, #0
 8001be2:	d05e      	beq.n	8001ca2 <HAL_I2S_Transmit_DMA+0xc2>
{
 8001be4:	b538      	push	{r3, r4, r5, lr}
 8001be6:	4604      	mov	r4, r0
  if ((pData == NULL) || (Size == 0U))
 8001be8:	2a00      	cmp	r2, #0
 8001bea:	d05c      	beq.n	8001ca6 <HAL_I2S_Transmit_DMA+0xc6>
  {
    return  HAL_ERROR;
  }

  /* Process Locked */
  __HAL_LOCK(hi2s);
 8001bec:	f894 3040 	ldrb.w	r3, [r4, #64]	; 0x40
 8001bf0:	b2db      	uxtb	r3, r3
 8001bf2:	2b01      	cmp	r3, #1
 8001bf4:	d059      	beq.n	8001caa <HAL_I2S_Transmit_DMA+0xca>
 8001bf6:	2301      	movs	r3, #1
 8001bf8:	f884 3040 	strb.w	r3, [r4, #64]	; 0x40

  if (hi2s->State != HAL_I2S_STATE_READY)
 8001bfc:	f894 5041 	ldrb.w	r5, [r4, #65]	; 0x41
 8001c00:	b2ed      	uxtb	r5, r5
 8001c02:	429d      	cmp	r5, r3
 8001c04:	d110      	bne.n	8001c28 <HAL_I2S_Transmit_DMA+0x48>
    __HAL_UNLOCK(hi2s);
    return HAL_BUSY;
  }

  /* Set state and reset error code */
  hi2s->State = HAL_I2S_STATE_BUSY_TX;
 8001c06:	2303      	movs	r3, #3
 8001c08:	f884 3041 	strb.w	r3, [r4, #65]	; 0x41
  hi2s->ErrorCode = HAL_I2S_ERROR_NONE;
 8001c0c:	2300      	movs	r3, #0
 8001c0e:	6463      	str	r3, [r4, #68]	; 0x44
  hi2s->pTxBuffPtr = pData;
 8001c10:	6261      	str	r1, [r4, #36]	; 0x24

  tmpreg_cfgr = hi2s->Instance->I2SCFGR & (SPI_I2SCFGR_DATLEN | SPI_I2SCFGR_CHLEN);
 8001c12:	6823      	ldr	r3, [r4, #0]
 8001c14:	69db      	ldr	r3, [r3, #28]
 8001c16:	f003 0307 	and.w	r3, r3, #7

  if ((tmpreg_cfgr == I2S_DATAFORMAT_24B) || (tmpreg_cfgr == I2S_DATAFORMAT_32B))
 8001c1a:	2b03      	cmp	r3, #3
 8001c1c:	d009      	beq.n	8001c32 <HAL_I2S_Transmit_DMA+0x52>
 8001c1e:	2b05      	cmp	r3, #5
 8001c20:	d007      	beq.n	8001c32 <HAL_I2S_Transmit_DMA+0x52>
    hi2s->TxXferSize = (Size << 1U);
    hi2s->TxXferCount = (Size << 1U);
  }
  else
  {
    hi2s->TxXferSize = Size;
 8001c22:	8522      	strh	r2, [r4, #40]	; 0x28
    hi2s->TxXferCount = Size;
 8001c24:	8562      	strh	r2, [r4, #42]	; 0x2a
 8001c26:	e008      	b.n	8001c3a <HAL_I2S_Transmit_DMA+0x5a>
    __HAL_UNLOCK(hi2s);
 8001c28:	2300      	movs	r3, #0
 8001c2a:	f884 3040 	strb.w	r3, [r4, #64]	; 0x40
    return HAL_BUSY;
 8001c2e:	2002      	movs	r0, #2
 8001c30:	e03a      	b.n	8001ca8 <HAL_I2S_Transmit_DMA+0xc8>
    hi2s->TxXferSize = (Size << 1U);
 8001c32:	0052      	lsls	r2, r2, #1
 8001c34:	b292      	uxth	r2, r2
 8001c36:	8522      	strh	r2, [r4, #40]	; 0x28
    hi2s->TxXferCount = (Size << 1U);
 8001c38:	8562      	strh	r2, [r4, #42]	; 0x2a
  }

  /* Set the I2S Tx DMA Half transfer complete callback */
  hi2s->hdmatx->XferHalfCpltCallback = I2S_DMATxHalfCplt;
 8001c3a:	6ba3      	ldr	r3, [r4, #56]	; 0x38
 8001c3c:	4a1c      	ldr	r2, [pc, #112]	; (8001cb0 <HAL_I2S_Transmit_DMA+0xd0>)
 8001c3e:	641a      	str	r2, [r3, #64]	; 0x40

  /* Set the I2S Tx DMA transfer complete callback */
  hi2s->hdmatx->XferCpltCallback = I2S_DMATxCplt;
 8001c40:	6ba3      	ldr	r3, [r4, #56]	; 0x38
 8001c42:	4a1c      	ldr	r2, [pc, #112]	; (8001cb4 <HAL_I2S_Transmit_DMA+0xd4>)
 8001c44:	63da      	str	r2, [r3, #60]	; 0x3c

  /* Set the DMA error callback */
  hi2s->hdmatx->XferErrorCallback = I2S_DMAError;
 8001c46:	6ba3      	ldr	r3, [r4, #56]	; 0x38
 8001c48:	4a1b      	ldr	r2, [pc, #108]	; (8001cb8 <HAL_I2S_Transmit_DMA+0xd8>)
 8001c4a:	64da      	str	r2, [r3, #76]	; 0x4c

  /* Enable the Tx DMA Stream/Channel */
  if (HAL_OK != HAL_DMA_Start_IT(hi2s->hdmatx,
                                 (uint32_t)hi2s->pTxBuffPtr,
                                 (uint32_t)&hi2s->Instance->DR,
 8001c4c:	6822      	ldr	r2, [r4, #0]
                                 hi2s->TxXferSize))
 8001c4e:	8d23      	ldrh	r3, [r4, #40]	; 0x28
  if (HAL_OK != HAL_DMA_Start_IT(hi2s->hdmatx,
 8001c50:	b29b      	uxth	r3, r3
 8001c52:	320c      	adds	r2, #12
 8001c54:	6a61      	ldr	r1, [r4, #36]	; 0x24
 8001c56:	6ba0      	ldr	r0, [r4, #56]	; 0x38
 8001c58:	f7ff fcea 	bl	8001630 <HAL_DMA_Start_IT>
 8001c5c:	b9a8      	cbnz	r0, 8001c8a <HAL_I2S_Transmit_DMA+0xaa>
    __HAL_UNLOCK(hi2s);
    return HAL_ERROR;
  }

  /* Check if the I2S is already enabled */
  if (HAL_IS_BIT_CLR(hi2s->Instance->I2SCFGR, SPI_I2SCFGR_I2SE))
 8001c5e:	6823      	ldr	r3, [r4, #0]
 8001c60:	69da      	ldr	r2, [r3, #28]
 8001c62:	f412 6f80 	tst.w	r2, #1024	; 0x400
 8001c66:	d103      	bne.n	8001c70 <HAL_I2S_Transmit_DMA+0x90>
  {
    /* Enable I2S peripheral */
    __HAL_I2S_ENABLE(hi2s);
 8001c68:	69da      	ldr	r2, [r3, #28]
 8001c6a:	f442 6280 	orr.w	r2, r2, #1024	; 0x400
 8001c6e:	61da      	str	r2, [r3, #28]
  }

  /* Check if the I2S Tx request is already enabled */
  if (HAL_IS_BIT_CLR(hi2s->Instance->CR2, SPI_CR2_TXDMAEN))
 8001c70:	6823      	ldr	r3, [r4, #0]
 8001c72:	685a      	ldr	r2, [r3, #4]
 8001c74:	f012 0f02 	tst.w	r2, #2
 8001c78:	d103      	bne.n	8001c82 <HAL_I2S_Transmit_DMA+0xa2>
  {
    /* Enable Tx DMA Request */
    SET_BIT(hi2s->Instance->CR2, SPI_CR2_TXDMAEN);
 8001c7a:	685a      	ldr	r2, [r3, #4]
 8001c7c:	f042 0202 	orr.w	r2, r2, #2
 8001c80:	605a      	str	r2, [r3, #4]
  }

  __HAL_UNLOCK(hi2s);
 8001c82:	2300      	movs	r3, #0
 8001c84:	f884 3040 	strb.w	r3, [r4, #64]	; 0x40
  return HAL_OK;
 8001c88:	e00e      	b.n	8001ca8 <HAL_I2S_Transmit_DMA+0xc8>
    SET_BIT(hi2s->ErrorCode, HAL_I2S_ERROR_DMA);
 8001c8a:	6c63      	ldr	r3, [r4, #68]	; 0x44
 8001c8c:	f043 0308 	orr.w	r3, r3, #8
 8001c90:	6463      	str	r3, [r4, #68]	; 0x44
    hi2s->State = HAL_I2S_STATE_READY;
 8001c92:	2301      	movs	r3, #1
 8001c94:	f884 3041 	strb.w	r3, [r4, #65]	; 0x41
    __HAL_UNLOCK(hi2s);
 8001c98:	2300      	movs	r3, #0
 8001c9a:	f884 3040 	strb.w	r3, [r4, #64]	; 0x40
    return HAL_ERROR;
 8001c9e:	4628      	mov	r0, r5
 8001ca0:	e002      	b.n	8001ca8 <HAL_I2S_Transmit_DMA+0xc8>
    return  HAL_ERROR;
 8001ca2:	2001      	movs	r0, #1
}
 8001ca4:	4770      	bx	lr
    return  HAL_ERROR;
 8001ca6:	2001      	movs	r0, #1
}
 8001ca8:	bd38      	pop	{r3, r4, r5, pc}
  __HAL_LOCK(hi2s);
 8001caa:	2002      	movs	r0, #2
 8001cac:	e7fc      	b.n	8001ca8 <HAL_I2S_Transmit_DMA+0xc8>
 8001cae:	bf00      	nop
 8001cb0:	08001cbd 	.word	0x08001cbd
 8001cb4:	08001cff 	.word	0x08001cff
 8001cb8:	08001e2f 	.word	0x08001e2f

08001cbc <I2S_DMATxHalfCplt>:
  * @param  hdma pointer to a DMA_HandleTypeDef structure that contains
  *                the configuration information for the specified DMA module.
  * @retval None
  */
static void I2S_DMATxHalfCplt(DMA_HandleTypeDef *hdma)
{
 8001cbc:	b508      	push	{r3, lr}

  /* Call user Tx half complete callback */
#if (USE_HAL_I2S_REGISTER_CALLBACKS == 1U)
  hi2s->TxHalfCpltCallback(hi2s);
#else
  HAL_I2S_TxHalfCpltCallback(hi2s);
 8001cbe:	6b80      	ldr	r0, [r0, #56]	; 0x38
 8001cc0:	f7fe ffa0 	bl	8000c04 <HAL_I2S_TxHalfCpltCallback>
#endif /* USE_HAL_I2S_REGISTER_CALLBACKS */
}
 8001cc4:	bd08      	pop	{r3, pc}

08001cc6 <I2S_Transmit_IT>:
  * @param  hi2s pointer to a I2S_HandleTypeDef structure that contains
  *         the configuration information for I2S module
  * @retval None
  */
static void I2S_Transmit_IT(I2S_HandleTypeDef *hi2s)
{
 8001cc6:	b508      	push	{r3, lr}
  /* Transmit data */
  hi2s->Instance->DR = (*hi2s->pTxBuffPtr);
 8001cc8:	6a42      	ldr	r2, [r0, #36]	; 0x24
 8001cca:	6803      	ldr	r3, [r0, #0]
 8001ccc:	8812      	ldrh	r2, [r2, #0]
 8001cce:	60da      	str	r2, [r3, #12]
  hi2s->pTxBuffPtr++;
 8001cd0:	6a43      	ldr	r3, [r0, #36]	; 0x24
 8001cd2:	3302      	adds	r3, #2
 8001cd4:	6243      	str	r3, [r0, #36]	; 0x24
  hi2s->TxXferCount--;
 8001cd6:	8d43      	ldrh	r3, [r0, #42]	; 0x2a
 8001cd8:	b29b      	uxth	r3, r3
 8001cda:	3b01      	subs	r3, #1
 8001cdc:	b29b      	uxth	r3, r3
 8001cde:	8543      	strh	r3, [r0, #42]	; 0x2a

  if (hi2s->TxXferCount == 0U)
 8001ce0:	8d43      	ldrh	r3, [r0, #42]	; 0x2a
 8001ce2:	b29b      	uxth	r3, r3
 8001ce4:	b103      	cbz	r3, 8001ce8 <I2S_Transmit_IT+0x22>
    hi2s->TxCpltCallback(hi2s);
#else
    HAL_I2S_TxCpltCallback(hi2s);
#endif /* USE_HAL_I2S_REGISTER_CALLBACKS */
  }
}
 8001ce6:	bd08      	pop	{r3, pc}
    __HAL_I2S_DISABLE_IT(hi2s, (I2S_IT_TXE | I2S_IT_ERR));
 8001ce8:	6802      	ldr	r2, [r0, #0]
 8001cea:	6853      	ldr	r3, [r2, #4]
 8001cec:	f023 03a0 	bic.w	r3, r3, #160	; 0xa0
 8001cf0:	6053      	str	r3, [r2, #4]
    hi2s->State = HAL_I2S_STATE_READY;
 8001cf2:	2301      	movs	r3, #1
 8001cf4:	f880 3041 	strb.w	r3, [r0, #65]	; 0x41
    HAL_I2S_TxCpltCallback(hi2s);
 8001cf8:	f7fe ff8e 	bl	8000c18 <HAL_I2S_TxCpltCallback>
}
 8001cfc:	e7f3      	b.n	8001ce6 <I2S_Transmit_IT+0x20>

08001cfe <I2S_DMATxCplt>:
{
 8001cfe:	b508      	push	{r3, lr}
 8001d00:	4603      	mov	r3, r0
  I2S_HandleTypeDef *hi2s = (I2S_HandleTypeDef *)((DMA_HandleTypeDef *)hdma)->Parent; /* Derogation MISRAC2012-Rule-11.5 */
 8001d02:	6b80      	ldr	r0, [r0, #56]	; 0x38
  if (hdma->Init.Mode == DMA_NORMAL)
 8001d04:	69db      	ldr	r3, [r3, #28]
 8001d06:	b94b      	cbnz	r3, 8001d1c <I2S_DMATxCplt+0x1e>
    CLEAR_BIT(hi2s->Instance->CR2, SPI_CR2_TXDMAEN);
 8001d08:	6802      	ldr	r2, [r0, #0]
 8001d0a:	6853      	ldr	r3, [r2, #4]
 8001d0c:	f023 0302 	bic.w	r3, r3, #2
 8001d10:	6053      	str	r3, [r2, #4]
    hi2s->TxXferCount = 0U;
 8001d12:	2300      	movs	r3, #0
 8001d14:	8543      	strh	r3, [r0, #42]	; 0x2a
    hi2s->State = HAL_I2S_STATE_READY;
 8001d16:	2301      	movs	r3, #1
 8001d18:	f880 3041 	strb.w	r3, [r0, #65]	; 0x41
  HAL_I2S_TxCpltCallback(hi2s);
 8001d1c:	f7fe ff7c 	bl	8000c18 <HAL_I2S_TxCpltCallback>
}
 8001d20:	bd08      	pop	{r3, pc}

08001d22 <HAL_I2S_RxCpltCallback>:
}
 8001d22:	4770      	bx	lr

08001d24 <I2S_Receive_IT>:
  * @param  hi2s pointer to a I2S_HandleTypeDef structure that contains
  *         the configuration information for I2S module
  * @retval None
  */
static void I2S_Receive_IT(I2S_HandleTypeDef *hi2s)
{
 8001d24:	b508      	push	{r3, lr}
  /* Receive data */
  (*hi2s->pRxBuffPtr) = (uint16_t)hi2s->Instance->DR;
 8001d26:	6803      	ldr	r3, [r0, #0]
 8001d28:	68da      	ldr	r2, [r3, #12]
 8001d2a:	6ac3      	ldr	r3, [r0, #44]	; 0x2c
 8001d2c:	801a      	strh	r2, [r3, #0]
  hi2s->pRxBuffPtr++;
 8001d2e:	6ac3      	ldr	r3, [r0, #44]	; 0x2c
 8001d30:	3302      	adds	r3, #2
 8001d32:	62c3      	str	r3, [r0, #44]	; 0x2c
  hi2s->RxXferCount--;
 8001d34:	8e43      	ldrh	r3, [r0, #50]	; 0x32
 8001d36:	b29b      	uxth	r3, r3
 8001d38:	3b01      	subs	r3, #1
 8001d3a:	b29b      	uxth	r3, r3
 8001d3c:	8643      	strh	r3, [r0, #50]	; 0x32

  if (hi2s->RxXferCount == 0U)
 8001d3e:	8e43      	ldrh	r3, [r0, #50]	; 0x32
 8001d40:	b29b      	uxth	r3, r3
 8001d42:	b103      	cbz	r3, 8001d46 <I2S_Receive_IT+0x22>
    hi2s->RxCpltCallback(hi2s);
#else
    HAL_I2S_RxCpltCallback(hi2s);
#endif /* USE_HAL_I2S_REGISTER_CALLBACKS */
  }
}
 8001d44:	bd08      	pop	{r3, pc}
    __HAL_I2S_DISABLE_IT(hi2s, (I2S_IT_RXNE | I2S_IT_ERR));
 8001d46:	6802      	ldr	r2, [r0, #0]
 8001d48:	6853      	ldr	r3, [r2, #4]
 8001d4a:	f023 0360 	bic.w	r3, r3, #96	; 0x60
 8001d4e:	6053      	str	r3, [r2, #4]
    hi2s->State = HAL_I2S_STATE_READY;
 8001d50:	2301      	movs	r3, #1
 8001d52:	f880 3041 	strb.w	r3, [r0, #65]	; 0x41
    HAL_I2S_RxCpltCallback(hi2s);
 8001d56:	f7ff ffe4 	bl	8001d22 <HAL_I2S_RxCpltCallback>
}
 8001d5a:	e7f3      	b.n	8001d44 <I2S_Receive_IT+0x20>

08001d5c <HAL_I2S_ErrorCallback>:
}
 8001d5c:	4770      	bx	lr

08001d5e <I2S_IRQHandler>:
  * @param  hi2s: pointer to a I2S_HandleTypeDef structure that contains
  *         the configuration information for I2S module
  * @retval None
  */
static void I2S_IRQHandler(I2S_HandleTypeDef *hi2s)
{
 8001d5e:	b510      	push	{r4, lr}
 8001d60:	b084      	sub	sp, #16
 8001d62:	4604      	mov	r4, r0
  __IO uint32_t i2ssr = hi2s->Instance->SR;
 8001d64:	6802      	ldr	r2, [r0, #0]
 8001d66:	6893      	ldr	r3, [r2, #8]
 8001d68:	9303      	str	r3, [sp, #12]

  if (hi2s->State == HAL_I2S_STATE_BUSY_RX)
 8001d6a:	f890 3041 	ldrb.w	r3, [r0, #65]	; 0x41
 8001d6e:	b2db      	uxtb	r3, r3
 8001d70:	2b04      	cmp	r3, #4
 8001d72:	d006      	beq.n	8001d82 <I2S_IRQHandler+0x24>
      HAL_I2S_ErrorCallback(hi2s);
#endif /* USE_HAL_I2S_REGISTER_CALLBACKS */
    }
  }

  if (hi2s->State == HAL_I2S_STATE_BUSY_TX)
 8001d74:	f894 3041 	ldrb.w	r3, [r4, #65]	; 0x41
 8001d78:	b2db      	uxtb	r3, r3
 8001d7a:	2b03      	cmp	r3, #3
 8001d7c:	d02c      	beq.n	8001dd8 <I2S_IRQHandler+0x7a>
#else
      HAL_I2S_ErrorCallback(hi2s);
#endif /* USE_HAL_I2S_REGISTER_CALLBACKS */
    }
  }
}
 8001d7e:	b004      	add	sp, #16
 8001d80:	bd10      	pop	{r4, pc}
    if (((i2ssr & I2S_FLAG_RXNE) == I2S_FLAG_RXNE) && (__HAL_I2S_GET_IT_SOURCE(hi2s, I2S_IT_RXNE) != RESET))
 8001d82:	9b03      	ldr	r3, [sp, #12]
 8001d84:	f013 0f01 	tst.w	r3, #1
 8001d88:	d003      	beq.n	8001d92 <I2S_IRQHandler+0x34>
 8001d8a:	6853      	ldr	r3, [r2, #4]
 8001d8c:	f013 0f40 	tst.w	r3, #64	; 0x40
 8001d90:	d11f      	bne.n	8001dd2 <I2S_IRQHandler+0x74>
    if (((i2ssr & I2S_FLAG_OVR) == I2S_FLAG_OVR) && (__HAL_I2S_GET_IT_SOURCE(hi2s, I2S_IT_ERR) != RESET))
 8001d92:	9b03      	ldr	r3, [sp, #12]
 8001d94:	f013 0f40 	tst.w	r3, #64	; 0x40
 8001d98:	d0ec      	beq.n	8001d74 <I2S_IRQHandler+0x16>
 8001d9a:	6823      	ldr	r3, [r4, #0]
 8001d9c:	685a      	ldr	r2, [r3, #4]
 8001d9e:	f012 0f20 	tst.w	r2, #32
 8001da2:	d0e7      	beq.n	8001d74 <I2S_IRQHandler+0x16>
      __HAL_I2S_DISABLE_IT(hi2s, (I2S_IT_RXNE | I2S_IT_ERR));
 8001da4:	685a      	ldr	r2, [r3, #4]
 8001da6:	f022 0260 	bic.w	r2, r2, #96	; 0x60
 8001daa:	605a      	str	r2, [r3, #4]
      __HAL_I2S_CLEAR_OVRFLAG(hi2s);
 8001dac:	2300      	movs	r3, #0
 8001dae:	9301      	str	r3, [sp, #4]
 8001db0:	6823      	ldr	r3, [r4, #0]
 8001db2:	68da      	ldr	r2, [r3, #12]
 8001db4:	9201      	str	r2, [sp, #4]
 8001db6:	689b      	ldr	r3, [r3, #8]
 8001db8:	9301      	str	r3, [sp, #4]
 8001dba:	9b01      	ldr	r3, [sp, #4]
      hi2s->State = HAL_I2S_STATE_READY;
 8001dbc:	2301      	movs	r3, #1
 8001dbe:	f884 3041 	strb.w	r3, [r4, #65]	; 0x41
      SET_BIT(hi2s->ErrorCode, HAL_I2S_ERROR_OVR);
 8001dc2:	6c63      	ldr	r3, [r4, #68]	; 0x44
 8001dc4:	f043 0302 	orr.w	r3, r3, #2
 8001dc8:	6463      	str	r3, [r4, #68]	; 0x44
      HAL_I2S_ErrorCallback(hi2s);
 8001dca:	4620      	mov	r0, r4
 8001dcc:	f7ff ffc6 	bl	8001d5c <HAL_I2S_ErrorCallback>
 8001dd0:	e7d0      	b.n	8001d74 <I2S_IRQHandler+0x16>
      I2S_Receive_IT(hi2s);
 8001dd2:	f7ff ffa7 	bl	8001d24 <I2S_Receive_IT>
 8001dd6:	e7dc      	b.n	8001d92 <I2S_IRQHandler+0x34>
    if (((i2ssr & I2S_FLAG_TXE) == I2S_FLAG_TXE) && (__HAL_I2S_GET_IT_SOURCE(hi2s, I2S_IT_TXE) != RESET))
 8001dd8:	9b03      	ldr	r3, [sp, #12]
 8001dda:	f013 0f02 	tst.w	r3, #2
 8001dde:	d004      	beq.n	8001dea <I2S_IRQHandler+0x8c>
 8001de0:	6823      	ldr	r3, [r4, #0]
 8001de2:	685b      	ldr	r3, [r3, #4]
 8001de4:	f013 0f80 	tst.w	r3, #128	; 0x80
 8001de8:	d11d      	bne.n	8001e26 <I2S_IRQHandler+0xc8>
    if (((i2ssr & I2S_FLAG_UDR) == I2S_FLAG_UDR) && (__HAL_I2S_GET_IT_SOURCE(hi2s, I2S_IT_ERR) != RESET))
 8001dea:	9b03      	ldr	r3, [sp, #12]
 8001dec:	f013 0f08 	tst.w	r3, #8
 8001df0:	d0c5      	beq.n	8001d7e <I2S_IRQHandler+0x20>
 8001df2:	6823      	ldr	r3, [r4, #0]
 8001df4:	685a      	ldr	r2, [r3, #4]
 8001df6:	f012 0f20 	tst.w	r2, #32
 8001dfa:	d0c0      	beq.n	8001d7e <I2S_IRQHandler+0x20>
      __HAL_I2S_DISABLE_IT(hi2s, (I2S_IT_TXE | I2S_IT_ERR));
 8001dfc:	685a      	ldr	r2, [r3, #4]
 8001dfe:	f022 02a0 	bic.w	r2, r2, #160	; 0xa0
 8001e02:	605a      	str	r2, [r3, #4]
      __HAL_I2S_CLEAR_UDRFLAG(hi2s);
 8001e04:	2300      	movs	r3, #0
 8001e06:	9302      	str	r3, [sp, #8]
 8001e08:	6823      	ldr	r3, [r4, #0]
 8001e0a:	689b      	ldr	r3, [r3, #8]
 8001e0c:	9302      	str	r3, [sp, #8]
 8001e0e:	9b02      	ldr	r3, [sp, #8]
      hi2s->State = HAL_I2S_STATE_READY;
 8001e10:	2301      	movs	r3, #1
 8001e12:	f884 3041 	strb.w	r3, [r4, #65]	; 0x41
      SET_BIT(hi2s->ErrorCode, HAL_I2S_ERROR_UDR);
 8001e16:	6c63      	ldr	r3, [r4, #68]	; 0x44
 8001e18:	f043 0304 	orr.w	r3, r3, #4
 8001e1c:	6463      	str	r3, [r4, #68]	; 0x44
      HAL_I2S_ErrorCallback(hi2s);
 8001e1e:	4620      	mov	r0, r4
 8001e20:	f7ff ff9c 	bl	8001d5c <HAL_I2S_ErrorCallback>
}
 8001e24:	e7ab      	b.n	8001d7e <I2S_IRQHandler+0x20>
      I2S_Transmit_IT(hi2s);
 8001e26:	4620      	mov	r0, r4
 8001e28:	f7ff ff4d 	bl	8001cc6 <I2S_Transmit_IT>
 8001e2c:	e7dd      	b.n	8001dea <I2S_IRQHandler+0x8c>

08001e2e <I2S_DMAError>:
{
 8001e2e:	b508      	push	{r3, lr}
  I2S_HandleTypeDef *hi2s = (I2S_HandleTypeDef *)((DMA_HandleTypeDef *)hdma)->Parent; /* Derogation MISRAC2012-Rule-11.5 */
 8001e30:	6b80      	ldr	r0, [r0, #56]	; 0x38
  CLEAR_BIT(hi2s->Instance->CR2, (SPI_CR2_RXDMAEN | SPI_CR2_TXDMAEN));
 8001e32:	6802      	ldr	r2, [r0, #0]
 8001e34:	6853      	ldr	r3, [r2, #4]
 8001e36:	f023 0303 	bic.w	r3, r3, #3
 8001e3a:	6053      	str	r3, [r2, #4]
  hi2s->TxXferCount = 0U;
 8001e3c:	2300      	movs	r3, #0
 8001e3e:	8543      	strh	r3, [r0, #42]	; 0x2a
  hi2s->RxXferCount = 0U;
 8001e40:	8643      	strh	r3, [r0, #50]	; 0x32
  hi2s->State = HAL_I2S_STATE_READY;
 8001e42:	2301      	movs	r3, #1
 8001e44:	f880 3041 	strb.w	r3, [r0, #65]	; 0x41
  SET_BIT(hi2s->ErrorCode, HAL_I2S_ERROR_DMA);
 8001e48:	6c43      	ldr	r3, [r0, #68]	; 0x44
 8001e4a:	f043 0308 	orr.w	r3, r3, #8
 8001e4e:	6443      	str	r3, [r0, #68]	; 0x44
  HAL_I2S_ErrorCallback(hi2s);
 8001e50:	f7ff ff84 	bl	8001d5c <HAL_I2S_ErrorCallback>
}
 8001e54:	bd08      	pop	{r3, pc}

08001e56 <HAL_I2SEx_TxRxCpltCallback>:
  UNUSED(hi2s);

  /* NOTE : This function should not be modified, when the callback is needed,
            the HAL_I2SEx_TxRxCpltCallback could be implemented in the user file
   */
}
 8001e56:	4770      	bx	lr

08001e58 <I2SEx_TxISR_I2S>:
  * @brief  I2S Full-Duplex IT handler transmit function
  * @param  hi2s I2S handle
  * @retval None
  */
static void I2SEx_TxISR_I2S(I2S_HandleTypeDef *hi2s)
{
 8001e58:	b508      	push	{r3, lr}
  /* Write Data on DR register */
  hi2s->Instance->DR = (*hi2s->pTxBuffPtr++);
 8001e5a:	6a43      	ldr	r3, [r0, #36]	; 0x24
 8001e5c:	1c9a      	adds	r2, r3, #2
 8001e5e:	6242      	str	r2, [r0, #36]	; 0x24
 8001e60:	6802      	ldr	r2, [r0, #0]
 8001e62:	881b      	ldrh	r3, [r3, #0]
 8001e64:	60d3      	str	r3, [r2, #12]
  hi2s->TxXferCount--;
 8001e66:	8d43      	ldrh	r3, [r0, #42]	; 0x2a
 8001e68:	b29b      	uxth	r3, r3
 8001e6a:	3b01      	subs	r3, #1
 8001e6c:	b29b      	uxth	r3, r3
 8001e6e:	8543      	strh	r3, [r0, #42]	; 0x2a

  if (hi2s->TxXferCount == 0U)
 8001e70:	8d43      	ldrh	r3, [r0, #42]	; 0x2a
 8001e72:	b29b      	uxth	r3, r3
 8001e74:	b93b      	cbnz	r3, 8001e86 <I2SEx_TxISR_I2S+0x2e>
  {
    /* Disable TXE and ERR interrupt */
    __HAL_I2S_DISABLE_IT(hi2s, (I2S_IT_TXE | I2S_IT_ERR));
 8001e76:	6802      	ldr	r2, [r0, #0]
 8001e78:	6853      	ldr	r3, [r2, #4]
 8001e7a:	f023 03a0 	bic.w	r3, r3, #160	; 0xa0
 8001e7e:	6053      	str	r3, [r2, #4]

    if (hi2s->RxXferCount == 0U)
 8001e80:	8e43      	ldrh	r3, [r0, #50]	; 0x32
 8001e82:	b29b      	uxth	r3, r3
 8001e84:	b103      	cbz	r3, 8001e88 <I2SEx_TxISR_I2S+0x30>
#else
      HAL_I2SEx_TxRxCpltCallback(hi2s);
#endif /* USE_HAL_I2S_REGISTER_CALLBACKS */
    }
  }
}
 8001e86:	bd08      	pop	{r3, pc}
      hi2s->State = HAL_I2S_STATE_READY;
 8001e88:	2301      	movs	r3, #1
 8001e8a:	f880 3041 	strb.w	r3, [r0, #65]	; 0x41
      HAL_I2SEx_TxRxCpltCallback(hi2s);
 8001e8e:	f7ff ffe2 	bl	8001e56 <HAL_I2SEx_TxRxCpltCallback>
}
 8001e92:	e7f8      	b.n	8001e86 <I2SEx_TxISR_I2S+0x2e>

08001e94 <I2SEx_RxISR_I2SExt>:
  * @brief  I2SExt Full-Duplex IT handler receive function
  * @param  hi2s I2S handle
  * @retval None
  */
static void I2SEx_RxISR_I2SExt(I2S_HandleTypeDef *hi2s)
{
 8001e94:	b508      	push	{r3, lr}
  /* Read Data from DR register */
  (*hi2s->pRxBuffPtr++) = I2SxEXT(hi2s->Instance)->DR;
 8001e96:	6802      	ldr	r2, [r0, #0]
 8001e98:	4b15      	ldr	r3, [pc, #84]	; (8001ef0 <I2SEx_RxISR_I2SExt+0x5c>)
 8001e9a:	429a      	cmp	r2, r3
 8001e9c:	d01c      	beq.n	8001ed8 <I2SEx_RxISR_I2SExt+0x44>
 8001e9e:	f04f 2340 	mov.w	r3, #1073758208	; 0x40004000
 8001ea2:	68da      	ldr	r2, [r3, #12]
 8001ea4:	6ac3      	ldr	r3, [r0, #44]	; 0x2c
 8001ea6:	1c99      	adds	r1, r3, #2
 8001ea8:	62c1      	str	r1, [r0, #44]	; 0x2c
 8001eaa:	801a      	strh	r2, [r3, #0]
  hi2s->RxXferCount--;
 8001eac:	8e43      	ldrh	r3, [r0, #50]	; 0x32
 8001eae:	b29b      	uxth	r3, r3
 8001eb0:	3b01      	subs	r3, #1
 8001eb2:	b29b      	uxth	r3, r3
 8001eb4:	8643      	strh	r3, [r0, #50]	; 0x32

  if (hi2s->RxXferCount == 0U)
 8001eb6:	8e43      	ldrh	r3, [r0, #50]	; 0x32
 8001eb8:	b29b      	uxth	r3, r3
 8001eba:	b963      	cbnz	r3, 8001ed6 <I2SEx_RxISR_I2SExt+0x42>
  {
    /* Disable I2Sext RXNE and ERR interrupt */
    __HAL_I2SEXT_DISABLE_IT(hi2s, (I2S_IT_RXNE | I2S_IT_ERR));
 8001ebc:	6802      	ldr	r2, [r0, #0]
 8001ebe:	4b0c      	ldr	r3, [pc, #48]	; (8001ef0 <I2SEx_RxISR_I2SExt+0x5c>)
 8001ec0:	429a      	cmp	r2, r3
 8001ec2:	d00c      	beq.n	8001ede <I2SEx_RxISR_I2SExt+0x4a>
 8001ec4:	f04f 2240 	mov.w	r2, #1073758208	; 0x40004000
 8001ec8:	6853      	ldr	r3, [r2, #4]
 8001eca:	f023 0360 	bic.w	r3, r3, #96	; 0x60
 8001ece:	6053      	str	r3, [r2, #4]

    if (hi2s->TxXferCount == 0U)
 8001ed0:	8d43      	ldrh	r3, [r0, #42]	; 0x2a
 8001ed2:	b29b      	uxth	r3, r3
 8001ed4:	b12b      	cbz	r3, 8001ee2 <I2SEx_RxISR_I2SExt+0x4e>
#else
      HAL_I2SEx_TxRxCpltCallback(hi2s);
#endif /* USE_HAL_I2S_REGISTER_CALLBACKS */
    }
  }
}
 8001ed6:	bd08      	pop	{r3, pc}
  (*hi2s->pRxBuffPtr++) = I2SxEXT(hi2s->Instance)->DR;
 8001ed8:	f5a3 6380 	sub.w	r3, r3, #1024	; 0x400
 8001edc:	e7e1      	b.n	8001ea2 <I2SEx_RxISR_I2SExt+0xe>
    __HAL_I2SEXT_DISABLE_IT(hi2s, (I2S_IT_RXNE | I2S_IT_ERR));
 8001ede:	4a05      	ldr	r2, [pc, #20]	; (8001ef4 <I2SEx_RxISR_I2SExt+0x60>)
 8001ee0:	e7f2      	b.n	8001ec8 <I2SEx_RxISR_I2SExt+0x34>
      hi2s->State = HAL_I2S_STATE_READY;
 8001ee2:	2301      	movs	r3, #1
 8001ee4:	f880 3041 	strb.w	r3, [r0, #65]	; 0x41
      HAL_I2SEx_TxRxCpltCallback(hi2s);
 8001ee8:	f7ff ffb5 	bl	8001e56 <HAL_I2SEx_TxRxCpltCallback>
}
 8001eec:	e7f3      	b.n	8001ed6 <I2SEx_RxISR_I2SExt+0x42>
 8001eee:	bf00      	nop
 8001ef0:	40003800 	.word	0x40003800
 8001ef4:	40003400 	.word	0x40003400

08001ef8 <I2SEx_TxISR_I2SExt>:
{
 8001ef8:	b508      	push	{r3, lr}
  I2SxEXT(hi2s->Instance)->DR = (*hi2s->pTxBuffPtr++);
 8001efa:	6a43      	ldr	r3, [r0, #36]	; 0x24
 8001efc:	1c9a      	adds	r2, r3, #2
 8001efe:	6242      	str	r2, [r0, #36]	; 0x24
 8001f00:	881a      	ldrh	r2, [r3, #0]
 8001f02:	6801      	ldr	r1, [r0, #0]
 8001f04:	4b13      	ldr	r3, [pc, #76]	; (8001f54 <I2SEx_TxISR_I2SExt+0x5c>)
 8001f06:	4299      	cmp	r1, r3
 8001f08:	d018      	beq.n	8001f3c <I2SEx_TxISR_I2SExt+0x44>
 8001f0a:	f04f 2340 	mov.w	r3, #1073758208	; 0x40004000
 8001f0e:	60da      	str	r2, [r3, #12]
  hi2s->TxXferCount--;
 8001f10:	8d43      	ldrh	r3, [r0, #42]	; 0x2a
 8001f12:	b29b      	uxth	r3, r3
 8001f14:	3b01      	subs	r3, #1
 8001f16:	b29b      	uxth	r3, r3
 8001f18:	8543      	strh	r3, [r0, #42]	; 0x2a
  if (hi2s->TxXferCount == 0U)
 8001f1a:	8d43      	ldrh	r3, [r0, #42]	; 0x2a
 8001f1c:	b29b      	uxth	r3, r3
 8001f1e:	b963      	cbnz	r3, 8001f3a <I2SEx_TxISR_I2SExt+0x42>
    __HAL_I2SEXT_DISABLE_IT(hi2s, (I2S_IT_TXE | I2S_IT_ERR));
 8001f20:	6802      	ldr	r2, [r0, #0]
 8001f22:	4b0c      	ldr	r3, [pc, #48]	; (8001f54 <I2SEx_TxISR_I2SExt+0x5c>)
 8001f24:	429a      	cmp	r2, r3
 8001f26:	d00c      	beq.n	8001f42 <I2SEx_TxISR_I2SExt+0x4a>
 8001f28:	f04f 2240 	mov.w	r2, #1073758208	; 0x40004000
 8001f2c:	6853      	ldr	r3, [r2, #4]
 8001f2e:	f023 03a0 	bic.w	r3, r3, #160	; 0xa0
 8001f32:	6053      	str	r3, [r2, #4]
    if (hi2s->RxXferCount == 0U)
 8001f34:	8e43      	ldrh	r3, [r0, #50]	; 0x32
 8001f36:	b29b      	uxth	r3, r3
 8001f38:	b12b      	cbz	r3, 8001f46 <I2SEx_TxISR_I2SExt+0x4e>
}
 8001f3a:	bd08      	pop	{r3, pc}
  I2SxEXT(hi2s->Instance)->DR = (*hi2s->pTxBuffPtr++);
 8001f3c:	f5a3 6380 	sub.w	r3, r3, #1024	; 0x400
 8001f40:	e7e5      	b.n	8001f0e <I2SEx_TxISR_I2SExt+0x16>
    __HAL_I2SEXT_DISABLE_IT(hi2s, (I2S_IT_TXE | I2S_IT_ERR));
 8001f42:	4a05      	ldr	r2, [pc, #20]	; (8001f58 <I2SEx_TxISR_I2SExt+0x60>)
 8001f44:	e7f2      	b.n	8001f2c <I2SEx_TxISR_I2SExt+0x34>
      hi2s->State = HAL_I2S_STATE_READY;
 8001f46:	2301      	movs	r3, #1
 8001f48:	f880 3041 	strb.w	r3, [r0, #65]	; 0x41
      HAL_I2SEx_TxRxCpltCallback(hi2s);
 8001f4c:	f7ff ff83 	bl	8001e56 <HAL_I2SEx_TxRxCpltCallback>
}
 8001f50:	e7f3      	b.n	8001f3a <I2SEx_TxISR_I2SExt+0x42>
 8001f52:	bf00      	nop
 8001f54:	40003800 	.word	0x40003800
 8001f58:	40003400 	.word	0x40003400

08001f5c <I2SEx_RxISR_I2S>:
{
 8001f5c:	b508      	push	{r3, lr}
  (*hi2s->pRxBuffPtr++) = hi2s->Instance->DR;
 8001f5e:	6803      	ldr	r3, [r0, #0]
 8001f60:	68da      	ldr	r2, [r3, #12]
 8001f62:	6ac3      	ldr	r3, [r0, #44]	; 0x2c
 8001f64:	1c99      	adds	r1, r3, #2
 8001f66:	62c1      	str	r1, [r0, #44]	; 0x2c
 8001f68:	801a      	strh	r2, [r3, #0]
  hi2s->RxXferCount--;
 8001f6a:	8e43      	ldrh	r3, [r0, #50]	; 0x32
 8001f6c:	b29b      	uxth	r3, r3
 8001f6e:	3b01      	subs	r3, #1
 8001f70:	b29b      	uxth	r3, r3
 8001f72:	8643      	strh	r3, [r0, #50]	; 0x32
  if (hi2s->RxXferCount == 0U)
 8001f74:	8e43      	ldrh	r3, [r0, #50]	; 0x32
 8001f76:	b29b      	uxth	r3, r3
 8001f78:	b93b      	cbnz	r3, 8001f8a <I2SEx_RxISR_I2S+0x2e>
    __HAL_I2S_DISABLE_IT(hi2s, (I2S_IT_RXNE | I2S_IT_ERR));
 8001f7a:	6802      	ldr	r2, [r0, #0]
 8001f7c:	6853      	ldr	r3, [r2, #4]
 8001f7e:	f023 0360 	bic.w	r3, r3, #96	; 0x60
 8001f82:	6053      	str	r3, [r2, #4]
    if (hi2s->TxXferCount == 0U)
 8001f84:	8d43      	ldrh	r3, [r0, #42]	; 0x2a
 8001f86:	b29b      	uxth	r3, r3
 8001f88:	b103      	cbz	r3, 8001f8c <I2SEx_RxISR_I2S+0x30>
}
 8001f8a:	bd08      	pop	{r3, pc}
      hi2s->State = HAL_I2S_STATE_READY;
 8001f8c:	2301      	movs	r3, #1
 8001f8e:	f880 3041 	strb.w	r3, [r0, #65]	; 0x41
      HAL_I2SEx_TxRxCpltCallback(hi2s);
 8001f92:	f7ff ff60 	bl	8001e56 <HAL_I2SEx_TxRxCpltCallback>
}
 8001f96:	e7f8      	b.n	8001f8a <I2SEx_RxISR_I2S+0x2e>

08001f98 <HAL_I2SEx_FullDuplex_IRQHandler>:
{
 8001f98:	b510      	push	{r4, lr}
 8001f9a:	b086      	sub	sp, #24
 8001f9c:	4604      	mov	r4, r0
  __IO uint32_t i2ssr     = hi2s->Instance->SR;
 8001f9e:	6803      	ldr	r3, [r0, #0]
 8001fa0:	689a      	ldr	r2, [r3, #8]
 8001fa2:	9205      	str	r2, [sp, #20]
  __IO uint32_t i2sextsr  = I2SxEXT(hi2s->Instance)->SR;
 8001fa4:	4a70      	ldr	r2, [pc, #448]	; (8002168 <HAL_I2SEx_FullDuplex_IRQHandler+0x1d0>)
 8001fa6:	4293      	cmp	r3, r2
 8001fa8:	d06f      	beq.n	800208a <HAL_I2SEx_FullDuplex_IRQHandler+0xf2>
 8001faa:	f04f 2240 	mov.w	r2, #1073758208	; 0x40004000
 8001fae:	6891      	ldr	r1, [r2, #8]
 8001fb0:	9104      	str	r1, [sp, #16]
  __IO uint32_t i2scr2    = hi2s->Instance->CR2;
 8001fb2:	685b      	ldr	r3, [r3, #4]
 8001fb4:	9303      	str	r3, [sp, #12]
  __IO uint32_t i2sextcr2 = I2SxEXT(hi2s->Instance)->CR2;
 8001fb6:	6853      	ldr	r3, [r2, #4]
 8001fb8:	9302      	str	r3, [sp, #8]
  if ((hi2s->Init.Mode == I2S_MODE_MASTER_TX) || (hi2s->Init.Mode == I2S_MODE_SLAVE_TX))
 8001fba:	6863      	ldr	r3, [r4, #4]
 8001fbc:	f5b3 7f00 	cmp.w	r3, #512	; 0x200
 8001fc0:	d001      	beq.n	8001fc6 <HAL_I2SEx_FullDuplex_IRQHandler+0x2e>
 8001fc2:	2b00      	cmp	r3, #0
 8001fc4:	d170      	bne.n	80020a8 <HAL_I2SEx_FullDuplex_IRQHandler+0x110>
    if (((i2ssr & I2S_FLAG_TXE) == I2S_FLAG_TXE) && ((i2scr2 & I2S_IT_TXE) != RESET))
 8001fc6:	9b05      	ldr	r3, [sp, #20]
 8001fc8:	f013 0f02 	tst.w	r3, #2
 8001fcc:	d003      	beq.n	8001fd6 <HAL_I2SEx_FullDuplex_IRQHandler+0x3e>
 8001fce:	9b03      	ldr	r3, [sp, #12]
 8001fd0:	f013 0f80 	tst.w	r3, #128	; 0x80
 8001fd4:	d15c      	bne.n	8002090 <HAL_I2SEx_FullDuplex_IRQHandler+0xf8>
    if (((i2sextsr & I2S_FLAG_RXNE) == I2S_FLAG_RXNE) && ((i2sextcr2 & I2S_IT_RXNE) != RESET))
 8001fd6:	9b04      	ldr	r3, [sp, #16]
 8001fd8:	f013 0f01 	tst.w	r3, #1
 8001fdc:	d003      	beq.n	8001fe6 <HAL_I2SEx_FullDuplex_IRQHandler+0x4e>
 8001fde:	9b02      	ldr	r3, [sp, #8]
 8001fe0:	f013 0f40 	tst.w	r3, #64	; 0x40
 8001fe4:	d158      	bne.n	8002098 <HAL_I2SEx_FullDuplex_IRQHandler+0x100>
    if (((i2sextsr & I2S_FLAG_OVR) == I2S_FLAG_OVR) && ((i2sextcr2 & I2S_IT_ERR) != RESET))
 8001fe6:	9b04      	ldr	r3, [sp, #16]
 8001fe8:	f013 0f40 	tst.w	r3, #64	; 0x40
 8001fec:	d024      	beq.n	8002038 <HAL_I2SEx_FullDuplex_IRQHandler+0xa0>
 8001fee:	9b02      	ldr	r3, [sp, #8]
 8001ff0:	f013 0f20 	tst.w	r3, #32
 8001ff4:	d020      	beq.n	8002038 <HAL_I2SEx_FullDuplex_IRQHandler+0xa0>
      __HAL_I2SEXT_DISABLE_IT(hi2s, (I2S_IT_RXNE | I2S_IT_ERR));
 8001ff6:	6822      	ldr	r2, [r4, #0]
 8001ff8:	4b5b      	ldr	r3, [pc, #364]	; (8002168 <HAL_I2SEx_FullDuplex_IRQHandler+0x1d0>)
 8001ffa:	429a      	cmp	r2, r3
 8001ffc:	d050      	beq.n	80020a0 <HAL_I2SEx_FullDuplex_IRQHandler+0x108>
 8001ffe:	f04f 2240 	mov.w	r2, #1073758208	; 0x40004000
 8002002:	6853      	ldr	r3, [r2, #4]
 8002004:	f023 0360 	bic.w	r3, r3, #96	; 0x60
 8002008:	6053      	str	r3, [r2, #4]
      __HAL_I2S_DISABLE_IT(hi2s, (I2S_IT_TXE | I2S_IT_ERR));
 800200a:	6822      	ldr	r2, [r4, #0]
 800200c:	6853      	ldr	r3, [r2, #4]
 800200e:	f023 03a0 	bic.w	r3, r3, #160	; 0xa0
 8002012:	6053      	str	r3, [r2, #4]
      __HAL_I2S_CLEAR_OVRFLAG(hi2s);
 8002014:	2300      	movs	r3, #0
 8002016:	9300      	str	r3, [sp, #0]
 8002018:	6823      	ldr	r3, [r4, #0]
 800201a:	68da      	ldr	r2, [r3, #12]
 800201c:	9200      	str	r2, [sp, #0]
 800201e:	689b      	ldr	r3, [r3, #8]
 8002020:	9300      	str	r3, [sp, #0]
 8002022:	9b00      	ldr	r3, [sp, #0]
      hi2s->State = HAL_I2S_STATE_READY;
 8002024:	2301      	movs	r3, #1
 8002026:	f884 3041 	strb.w	r3, [r4, #65]	; 0x41
      SET_BIT(hi2s->ErrorCode, HAL_I2S_ERROR_OVR);
 800202a:	6c63      	ldr	r3, [r4, #68]	; 0x44
 800202c:	f043 0302 	orr.w	r3, r3, #2
 8002030:	6463      	str	r3, [r4, #68]	; 0x44
      HAL_I2S_ErrorCallback(hi2s);
 8002032:	4620      	mov	r0, r4
 8002034:	f7ff fe92 	bl	8001d5c <HAL_I2S_ErrorCallback>
    if (((i2ssr & I2S_FLAG_UDR) == I2S_FLAG_UDR) && ((i2scr2 & I2S_IT_ERR) != RESET))
 8002038:	9b05      	ldr	r3, [sp, #20]
 800203a:	f013 0f08 	tst.w	r3, #8
 800203e:	d022      	beq.n	8002086 <HAL_I2SEx_FullDuplex_IRQHandler+0xee>
 8002040:	9b03      	ldr	r3, [sp, #12]
 8002042:	f013 0f20 	tst.w	r3, #32
 8002046:	d01e      	beq.n	8002086 <HAL_I2SEx_FullDuplex_IRQHandler+0xee>
      __HAL_I2S_DISABLE_IT(hi2s, (I2S_IT_TXE | I2S_IT_ERR));
 8002048:	6822      	ldr	r2, [r4, #0]
 800204a:	6853      	ldr	r3, [r2, #4]
 800204c:	f023 03a0 	bic.w	r3, r3, #160	; 0xa0
 8002050:	6053      	str	r3, [r2, #4]
      __HAL_I2SEXT_DISABLE_IT(hi2s, (I2S_IT_RXNE | I2S_IT_ERR));
 8002052:	6822      	ldr	r2, [r4, #0]
 8002054:	4b44      	ldr	r3, [pc, #272]	; (8002168 <HAL_I2SEx_FullDuplex_IRQHandler+0x1d0>)
 8002056:	429a      	cmp	r2, r3
 8002058:	d024      	beq.n	80020a4 <HAL_I2SEx_FullDuplex_IRQHandler+0x10c>
 800205a:	f04f 2240 	mov.w	r2, #1073758208	; 0x40004000
 800205e:	6853      	ldr	r3, [r2, #4]
 8002060:	f023 0360 	bic.w	r3, r3, #96	; 0x60
 8002064:	6053      	str	r3, [r2, #4]
      __HAL_I2S_CLEAR_UDRFLAG(hi2s);
 8002066:	2300      	movs	r3, #0
 8002068:	9301      	str	r3, [sp, #4]
 800206a:	6823      	ldr	r3, [r4, #0]
 800206c:	689b      	ldr	r3, [r3, #8]
 800206e:	9301      	str	r3, [sp, #4]
 8002070:	9b01      	ldr	r3, [sp, #4]
      hi2s->State = HAL_I2S_STATE_READY;
 8002072:	2301      	movs	r3, #1
 8002074:	f884 3041 	strb.w	r3, [r4, #65]	; 0x41
      SET_BIT(hi2s->ErrorCode, HAL_I2S_ERROR_UDR);
 8002078:	6c63      	ldr	r3, [r4, #68]	; 0x44
 800207a:	f043 0304 	orr.w	r3, r3, #4
 800207e:	6463      	str	r3, [r4, #68]	; 0x44
      HAL_I2S_ErrorCallback(hi2s);
 8002080:	4620      	mov	r0, r4
 8002082:	f7ff fe6b 	bl	8001d5c <HAL_I2S_ErrorCallback>
}
 8002086:	b006      	add	sp, #24
 8002088:	bd10      	pop	{r4, pc}
  __IO uint32_t i2sextsr  = I2SxEXT(hi2s->Instance)->SR;
 800208a:	f5a2 6280 	sub.w	r2, r2, #1024	; 0x400
 800208e:	e78e      	b.n	8001fae <HAL_I2SEx_FullDuplex_IRQHandler+0x16>
      I2SEx_TxISR_I2S(hi2s);
 8002090:	4620      	mov	r0, r4
 8002092:	f7ff fee1 	bl	8001e58 <I2SEx_TxISR_I2S>
 8002096:	e79e      	b.n	8001fd6 <HAL_I2SEx_FullDuplex_IRQHandler+0x3e>
      I2SEx_RxISR_I2SExt(hi2s);
 8002098:	4620      	mov	r0, r4
 800209a:	f7ff fefb 	bl	8001e94 <I2SEx_RxISR_I2SExt>
 800209e:	e7a2      	b.n	8001fe6 <HAL_I2SEx_FullDuplex_IRQHandler+0x4e>
      __HAL_I2SEXT_DISABLE_IT(hi2s, (I2S_IT_RXNE | I2S_IT_ERR));
 80020a0:	4a32      	ldr	r2, [pc, #200]	; (800216c <HAL_I2SEx_FullDuplex_IRQHandler+0x1d4>)
 80020a2:	e7ae      	b.n	8002002 <HAL_I2SEx_FullDuplex_IRQHandler+0x6a>
      __HAL_I2SEXT_DISABLE_IT(hi2s, (I2S_IT_RXNE | I2S_IT_ERR));
 80020a4:	4a31      	ldr	r2, [pc, #196]	; (800216c <HAL_I2SEx_FullDuplex_IRQHandler+0x1d4>)
 80020a6:	e7da      	b.n	800205e <HAL_I2SEx_FullDuplex_IRQHandler+0xc6>
    if (((i2sextsr & I2S_FLAG_TXE) == I2S_FLAG_TXE) && ((i2sextcr2 & I2S_IT_TXE) != RESET))
 80020a8:	9b04      	ldr	r3, [sp, #16]
 80020aa:	f013 0f02 	tst.w	r3, #2
 80020ae:	d003      	beq.n	80020b8 <HAL_I2SEx_FullDuplex_IRQHandler+0x120>
 80020b0:	9b02      	ldr	r3, [sp, #8]
 80020b2:	f013 0f80 	tst.w	r3, #128	; 0x80
 80020b6:	d14a      	bne.n	800214e <HAL_I2SEx_FullDuplex_IRQHandler+0x1b6>
    if (((i2ssr & I2S_FLAG_RXNE) == I2S_FLAG_RXNE) && ((i2scr2 & I2S_IT_RXNE) != RESET))
 80020b8:	9b05      	ldr	r3, [sp, #20]
 80020ba:	f013 0f01 	tst.w	r3, #1
 80020be:	d003      	beq.n	80020c8 <HAL_I2SEx_FullDuplex_IRQHandler+0x130>
 80020c0:	9b03      	ldr	r3, [sp, #12]
 80020c2:	f013 0f40 	tst.w	r3, #64	; 0x40
 80020c6:	d146      	bne.n	8002156 <HAL_I2SEx_FullDuplex_IRQHandler+0x1be>
    if (((i2ssr & I2S_FLAG_OVR) == I2S_FLAG_OVR) && ((i2scr2 & I2S_IT_ERR) != RESET))
 80020c8:	9b05      	ldr	r3, [sp, #20]
 80020ca:	f013 0f40 	tst.w	r3, #64	; 0x40
 80020ce:	d01c      	beq.n	800210a <HAL_I2SEx_FullDuplex_IRQHandler+0x172>
 80020d0:	9b03      	ldr	r3, [sp, #12]
 80020d2:	f013 0f20 	tst.w	r3, #32
 80020d6:	d018      	beq.n	800210a <HAL_I2SEx_FullDuplex_IRQHandler+0x172>
      __HAL_I2S_DISABLE_IT(hi2s, (I2S_IT_RXNE | I2S_IT_ERR));
 80020d8:	6822      	ldr	r2, [r4, #0]
 80020da:	6853      	ldr	r3, [r2, #4]
 80020dc:	f023 0360 	bic.w	r3, r3, #96	; 0x60
 80020e0:	6053      	str	r3, [r2, #4]
      __HAL_I2SEXT_DISABLE_IT(hi2s, (I2S_IT_TXE | I2S_IT_ERR));
 80020e2:	6822      	ldr	r2, [r4, #0]
 80020e4:	4b20      	ldr	r3, [pc, #128]	; (8002168 <HAL_I2SEx_FullDuplex_IRQHandler+0x1d0>)
 80020e6:	429a      	cmp	r2, r3
 80020e8:	d039      	beq.n	800215e <HAL_I2SEx_FullDuplex_IRQHandler+0x1c6>
 80020ea:	f04f 2240 	mov.w	r2, #1073758208	; 0x40004000
 80020ee:	6853      	ldr	r3, [r2, #4]
 80020f0:	f023 03a0 	bic.w	r3, r3, #160	; 0xa0
 80020f4:	6053      	str	r3, [r2, #4]
      hi2s->State = HAL_I2S_STATE_READY;
 80020f6:	2301      	movs	r3, #1
 80020f8:	f884 3041 	strb.w	r3, [r4, #65]	; 0x41
      SET_BIT(hi2s->ErrorCode, HAL_I2S_ERROR_OVR);
 80020fc:	6c63      	ldr	r3, [r4, #68]	; 0x44
 80020fe:	f043 0302 	orr.w	r3, r3, #2
 8002102:	6463      	str	r3, [r4, #68]	; 0x44
      HAL_I2S_ErrorCallback(hi2s);
 8002104:	4620      	mov	r0, r4
 8002106:	f7ff fe29 	bl	8001d5c <HAL_I2S_ErrorCallback>
    if (((i2sextsr & I2S_FLAG_UDR) == I2S_FLAG_UDR) && ((i2sextcr2 & I2S_IT_ERR) != RESET))
 800210a:	9b04      	ldr	r3, [sp, #16]
 800210c:	f013 0f08 	tst.w	r3, #8
 8002110:	d0b9      	beq.n	8002086 <HAL_I2SEx_FullDuplex_IRQHandler+0xee>
 8002112:	9b02      	ldr	r3, [sp, #8]
 8002114:	f013 0f20 	tst.w	r3, #32
 8002118:	d0b5      	beq.n	8002086 <HAL_I2SEx_FullDuplex_IRQHandler+0xee>
      __HAL_I2SEXT_DISABLE_IT(hi2s, (I2S_IT_TXE | I2S_IT_ERR));
 800211a:	6822      	ldr	r2, [r4, #0]
 800211c:	4b12      	ldr	r3, [pc, #72]	; (8002168 <HAL_I2SEx_FullDuplex_IRQHandler+0x1d0>)
 800211e:	429a      	cmp	r2, r3
 8002120:	d01f      	beq.n	8002162 <HAL_I2SEx_FullDuplex_IRQHandler+0x1ca>
 8002122:	f04f 2240 	mov.w	r2, #1073758208	; 0x40004000
 8002126:	6853      	ldr	r3, [r2, #4]
 8002128:	f023 03a0 	bic.w	r3, r3, #160	; 0xa0
 800212c:	6053      	str	r3, [r2, #4]
      __HAL_I2S_DISABLE_IT(hi2s, (I2S_IT_RXNE | I2S_IT_ERR));
 800212e:	6822      	ldr	r2, [r4, #0]
 8002130:	6853      	ldr	r3, [r2, #4]
 8002132:	f023 0360 	bic.w	r3, r3, #96	; 0x60
 8002136:	6053      	str	r3, [r2, #4]
      hi2s->State = HAL_I2S_STATE_READY;
 8002138:	2301      	movs	r3, #1
 800213a:	f884 3041 	strb.w	r3, [r4, #65]	; 0x41
      SET_BIT(hi2s->ErrorCode, HAL_I2S_ERROR_UDR);
 800213e:	6c63      	ldr	r3, [r4, #68]	; 0x44
 8002140:	f043 0304 	orr.w	r3, r3, #4
 8002144:	6463      	str	r3, [r4, #68]	; 0x44
      HAL_I2S_ErrorCallback(hi2s);
 8002146:	4620      	mov	r0, r4
 8002148:	f7ff fe08 	bl	8001d5c <HAL_I2S_ErrorCallback>
}
 800214c:	e79b      	b.n	8002086 <HAL_I2SEx_FullDuplex_IRQHandler+0xee>
      I2SEx_TxISR_I2SExt(hi2s);
 800214e:	4620      	mov	r0, r4
 8002150:	f7ff fed2 	bl	8001ef8 <I2SEx_TxISR_I2SExt>
 8002154:	e7b0      	b.n	80020b8 <HAL_I2SEx_FullDuplex_IRQHandler+0x120>
      I2SEx_RxISR_I2S(hi2s);
 8002156:	4620      	mov	r0, r4
 8002158:	f7ff ff00 	bl	8001f5c <I2SEx_RxISR_I2S>
 800215c:	e7b4      	b.n	80020c8 <HAL_I2SEx_FullDuplex_IRQHandler+0x130>
      __HAL_I2SEXT_DISABLE_IT(hi2s, (I2S_IT_TXE | I2S_IT_ERR));
 800215e:	4a03      	ldr	r2, [pc, #12]	; (800216c <HAL_I2SEx_FullDuplex_IRQHandler+0x1d4>)
 8002160:	e7c5      	b.n	80020ee <HAL_I2SEx_FullDuplex_IRQHandler+0x156>
      __HAL_I2SEXT_DISABLE_IT(hi2s, (I2S_IT_TXE | I2S_IT_ERR));
 8002162:	4a02      	ldr	r2, [pc, #8]	; (800216c <HAL_I2SEx_FullDuplex_IRQHandler+0x1d4>)
 8002164:	e7df      	b.n	8002126 <HAL_I2SEx_FullDuplex_IRQHandler+0x18e>
 8002166:	bf00      	nop
 8002168:	40003800 	.word	0x40003800
 800216c:	40003400 	.word	0x40003400

08002170 <HAL_RCC_OscConfig>:
__weak HAL_StatusTypeDef HAL_RCC_OscConfig(RCC_OscInitTypeDef  *RCC_OscInitStruct)
{
  uint32_t tickstart, pll_config;

  /* Check Null pointer */
  if(RCC_OscInitStruct == NULL)
 8002170:	2800      	cmp	r0, #0
 8002172:	f000 81d9 	beq.w	8002528 <HAL_RCC_OscConfig+0x3b8>
{
 8002176:	b570      	push	{r4, r5, r6, lr}
 8002178:	b082      	sub	sp, #8
 800217a:	4604      	mov	r4, r0
  }

  /* Check the parameters */
  assert_param(IS_RCC_OSCILLATORTYPE(RCC_OscInitStruct->OscillatorType));
  /*------------------------------- HSE Configuration ------------------------*/
  if(((RCC_OscInitStruct->OscillatorType) & RCC_OSCILLATORTYPE_HSE) == RCC_OSCILLATORTYPE_HSE)
 800217c:	6803      	ldr	r3, [r0, #0]
 800217e:	f013 0f01 	tst.w	r3, #1
 8002182:	d03b      	beq.n	80021fc <HAL_RCC_OscConfig+0x8c>
  {
    /* Check the parameters */
    assert_param(IS_RCC_HSE(RCC_OscInitStruct->HSEState));
    /* When the HSE is used as system clock or clock source for PLL in these cases HSE will not disabled */
    if((__HAL_RCC_GET_SYSCLK_SOURCE() == RCC_CFGR_SWS_HSE) ||\
 8002184:	4ba6      	ldr	r3, [pc, #664]	; (8002420 <HAL_RCC_OscConfig+0x2b0>)
 8002186:	689b      	ldr	r3, [r3, #8]
 8002188:	f003 030c 	and.w	r3, r3, #12
 800218c:	2b04      	cmp	r3, #4
 800218e:	d02c      	beq.n	80021ea <HAL_RCC_OscConfig+0x7a>
      ((__HAL_RCC_GET_SYSCLK_SOURCE() == RCC_CFGR_SWS_PLL) && ((RCC->PLLCFGR & RCC_PLLCFGR_PLLSRC) == RCC_PLLCFGR_PLLSRC_HSE)))
 8002190:	4ba3      	ldr	r3, [pc, #652]	; (8002420 <HAL_RCC_OscConfig+0x2b0>)
 8002192:	689b      	ldr	r3, [r3, #8]
 8002194:	f003 030c 	and.w	r3, r3, #12
    if((__HAL_RCC_GET_SYSCLK_SOURCE() == RCC_CFGR_SWS_HSE) ||\
 8002198:	2b08      	cmp	r3, #8
 800219a:	d021      	beq.n	80021e0 <HAL_RCC_OscConfig+0x70>
      }
    }
    else
    {
      /* Set the new HSE configuration ---------------------------------------*/
      __HAL_RCC_HSE_CONFIG(RCC_OscInitStruct->HSEState);
 800219c:	6863      	ldr	r3, [r4, #4]
 800219e:	f5b3 3f80 	cmp.w	r3, #65536	; 0x10000
 80021a2:	d04f      	beq.n	8002244 <HAL_RCC_OscConfig+0xd4>
 80021a4:	f5b3 2fa0 	cmp.w	r3, #327680	; 0x50000
 80021a8:	d052      	beq.n	8002250 <HAL_RCC_OscConfig+0xe0>
 80021aa:	4b9d      	ldr	r3, [pc, #628]	; (8002420 <HAL_RCC_OscConfig+0x2b0>)
 80021ac:	681a      	ldr	r2, [r3, #0]
 80021ae:	f422 3280 	bic.w	r2, r2, #65536	; 0x10000
 80021b2:	601a      	str	r2, [r3, #0]
 80021b4:	681a      	ldr	r2, [r3, #0]
 80021b6:	f422 2280 	bic.w	r2, r2, #262144	; 0x40000
 80021ba:	601a      	str	r2, [r3, #0]

      /* Check the HSE State */
      if((RCC_OscInitStruct->HSEState) != RCC_HSE_OFF)
 80021bc:	6863      	ldr	r3, [r4, #4]
 80021be:	2b00      	cmp	r3, #0
 80021c0:	d050      	beq.n	8002264 <HAL_RCC_OscConfig+0xf4>
      {
        /* Get Start Tick */
        tickstart = HAL_GetTick();
 80021c2:	f7ff f8df 	bl	8001384 <HAL_GetTick>
 80021c6:	4605      	mov	r5, r0

        /* Wait till HSE is ready */
        while(__HAL_RCC_GET_FLAG(RCC_FLAG_HSERDY) == RESET)
 80021c8:	4b95      	ldr	r3, [pc, #596]	; (8002420 <HAL_RCC_OscConfig+0x2b0>)
 80021ca:	681b      	ldr	r3, [r3, #0]
 80021cc:	f413 3f00 	tst.w	r3, #131072	; 0x20000
 80021d0:	d114      	bne.n	80021fc <HAL_RCC_OscConfig+0x8c>
        {
          if((HAL_GetTick() - tickstart ) > HSE_TIMEOUT_VALUE)
 80021d2:	f7ff f8d7 	bl	8001384 <HAL_GetTick>
 80021d6:	1b40      	subs	r0, r0, r5
 80021d8:	2864      	cmp	r0, #100	; 0x64
 80021da:	d9f5      	bls.n	80021c8 <HAL_RCC_OscConfig+0x58>
          {
            return HAL_TIMEOUT;
 80021dc:	2003      	movs	r0, #3
 80021de:	e1aa      	b.n	8002536 <HAL_RCC_OscConfig+0x3c6>
      ((__HAL_RCC_GET_SYSCLK_SOURCE() == RCC_CFGR_SWS_PLL) && ((RCC->PLLCFGR & RCC_PLLCFGR_PLLSRC) == RCC_PLLCFGR_PLLSRC_HSE)))
 80021e0:	4b8f      	ldr	r3, [pc, #572]	; (8002420 <HAL_RCC_OscConfig+0x2b0>)
 80021e2:	685b      	ldr	r3, [r3, #4]
 80021e4:	f413 0f80 	tst.w	r3, #4194304	; 0x400000
 80021e8:	d0d8      	beq.n	800219c <HAL_RCC_OscConfig+0x2c>
      if((__HAL_RCC_GET_FLAG(RCC_FLAG_HSERDY) != RESET) && (RCC_OscInitStruct->HSEState == RCC_HSE_OFF))
 80021ea:	4b8d      	ldr	r3, [pc, #564]	; (8002420 <HAL_RCC_OscConfig+0x2b0>)
 80021ec:	681b      	ldr	r3, [r3, #0]
 80021ee:	f413 3f00 	tst.w	r3, #131072	; 0x20000
 80021f2:	d003      	beq.n	80021fc <HAL_RCC_OscConfig+0x8c>
 80021f4:	6863      	ldr	r3, [r4, #4]
 80021f6:	2b00      	cmp	r3, #0
 80021f8:	f000 8198 	beq.w	800252c <HAL_RCC_OscConfig+0x3bc>
        }
      }
    }
  }
  /*----------------------------- HSI Configuration --------------------------*/
  if(((RCC_OscInitStruct->OscillatorType) & RCC_OSCILLATORTYPE_HSI) == RCC_OSCILLATORTYPE_HSI)
 80021fc:	6823      	ldr	r3, [r4, #0]
 80021fe:	f013 0f02 	tst.w	r3, #2
 8002202:	d054      	beq.n	80022ae <HAL_RCC_OscConfig+0x13e>
    /* Check the parameters */
    assert_param(IS_RCC_HSI(RCC_OscInitStruct->HSIState));
    assert_param(IS_RCC_CALIBRATION_VALUE(RCC_OscInitStruct->HSICalibrationValue));

    /* Check if HSI is used as system clock or as PLL source when PLL is selected as system clock */
    if((__HAL_RCC_GET_SYSCLK_SOURCE() == RCC_CFGR_SWS_HSI) ||\
 8002204:	4b86      	ldr	r3, [pc, #536]	; (8002420 <HAL_RCC_OscConfig+0x2b0>)
 8002206:	689b      	ldr	r3, [r3, #8]
 8002208:	f013 0f0c 	tst.w	r3, #12
 800220c:	d03e      	beq.n	800228c <HAL_RCC_OscConfig+0x11c>
      ((__HAL_RCC_GET_SYSCLK_SOURCE() == RCC_CFGR_SWS_PLL) && ((RCC->PLLCFGR & RCC_PLLCFGR_PLLSRC) == RCC_PLLCFGR_PLLSRC_HSI)))
 800220e:	4b84      	ldr	r3, [pc, #528]	; (8002420 <HAL_RCC_OscConfig+0x2b0>)
 8002210:	689b      	ldr	r3, [r3, #8]
 8002212:	f003 030c 	and.w	r3, r3, #12
    if((__HAL_RCC_GET_SYSCLK_SOURCE() == RCC_CFGR_SWS_HSI) ||\
 8002216:	2b08      	cmp	r3, #8
 8002218:	d033      	beq.n	8002282 <HAL_RCC_OscConfig+0x112>
      }
    }
    else
    {
      /* Check the HSI State */
      if((RCC_OscInitStruct->HSIState)!= RCC_HSI_OFF)
 800221a:	68e3      	ldr	r3, [r4, #12]
 800221c:	2b00      	cmp	r3, #0
 800221e:	d067      	beq.n	80022f0 <HAL_RCC_OscConfig+0x180>
      {
        /* Enable the Internal High Speed oscillator (HSI). */
        __HAL_RCC_HSI_ENABLE();
 8002220:	4b80      	ldr	r3, [pc, #512]	; (8002424 <HAL_RCC_OscConfig+0x2b4>)
 8002222:	2201      	movs	r2, #1
 8002224:	601a      	str	r2, [r3, #0]

        /* Get Start Tick*/
        tickstart = HAL_GetTick();
 8002226:	f7ff f8ad 	bl	8001384 <HAL_GetTick>
 800222a:	4605      	mov	r5, r0

        /* Wait till HSI is ready */
        while(__HAL_RCC_GET_FLAG(RCC_FLAG_HSIRDY) == RESET)
 800222c:	4b7c      	ldr	r3, [pc, #496]	; (8002420 <HAL_RCC_OscConfig+0x2b0>)
 800222e:	681b      	ldr	r3, [r3, #0]
 8002230:	f013 0f02 	tst.w	r3, #2
 8002234:	d153      	bne.n	80022de <HAL_RCC_OscConfig+0x16e>
        {
          if((HAL_GetTick() - tickstart ) > HSI_TIMEOUT_VALUE)
 8002236:	f7ff f8a5 	bl	8001384 <HAL_GetTick>
 800223a:	1b40      	subs	r0, r0, r5
 800223c:	2802      	cmp	r0, #2
 800223e:	d9f5      	bls.n	800222c <HAL_RCC_OscConfig+0xbc>
          {
            return HAL_TIMEOUT;
 8002240:	2003      	movs	r0, #3
 8002242:	e178      	b.n	8002536 <HAL_RCC_OscConfig+0x3c6>
      __HAL_RCC_HSE_CONFIG(RCC_OscInitStruct->HSEState);
 8002244:	4a76      	ldr	r2, [pc, #472]	; (8002420 <HAL_RCC_OscConfig+0x2b0>)
 8002246:	6813      	ldr	r3, [r2, #0]
 8002248:	f443 3380 	orr.w	r3, r3, #65536	; 0x10000
 800224c:	6013      	str	r3, [r2, #0]
 800224e:	e7b5      	b.n	80021bc <HAL_RCC_OscConfig+0x4c>
 8002250:	4b73      	ldr	r3, [pc, #460]	; (8002420 <HAL_RCC_OscConfig+0x2b0>)
 8002252:	681a      	ldr	r2, [r3, #0]
 8002254:	f442 2280 	orr.w	r2, r2, #262144	; 0x40000
 8002258:	601a      	str	r2, [r3, #0]
 800225a:	681a      	ldr	r2, [r3, #0]
 800225c:	f442 3280 	orr.w	r2, r2, #65536	; 0x10000
 8002260:	601a      	str	r2, [r3, #0]
 8002262:	e7ab      	b.n	80021bc <HAL_RCC_OscConfig+0x4c>
        tickstart = HAL_GetTick();
 8002264:	f7ff f88e 	bl	8001384 <HAL_GetTick>
 8002268:	4605      	mov	r5, r0
        while(__HAL_RCC_GET_FLAG(RCC_FLAG_HSERDY) != RESET)
 800226a:	4b6d      	ldr	r3, [pc, #436]	; (8002420 <HAL_RCC_OscConfig+0x2b0>)
 800226c:	681b      	ldr	r3, [r3, #0]
 800226e:	f413 3f00 	tst.w	r3, #131072	; 0x20000
 8002272:	d0c3      	beq.n	80021fc <HAL_RCC_OscConfig+0x8c>
          if((HAL_GetTick() - tickstart ) > HSE_TIMEOUT_VALUE)
 8002274:	f7ff f886 	bl	8001384 <HAL_GetTick>
 8002278:	1b40      	subs	r0, r0, r5
 800227a:	2864      	cmp	r0, #100	; 0x64
 800227c:	d9f5      	bls.n	800226a <HAL_RCC_OscConfig+0xfa>
            return HAL_TIMEOUT;
 800227e:	2003      	movs	r0, #3
 8002280:	e159      	b.n	8002536 <HAL_RCC_OscConfig+0x3c6>
      ((__HAL_RCC_GET_SYSCLK_SOURCE() == RCC_CFGR_SWS_PLL) && ((RCC->PLLCFGR & RCC_PLLCFGR_PLLSRC) == RCC_PLLCFGR_PLLSRC_HSI)))
 8002282:	4b67      	ldr	r3, [pc, #412]	; (8002420 <HAL_RCC_OscConfig+0x2b0>)
 8002284:	685b      	ldr	r3, [r3, #4]
 8002286:	f413 0f80 	tst.w	r3, #4194304	; 0x400000
 800228a:	d1c6      	bne.n	800221a <HAL_RCC_OscConfig+0xaa>
      if((__HAL_RCC_GET_FLAG(RCC_FLAG_HSIRDY) != RESET) && (RCC_OscInitStruct->HSIState != RCC_HSI_ON))
 800228c:	4b64      	ldr	r3, [pc, #400]	; (8002420 <HAL_RCC_OscConfig+0x2b0>)
 800228e:	681b      	ldr	r3, [r3, #0]
 8002290:	f013 0f02 	tst.w	r3, #2
 8002294:	d003      	beq.n	800229e <HAL_RCC_OscConfig+0x12e>
 8002296:	68e3      	ldr	r3, [r4, #12]
 8002298:	2b01      	cmp	r3, #1
 800229a:	f040 8149 	bne.w	8002530 <HAL_RCC_OscConfig+0x3c0>
        __HAL_RCC_HSI_CALIBRATIONVALUE_ADJUST(RCC_OscInitStruct->HSICalibrationValue);
 800229e:	4a60      	ldr	r2, [pc, #384]	; (8002420 <HAL_RCC_OscConfig+0x2b0>)
 80022a0:	6813      	ldr	r3, [r2, #0]
 80022a2:	f023 03f8 	bic.w	r3, r3, #248	; 0xf8
 80022a6:	6921      	ldr	r1, [r4, #16]
 80022a8:	ea43 03c1 	orr.w	r3, r3, r1, lsl #3
 80022ac:	6013      	str	r3, [r2, #0]
        }
      }
    }
  }
  /*------------------------------ LSI Configuration -------------------------*/
  if(((RCC_OscInitStruct->OscillatorType) & RCC_OSCILLATORTYPE_LSI) == RCC_OSCILLATORTYPE_LSI)
 80022ae:	6823      	ldr	r3, [r4, #0]
 80022b0:	f013 0f08 	tst.w	r3, #8
 80022b4:	d040      	beq.n	8002338 <HAL_RCC_OscConfig+0x1c8>
  {
    /* Check the parameters */
    assert_param(IS_RCC_LSI(RCC_OscInitStruct->LSIState));

    /* Check the LSI State */
    if((RCC_OscInitStruct->LSIState)!= RCC_LSI_OFF)
 80022b6:	6963      	ldr	r3, [r4, #20]
 80022b8:	b363      	cbz	r3, 8002314 <HAL_RCC_OscConfig+0x1a4>
    {
      /* Enable the Internal Low Speed oscillator (LSI). */
      __HAL_RCC_LSI_ENABLE();
 80022ba:	4b5b      	ldr	r3, [pc, #364]	; (8002428 <HAL_RCC_OscConfig+0x2b8>)
 80022bc:	2201      	movs	r2, #1
 80022be:	601a      	str	r2, [r3, #0]

      /* Get Start Tick*/
      tickstart = HAL_GetTick();
 80022c0:	f7ff f860 	bl	8001384 <HAL_GetTick>
 80022c4:	4605      	mov	r5, r0

      /* Wait till LSI is ready */
      while(__HAL_RCC_GET_FLAG(RCC_FLAG_LSIRDY) == RESET)
 80022c6:	4b56      	ldr	r3, [pc, #344]	; (8002420 <HAL_RCC_OscConfig+0x2b0>)
 80022c8:	6f5b      	ldr	r3, [r3, #116]	; 0x74
 80022ca:	f013 0f02 	tst.w	r3, #2
 80022ce:	d133      	bne.n	8002338 <HAL_RCC_OscConfig+0x1c8>
      {
        if((HAL_GetTick() - tickstart ) > LSI_TIMEOUT_VALUE)
 80022d0:	f7ff f858 	bl	8001384 <HAL_GetTick>
 80022d4:	1b40      	subs	r0, r0, r5
 80022d6:	2802      	cmp	r0, #2
 80022d8:	d9f5      	bls.n	80022c6 <HAL_RCC_OscConfig+0x156>
        {
          return HAL_TIMEOUT;
 80022da:	2003      	movs	r0, #3
 80022dc:	e12b      	b.n	8002536 <HAL_RCC_OscConfig+0x3c6>
        __HAL_RCC_HSI_CALIBRATIONVALUE_ADJUST(RCC_OscInitStruct->HSICalibrationValue);
 80022de:	4a50      	ldr	r2, [pc, #320]	; (8002420 <HAL_RCC_OscConfig+0x2b0>)
 80022e0:	6813      	ldr	r3, [r2, #0]
 80022e2:	f023 03f8 	bic.w	r3, r3, #248	; 0xf8
 80022e6:	6921      	ldr	r1, [r4, #16]
 80022e8:	ea43 03c1 	orr.w	r3, r3, r1, lsl #3
 80022ec:	6013      	str	r3, [r2, #0]
 80022ee:	e7de      	b.n	80022ae <HAL_RCC_OscConfig+0x13e>
        __HAL_RCC_HSI_DISABLE();
 80022f0:	4b4c      	ldr	r3, [pc, #304]	; (8002424 <HAL_RCC_OscConfig+0x2b4>)
 80022f2:	2200      	movs	r2, #0
 80022f4:	601a      	str	r2, [r3, #0]
        tickstart = HAL_GetTick();
 80022f6:	f7ff f845 	bl	8001384 <HAL_GetTick>
 80022fa:	4605      	mov	r5, r0
        while(__HAL_RCC_GET_FLAG(RCC_FLAG_HSIRDY) != RESET)
 80022fc:	4b48      	ldr	r3, [pc, #288]	; (8002420 <HAL_RCC_OscConfig+0x2b0>)
 80022fe:	681b      	ldr	r3, [r3, #0]
 8002300:	f013 0f02 	tst.w	r3, #2
 8002304:	d0d3      	beq.n	80022ae <HAL_RCC_OscConfig+0x13e>
          if((HAL_GetTick() - tickstart ) > HSI_TIMEOUT_VALUE)
 8002306:	f7ff f83d 	bl	8001384 <HAL_GetTick>
 800230a:	1b40      	subs	r0, r0, r5
 800230c:	2802      	cmp	r0, #2
 800230e:	d9f5      	bls.n	80022fc <HAL_RCC_OscConfig+0x18c>
            return HAL_TIMEOUT;
 8002310:	2003      	movs	r0, #3
 8002312:	e110      	b.n	8002536 <HAL_RCC_OscConfig+0x3c6>
      }
    }
    else
    {
      /* Disable the Internal Low Speed oscillator (LSI). */
      __HAL_RCC_LSI_DISABLE();
 8002314:	4b44      	ldr	r3, [pc, #272]	; (8002428 <HAL_RCC_OscConfig+0x2b8>)
 8002316:	2200      	movs	r2, #0
 8002318:	601a      	str	r2, [r3, #0]

      /* Get Start Tick */
      tickstart = HAL_GetTick();
 800231a:	f7ff f833 	bl	8001384 <HAL_GetTick>
 800231e:	4605      	mov	r5, r0

      /* Wait till LSI is ready */
      while(__HAL_RCC_GET_FLAG(RCC_FLAG_LSIRDY) != RESET)
 8002320:	4b3f      	ldr	r3, [pc, #252]	; (8002420 <HAL_RCC_OscConfig+0x2b0>)
 8002322:	6f5b      	ldr	r3, [r3, #116]	; 0x74
 8002324:	f013 0f02 	tst.w	r3, #2
 8002328:	d006      	beq.n	8002338 <HAL_RCC_OscConfig+0x1c8>
      {
        if((HAL_GetTick() - tickstart ) > LSI_TIMEOUT_VALUE)
 800232a:	f7ff f82b 	bl	8001384 <HAL_GetTick>
 800232e:	1b40      	subs	r0, r0, r5
 8002330:	2802      	cmp	r0, #2
 8002332:	d9f5      	bls.n	8002320 <HAL_RCC_OscConfig+0x1b0>
        {
          return HAL_TIMEOUT;
 8002334:	2003      	movs	r0, #3
 8002336:	e0fe      	b.n	8002536 <HAL_RCC_OscConfig+0x3c6>
        }
      }
    }
  }
  /*------------------------------ LSE Configuration -------------------------*/
  if(((RCC_OscInitStruct->OscillatorType) & RCC_OSCILLATORTYPE_LSE) == RCC_OSCILLATORTYPE_LSE)
 8002338:	6823      	ldr	r3, [r4, #0]
 800233a:	f013 0f04 	tst.w	r3, #4
 800233e:	d078      	beq.n	8002432 <HAL_RCC_OscConfig+0x2c2>
    /* Check the parameters */
    assert_param(IS_RCC_LSE(RCC_OscInitStruct->LSEState));

    /* Update LSE configuration in Backup Domain control register    */
    /* Requires to enable write access to Backup Domain of necessary */
    if(__HAL_RCC_PWR_IS_CLK_DISABLED())
 8002340:	4b37      	ldr	r3, [pc, #220]	; (8002420 <HAL_RCC_OscConfig+0x2b0>)
 8002342:	6c1b      	ldr	r3, [r3, #64]	; 0x40
 8002344:	f013 5f80 	tst.w	r3, #268435456	; 0x10000000
 8002348:	d10d      	bne.n	8002366 <HAL_RCC_OscConfig+0x1f6>
    {
      __HAL_RCC_PWR_CLK_ENABLE();
 800234a:	2300      	movs	r3, #0
 800234c:	9301      	str	r3, [sp, #4]
 800234e:	4b34      	ldr	r3, [pc, #208]	; (8002420 <HAL_RCC_OscConfig+0x2b0>)
 8002350:	6c1a      	ldr	r2, [r3, #64]	; 0x40
 8002352:	f042 5280 	orr.w	r2, r2, #268435456	; 0x10000000
 8002356:	641a      	str	r2, [r3, #64]	; 0x40
 8002358:	6c1b      	ldr	r3, [r3, #64]	; 0x40
 800235a:	f003 5380 	and.w	r3, r3, #268435456	; 0x10000000
 800235e:	9301      	str	r3, [sp, #4]
 8002360:	9b01      	ldr	r3, [sp, #4]
      pwrclkchanged = SET;
 8002362:	2501      	movs	r5, #1
 8002364:	e000      	b.n	8002368 <HAL_RCC_OscConfig+0x1f8>
    FlagStatus       pwrclkchanged = RESET;
 8002366:	2500      	movs	r5, #0
    }

    if(HAL_IS_BIT_CLR(PWR->CR, PWR_CR_DBP))
 8002368:	4b30      	ldr	r3, [pc, #192]	; (800242c <HAL_RCC_OscConfig+0x2bc>)
 800236a:	681b      	ldr	r3, [r3, #0]
 800236c:	f413 7f80 	tst.w	r3, #256	; 0x100
 8002370:	d021      	beq.n	80023b6 <HAL_RCC_OscConfig+0x246>
        }
      }
    }

    /* Set the new LSE configuration -----------------------------------------*/
    __HAL_RCC_LSE_CONFIG(RCC_OscInitStruct->LSEState);
 8002372:	68a3      	ldr	r3, [r4, #8]
 8002374:	2b01      	cmp	r3, #1
 8002376:	d032      	beq.n	80023de <HAL_RCC_OscConfig+0x26e>
 8002378:	2b05      	cmp	r3, #5
 800237a:	d036      	beq.n	80023ea <HAL_RCC_OscConfig+0x27a>
 800237c:	4b28      	ldr	r3, [pc, #160]	; (8002420 <HAL_RCC_OscConfig+0x2b0>)
 800237e:	6f1a      	ldr	r2, [r3, #112]	; 0x70
 8002380:	f022 0201 	bic.w	r2, r2, #1
 8002384:	671a      	str	r2, [r3, #112]	; 0x70
 8002386:	6f1a      	ldr	r2, [r3, #112]	; 0x70
 8002388:	f022 0204 	bic.w	r2, r2, #4
 800238c:	671a      	str	r2, [r3, #112]	; 0x70
    /* Check the LSE State */
    if((RCC_OscInitStruct->LSEState) != RCC_LSE_OFF)
 800238e:	68a3      	ldr	r3, [r4, #8]
 8002390:	2b00      	cmp	r3, #0
 8002392:	d034      	beq.n	80023fe <HAL_RCC_OscConfig+0x28e>
    {
      /* Get Start Tick*/
      tickstart = HAL_GetTick();
 8002394:	f7fe fff6 	bl	8001384 <HAL_GetTick>
 8002398:	4606      	mov	r6, r0

      /* Wait till LSE is ready */
      while(__HAL_RCC_GET_FLAG(RCC_FLAG_LSERDY) == RESET)
 800239a:	4b21      	ldr	r3, [pc, #132]	; (8002420 <HAL_RCC_OscConfig+0x2b0>)
 800239c:	6f1b      	ldr	r3, [r3, #112]	; 0x70
 800239e:	f013 0f02 	tst.w	r3, #2
 80023a2:	d145      	bne.n	8002430 <HAL_RCC_OscConfig+0x2c0>
      {
        if((HAL_GetTick() - tickstart ) > RCC_LSE_TIMEOUT_VALUE)
 80023a4:	f7fe ffee 	bl	8001384 <HAL_GetTick>
 80023a8:	1b80      	subs	r0, r0, r6
 80023aa:	f241 3388 	movw	r3, #5000	; 0x1388
 80023ae:	4298      	cmp	r0, r3
 80023b0:	d9f3      	bls.n	800239a <HAL_RCC_OscConfig+0x22a>
        {
          return HAL_TIMEOUT;
 80023b2:	2003      	movs	r0, #3
 80023b4:	e0bf      	b.n	8002536 <HAL_RCC_OscConfig+0x3c6>
      SET_BIT(PWR->CR, PWR_CR_DBP);
 80023b6:	4a1d      	ldr	r2, [pc, #116]	; (800242c <HAL_RCC_OscConfig+0x2bc>)
 80023b8:	6813      	ldr	r3, [r2, #0]
 80023ba:	f443 7380 	orr.w	r3, r3, #256	; 0x100
 80023be:	6013      	str	r3, [r2, #0]
      tickstart = HAL_GetTick();
 80023c0:	f7fe ffe0 	bl	8001384 <HAL_GetTick>
 80023c4:	4606      	mov	r6, r0
      while(HAL_IS_BIT_CLR(PWR->CR, PWR_CR_DBP))
 80023c6:	4b19      	ldr	r3, [pc, #100]	; (800242c <HAL_RCC_OscConfig+0x2bc>)
 80023c8:	681b      	ldr	r3, [r3, #0]
 80023ca:	f413 7f80 	tst.w	r3, #256	; 0x100
 80023ce:	d1d0      	bne.n	8002372 <HAL_RCC_OscConfig+0x202>
        if((HAL_GetTick() - tickstart) > RCC_DBP_TIMEOUT_VALUE)
 80023d0:	f7fe ffd8 	bl	8001384 <HAL_GetTick>
 80023d4:	1b80      	subs	r0, r0, r6
 80023d6:	2802      	cmp	r0, #2
 80023d8:	d9f5      	bls.n	80023c6 <HAL_RCC_OscConfig+0x256>
          return HAL_TIMEOUT;
 80023da:	2003      	movs	r0, #3
 80023dc:	e0ab      	b.n	8002536 <HAL_RCC_OscConfig+0x3c6>
    __HAL_RCC_LSE_CONFIG(RCC_OscInitStruct->LSEState);
 80023de:	4a10      	ldr	r2, [pc, #64]	; (8002420 <HAL_RCC_OscConfig+0x2b0>)
 80023e0:	6f13      	ldr	r3, [r2, #112]	; 0x70
 80023e2:	f043 0301 	orr.w	r3, r3, #1
 80023e6:	6713      	str	r3, [r2, #112]	; 0x70
 80023e8:	e7d1      	b.n	800238e <HAL_RCC_OscConfig+0x21e>
 80023ea:	4b0d      	ldr	r3, [pc, #52]	; (8002420 <HAL_RCC_OscConfig+0x2b0>)
 80023ec:	6f1a      	ldr	r2, [r3, #112]	; 0x70
 80023ee:	f042 0204 	orr.w	r2, r2, #4
 80023f2:	671a      	str	r2, [r3, #112]	; 0x70
 80023f4:	6f1a      	ldr	r2, [r3, #112]	; 0x70
 80023f6:	f042 0201 	orr.w	r2, r2, #1
 80023fa:	671a      	str	r2, [r3, #112]	; 0x70
 80023fc:	e7c7      	b.n	800238e <HAL_RCC_OscConfig+0x21e>
      }
    }
    else
    {
      /* Get Start Tick */
      tickstart = HAL_GetTick();
 80023fe:	f7fe ffc1 	bl	8001384 <HAL_GetTick>
 8002402:	4606      	mov	r6, r0

      /* Wait till LSE is ready */
      while(__HAL_RCC_GET_FLAG(RCC_FLAG_LSERDY) != RESET)
 8002404:	4b06      	ldr	r3, [pc, #24]	; (8002420 <HAL_RCC_OscConfig+0x2b0>)
 8002406:	6f1b      	ldr	r3, [r3, #112]	; 0x70
 8002408:	f013 0f02 	tst.w	r3, #2
 800240c:	d010      	beq.n	8002430 <HAL_RCC_OscConfig+0x2c0>
      {
        if((HAL_GetTick() - tickstart ) > RCC_LSE_TIMEOUT_VALUE)
 800240e:	f7fe ffb9 	bl	8001384 <HAL_GetTick>
 8002412:	1b80      	subs	r0, r0, r6
 8002414:	f241 3388 	movw	r3, #5000	; 0x1388
 8002418:	4298      	cmp	r0, r3
 800241a:	d9f3      	bls.n	8002404 <HAL_RCC_OscConfig+0x294>
        {
          return HAL_TIMEOUT;
 800241c:	2003      	movs	r0, #3
 800241e:	e08a      	b.n	8002536 <HAL_RCC_OscConfig+0x3c6>
 8002420:	40023800 	.word	0x40023800
 8002424:	42470000 	.word	0x42470000
 8002428:	42470e80 	.word	0x42470e80
 800242c:	40007000 	.word	0x40007000
        }
      }
    }

    /* Restore clock configuration if changed */
    if(pwrclkchanged == SET)
 8002430:	b9e5      	cbnz	r5, 800246c <HAL_RCC_OscConfig+0x2fc>
    }
  }
  /*-------------------------------- PLL Configuration -----------------------*/
  /* Check the parameters */
  assert_param(IS_RCC_PLL(RCC_OscInitStruct->PLL.PLLState));
  if ((RCC_OscInitStruct->PLL.PLLState) != RCC_PLL_NONE)
 8002432:	69a3      	ldr	r3, [r4, #24]
 8002434:	2b00      	cmp	r3, #0
 8002436:	d07d      	beq.n	8002534 <HAL_RCC_OscConfig+0x3c4>
  {
    /* Check if the PLL is used as system clock or not */
    if(__HAL_RCC_GET_SYSCLK_SOURCE() != RCC_CFGR_SWS_PLL)
 8002438:	4a46      	ldr	r2, [pc, #280]	; (8002554 <HAL_RCC_OscConfig+0x3e4>)
 800243a:	6892      	ldr	r2, [r2, #8]
 800243c:	f002 020c 	and.w	r2, r2, #12
 8002440:	2a08      	cmp	r2, #8
 8002442:	d051      	beq.n	80024e8 <HAL_RCC_OscConfig+0x378>
    {
      if((RCC_OscInitStruct->PLL.PLLState) == RCC_PLL_ON)
 8002444:	2b02      	cmp	r3, #2
 8002446:	d017      	beq.n	8002478 <HAL_RCC_OscConfig+0x308>
        }
      }
      else
      {
        /* Disable the main PLL. */
        __HAL_RCC_PLL_DISABLE();
 8002448:	4b43      	ldr	r3, [pc, #268]	; (8002558 <HAL_RCC_OscConfig+0x3e8>)
 800244a:	2200      	movs	r2, #0
 800244c:	601a      	str	r2, [r3, #0]

        /* Get Start Tick */
        tickstart = HAL_GetTick();
 800244e:	f7fe ff99 	bl	8001384 <HAL_GetTick>
 8002452:	4604      	mov	r4, r0

        /* Wait till PLL is ready */
        while(__HAL_RCC_GET_FLAG(RCC_FLAG_PLLRDY) != RESET)
 8002454:	4b3f      	ldr	r3, [pc, #252]	; (8002554 <HAL_RCC_OscConfig+0x3e4>)
 8002456:	681b      	ldr	r3, [r3, #0]
 8002458:	f013 7f00 	tst.w	r3, #33554432	; 0x2000000
 800245c:	d042      	beq.n	80024e4 <HAL_RCC_OscConfig+0x374>
        {
          if((HAL_GetTick() - tickstart ) > PLL_TIMEOUT_VALUE)
 800245e:	f7fe ff91 	bl	8001384 <HAL_GetTick>
 8002462:	1b00      	subs	r0, r0, r4
 8002464:	2802      	cmp	r0, #2
 8002466:	d9f5      	bls.n	8002454 <HAL_RCC_OscConfig+0x2e4>
          {
            return HAL_TIMEOUT;
 8002468:	2003      	movs	r0, #3
 800246a:	e064      	b.n	8002536 <HAL_RCC_OscConfig+0x3c6>
      __HAL_RCC_PWR_CLK_DISABLE();
 800246c:	4a39      	ldr	r2, [pc, #228]	; (8002554 <HAL_RCC_OscConfig+0x3e4>)
 800246e:	6c13      	ldr	r3, [r2, #64]	; 0x40
 8002470:	f023 5380 	bic.w	r3, r3, #268435456	; 0x10000000
 8002474:	6413      	str	r3, [r2, #64]	; 0x40
 8002476:	e7dc      	b.n	8002432 <HAL_RCC_OscConfig+0x2c2>
        __HAL_RCC_PLL_DISABLE();
 8002478:	4b37      	ldr	r3, [pc, #220]	; (8002558 <HAL_RCC_OscConfig+0x3e8>)
 800247a:	2200      	movs	r2, #0
 800247c:	601a      	str	r2, [r3, #0]
        tickstart = HAL_GetTick();
 800247e:	f7fe ff81 	bl	8001384 <HAL_GetTick>
 8002482:	4605      	mov	r5, r0
        while(__HAL_RCC_GET_FLAG(RCC_FLAG_PLLRDY) != RESET)
 8002484:	4b33      	ldr	r3, [pc, #204]	; (8002554 <HAL_RCC_OscConfig+0x3e4>)
 8002486:	681b      	ldr	r3, [r3, #0]
 8002488:	f013 7f00 	tst.w	r3, #33554432	; 0x2000000
 800248c:	d006      	beq.n	800249c <HAL_RCC_OscConfig+0x32c>
          if((HAL_GetTick() - tickstart ) > PLL_TIMEOUT_VALUE)
 800248e:	f7fe ff79 	bl	8001384 <HAL_GetTick>
 8002492:	1b40      	subs	r0, r0, r5
 8002494:	2802      	cmp	r0, #2
 8002496:	d9f5      	bls.n	8002484 <HAL_RCC_OscConfig+0x314>
            return HAL_TIMEOUT;
 8002498:	2003      	movs	r0, #3
 800249a:	e04c      	b.n	8002536 <HAL_RCC_OscConfig+0x3c6>
        WRITE_REG(RCC->PLLCFGR, (RCC_OscInitStruct->PLL.PLLSource                                            | \
 800249c:	69e3      	ldr	r3, [r4, #28]
 800249e:	6a22      	ldr	r2, [r4, #32]
 80024a0:	4313      	orrs	r3, r2
 80024a2:	6a62      	ldr	r2, [r4, #36]	; 0x24
 80024a4:	ea43 1382 	orr.w	r3, r3, r2, lsl #6
 80024a8:	6aa2      	ldr	r2, [r4, #40]	; 0x28
 80024aa:	0852      	lsrs	r2, r2, #1
 80024ac:	3a01      	subs	r2, #1
 80024ae:	ea43 4302 	orr.w	r3, r3, r2, lsl #16
 80024b2:	6ae2      	ldr	r2, [r4, #44]	; 0x2c
 80024b4:	ea43 6302 	orr.w	r3, r3, r2, lsl #24
 80024b8:	4a26      	ldr	r2, [pc, #152]	; (8002554 <HAL_RCC_OscConfig+0x3e4>)
 80024ba:	6053      	str	r3, [r2, #4]
        __HAL_RCC_PLL_ENABLE();
 80024bc:	4b26      	ldr	r3, [pc, #152]	; (8002558 <HAL_RCC_OscConfig+0x3e8>)
 80024be:	2201      	movs	r2, #1
 80024c0:	601a      	str	r2, [r3, #0]
        tickstart = HAL_GetTick();
 80024c2:	f7fe ff5f 	bl	8001384 <HAL_GetTick>
 80024c6:	4604      	mov	r4, r0
        while(__HAL_RCC_GET_FLAG(RCC_FLAG_PLLRDY) == RESET)
 80024c8:	4b22      	ldr	r3, [pc, #136]	; (8002554 <HAL_RCC_OscConfig+0x3e4>)
 80024ca:	681b      	ldr	r3, [r3, #0]
 80024cc:	f013 7f00 	tst.w	r3, #33554432	; 0x2000000
 80024d0:	d106      	bne.n	80024e0 <HAL_RCC_OscConfig+0x370>
          if((HAL_GetTick() - tickstart ) > PLL_TIMEOUT_VALUE)
 80024d2:	f7fe ff57 	bl	8001384 <HAL_GetTick>
 80024d6:	1b00      	subs	r0, r0, r4
 80024d8:	2802      	cmp	r0, #2
 80024da:	d9f5      	bls.n	80024c8 <HAL_RCC_OscConfig+0x358>
            return HAL_TIMEOUT;
 80024dc:	2003      	movs	r0, #3
 80024de:	e02a      	b.n	8002536 <HAL_RCC_OscConfig+0x3c6>
          return HAL_ERROR;
        }
      }
    }
  }
  return HAL_OK;
 80024e0:	2000      	movs	r0, #0
 80024e2:	e028      	b.n	8002536 <HAL_RCC_OscConfig+0x3c6>
 80024e4:	2000      	movs	r0, #0
 80024e6:	e026      	b.n	8002536 <HAL_RCC_OscConfig+0x3c6>
      if((RCC_OscInitStruct->PLL.PLLState) == RCC_PLL_OFF)
 80024e8:	2b01      	cmp	r3, #1
 80024ea:	d026      	beq.n	800253a <HAL_RCC_OscConfig+0x3ca>
        pll_config = RCC->PLLCFGR;
 80024ec:	4b19      	ldr	r3, [pc, #100]	; (8002554 <HAL_RCC_OscConfig+0x3e4>)
 80024ee:	685b      	ldr	r3, [r3, #4]
        if((READ_BIT(pll_config, RCC_PLLCFGR_PLLSRC) != RCC_OscInitStruct->PLL.PLLSource) ||
 80024f0:	f403 0180 	and.w	r1, r3, #4194304	; 0x400000
 80024f4:	69e2      	ldr	r2, [r4, #28]
 80024f6:	4291      	cmp	r1, r2
 80024f8:	d121      	bne.n	800253e <HAL_RCC_OscConfig+0x3ce>
           (READ_BIT(pll_config, RCC_PLLCFGR_PLLM) != RCC_OscInitStruct->PLL.PLLM) ||
 80024fa:	f003 023f 	and.w	r2, r3, #63	; 0x3f
 80024fe:	6a21      	ldr	r1, [r4, #32]
        if((READ_BIT(pll_config, RCC_PLLCFGR_PLLSRC) != RCC_OscInitStruct->PLL.PLLSource) ||
 8002500:	428a      	cmp	r2, r1
 8002502:	d11e      	bne.n	8002542 <HAL_RCC_OscConfig+0x3d2>
           (READ_BIT(pll_config, RCC_PLLCFGR_PLLN) != RCC_OscInitStruct->PLL.PLLN) ||
 8002504:	6a61      	ldr	r1, [r4, #36]	; 0x24
           (READ_BIT(pll_config, RCC_PLLCFGR_PLLM) != RCC_OscInitStruct->PLL.PLLM) ||
 8002506:	f647 72c0 	movw	r2, #32704	; 0x7fc0
 800250a:	401a      	ands	r2, r3
 800250c:	428a      	cmp	r2, r1
 800250e:	d11a      	bne.n	8002546 <HAL_RCC_OscConfig+0x3d6>
           (READ_BIT(pll_config, RCC_PLLCFGR_PLLP) != RCC_OscInitStruct->PLL.PLLP) ||
 8002510:	f403 3240 	and.w	r2, r3, #196608	; 0x30000
 8002514:	6aa1      	ldr	r1, [r4, #40]	; 0x28
           (READ_BIT(pll_config, RCC_PLLCFGR_PLLN) != RCC_OscInitStruct->PLL.PLLN) ||
 8002516:	428a      	cmp	r2, r1
 8002518:	d117      	bne.n	800254a <HAL_RCC_OscConfig+0x3da>
           (READ_BIT(pll_config, RCC_PLLCFGR_PLLQ) != RCC_OscInitStruct->PLL.PLLQ))
 800251a:	f003 6370 	and.w	r3, r3, #251658240	; 0xf000000
 800251e:	6ae2      	ldr	r2, [r4, #44]	; 0x2c
           (READ_BIT(pll_config, RCC_PLLCFGR_PLLP) != RCC_OscInitStruct->PLL.PLLP) ||
 8002520:	4293      	cmp	r3, r2
 8002522:	d114      	bne.n	800254e <HAL_RCC_OscConfig+0x3de>
  return HAL_OK;
 8002524:	2000      	movs	r0, #0
 8002526:	e006      	b.n	8002536 <HAL_RCC_OscConfig+0x3c6>
    return HAL_ERROR;
 8002528:	2001      	movs	r0, #1
}
 800252a:	4770      	bx	lr
        return HAL_ERROR;
 800252c:	2001      	movs	r0, #1
 800252e:	e002      	b.n	8002536 <HAL_RCC_OscConfig+0x3c6>
        return HAL_ERROR;
 8002530:	2001      	movs	r0, #1
 8002532:	e000      	b.n	8002536 <HAL_RCC_OscConfig+0x3c6>
  return HAL_OK;
 8002534:	2000      	movs	r0, #0
}
 8002536:	b002      	add	sp, #8
 8002538:	bd70      	pop	{r4, r5, r6, pc}
        return HAL_ERROR;
 800253a:	2001      	movs	r0, #1
 800253c:	e7fb      	b.n	8002536 <HAL_RCC_OscConfig+0x3c6>
          return HAL_ERROR;
 800253e:	2001      	movs	r0, #1
 8002540:	e7f9      	b.n	8002536 <HAL_RCC_OscConfig+0x3c6>
 8002542:	2001      	movs	r0, #1
 8002544:	e7f7      	b.n	8002536 <HAL_RCC_OscConfig+0x3c6>
 8002546:	2001      	movs	r0, #1
 8002548:	e7f5      	b.n	8002536 <HAL_RCC_OscConfig+0x3c6>
 800254a:	2001      	movs	r0, #1
 800254c:	e7f3      	b.n	8002536 <HAL_RCC_OscConfig+0x3c6>
 800254e:	2001      	movs	r0, #1
 8002550:	e7f1      	b.n	8002536 <HAL_RCC_OscConfig+0x3c6>
 8002552:	bf00      	nop
 8002554:	40023800 	.word	0x40023800
 8002558:	42470060 	.word	0x42470060

0800255c <HAL_RCC_GetSysClockFreq>:
  *
  *
  * @retval SYSCLK frequency
  */
__weak uint32_t HAL_RCC_GetSysClockFreq(void)
{
 800255c:	b5f8      	push	{r3, r4, r5, r6, r7, lr}
  uint32_t pllm = 0U, pllvco = 0U, pllp = 0U;
  uint32_t sysclockfreq = 0U;

  /* Get SYSCLK source -------------------------------------------------------*/
  switch (RCC->CFGR & RCC_CFGR_SWS)
 800255e:	4b24      	ldr	r3, [pc, #144]	; (80025f0 <HAL_RCC_GetSysClockFreq+0x94>)
 8002560:	689b      	ldr	r3, [r3, #8]
 8002562:	f003 030c 	and.w	r3, r3, #12
 8002566:	2b04      	cmp	r3, #4
 8002568:	d03d      	beq.n	80025e6 <HAL_RCC_GetSysClockFreq+0x8a>
 800256a:	2b08      	cmp	r3, #8
 800256c:	d13d      	bne.n	80025ea <HAL_RCC_GetSysClockFreq+0x8e>
    }
    case RCC_CFGR_SWS_PLL:  /* PLL used as system clock  source */
    {
      /* PLL_VCO = (HSE_VALUE or HSI_VALUE / PLLM) * PLLN
      SYSCLK = PLL_VCO / PLLP */
      pllm = RCC->PLLCFGR & RCC_PLLCFGR_PLLM;
 800256e:	4b20      	ldr	r3, [pc, #128]	; (80025f0 <HAL_RCC_GetSysClockFreq+0x94>)
 8002570:	685a      	ldr	r2, [r3, #4]
 8002572:	f002 023f 	and.w	r2, r2, #63	; 0x3f
      if(__HAL_RCC_GET_PLL_OSCSOURCE() != RCC_PLLSOURCE_HSI)
 8002576:	685b      	ldr	r3, [r3, #4]
 8002578:	f413 0f80 	tst.w	r3, #4194304	; 0x400000
 800257c:	d012      	beq.n	80025a4 <HAL_RCC_GetSysClockFreq+0x48>
      {
        /* HSE used as PLL clock source */
        pllvco = (uint32_t) ((((uint64_t) HSE_VALUE * ((uint64_t) ((RCC->PLLCFGR & RCC_PLLCFGR_PLLN) >> RCC_PLLCFGR_PLLN_Pos)))) / (uint64_t)pllm);
 800257e:	4b1c      	ldr	r3, [pc, #112]	; (80025f0 <HAL_RCC_GetSysClockFreq+0x94>)
 8002580:	6859      	ldr	r1, [r3, #4]
 8002582:	f3c1 1188 	ubfx	r1, r1, #6, #9
 8002586:	2300      	movs	r3, #0
 8002588:	481a      	ldr	r0, [pc, #104]	; (80025f4 <HAL_RCC_GetSysClockFreq+0x98>)
 800258a:	fba1 0100 	umull	r0, r1, r1, r0
 800258e:	f7fe f959 	bl	8000844 <__aeabi_uldivmod>
      else
      {
        /* HSI used as PLL clock source */
        pllvco = (uint32_t) ((((uint64_t) HSI_VALUE * ((uint64_t) ((RCC->PLLCFGR & RCC_PLLCFGR_PLLN) >> RCC_PLLCFGR_PLLN_Pos)))) / (uint64_t)pllm);
      }
      pllp = ((((RCC->PLLCFGR & RCC_PLLCFGR_PLLP) >> RCC_PLLCFGR_PLLP_Pos) + 1U) *2U);
 8002592:	4b17      	ldr	r3, [pc, #92]	; (80025f0 <HAL_RCC_GetSysClockFreq+0x94>)
 8002594:	685b      	ldr	r3, [r3, #4]
 8002596:	f3c3 4301 	ubfx	r3, r3, #16, #2
 800259a:	3301      	adds	r3, #1
 800259c:	005b      	lsls	r3, r3, #1

      sysclockfreq = pllvco/pllp;
 800259e:	fbb0 f0f3 	udiv	r0, r0, r3
      break;
 80025a2:	e023      	b.n	80025ec <HAL_RCC_GetSysClockFreq+0x90>
        pllvco = (uint32_t) ((((uint64_t) HSI_VALUE * ((uint64_t) ((RCC->PLLCFGR & RCC_PLLCFGR_PLLN) >> RCC_PLLCFGR_PLLN_Pos)))) / (uint64_t)pllm);
 80025a4:	4b12      	ldr	r3, [pc, #72]	; (80025f0 <HAL_RCC_GetSysClockFreq+0x94>)
 80025a6:	685b      	ldr	r3, [r3, #4]
 80025a8:	f3c3 1388 	ubfx	r3, r3, #6, #9
 80025ac:	015c      	lsls	r4, r3, #5
 80025ae:	2500      	movs	r5, #0
 80025b0:	1ae4      	subs	r4, r4, r3
 80025b2:	f165 0500 	sbc.w	r5, r5, #0
 80025b6:	01ae      	lsls	r6, r5, #6
 80025b8:	ea46 6694 	orr.w	r6, r6, r4, lsr #26
 80025bc:	01a7      	lsls	r7, r4, #6
 80025be:	1b38      	subs	r0, r7, r4
 80025c0:	eb66 0105 	sbc.w	r1, r6, r5
 80025c4:	00cc      	lsls	r4, r1, #3
 80025c6:	ea44 7450 	orr.w	r4, r4, r0, lsr #29
 80025ca:	00c5      	lsls	r5, r0, #3
 80025cc:	18e8      	adds	r0, r5, r3
 80025ce:	f144 0100 	adc.w	r1, r4, #0
 80025d2:	028b      	lsls	r3, r1, #10
 80025d4:	ea43 5390 	orr.w	r3, r3, r0, lsr #22
 80025d8:	0284      	lsls	r4, r0, #10
 80025da:	4620      	mov	r0, r4
 80025dc:	4619      	mov	r1, r3
 80025de:	2300      	movs	r3, #0
 80025e0:	f7fe f930 	bl	8000844 <__aeabi_uldivmod>
 80025e4:	e7d5      	b.n	8002592 <HAL_RCC_GetSysClockFreq+0x36>
      sysclockfreq = HSE_VALUE;
 80025e6:	4803      	ldr	r0, [pc, #12]	; (80025f4 <HAL_RCC_GetSysClockFreq+0x98>)
 80025e8:	e000      	b.n	80025ec <HAL_RCC_GetSysClockFreq+0x90>
  switch (RCC->CFGR & RCC_CFGR_SWS)
 80025ea:	4803      	ldr	r0, [pc, #12]	; (80025f8 <HAL_RCC_GetSysClockFreq+0x9c>)
      sysclockfreq = HSI_VALUE;
      break;
    }
  }
  return sysclockfreq;
}
 80025ec:	bdf8      	pop	{r3, r4, r5, r6, r7, pc}
 80025ee:	bf00      	nop
 80025f0:	40023800 	.word	0x40023800
 80025f4:	017d7840 	.word	0x017d7840
 80025f8:	00f42400 	.word	0x00f42400

080025fc <HAL_RCC_ClockConfig>:
  if(RCC_ClkInitStruct == NULL)
 80025fc:	2800      	cmp	r0, #0
 80025fe:	f000 809b 	beq.w	8002738 <HAL_RCC_ClockConfig+0x13c>
{
 8002602:	b570      	push	{r4, r5, r6, lr}
 8002604:	460d      	mov	r5, r1
 8002606:	4604      	mov	r4, r0
  if(FLatency > __HAL_FLASH_GET_LATENCY())
 8002608:	4b4f      	ldr	r3, [pc, #316]	; (8002748 <HAL_RCC_ClockConfig+0x14c>)
 800260a:	681b      	ldr	r3, [r3, #0]
 800260c:	f003 030f 	and.w	r3, r3, #15
 8002610:	428b      	cmp	r3, r1
 8002612:	d208      	bcs.n	8002626 <HAL_RCC_ClockConfig+0x2a>
    __HAL_FLASH_SET_LATENCY(FLatency);
 8002614:	b2cb      	uxtb	r3, r1
 8002616:	4a4c      	ldr	r2, [pc, #304]	; (8002748 <HAL_RCC_ClockConfig+0x14c>)
 8002618:	7013      	strb	r3, [r2, #0]
    if(__HAL_FLASH_GET_LATENCY() != FLatency)
 800261a:	6813      	ldr	r3, [r2, #0]
 800261c:	f003 030f 	and.w	r3, r3, #15
 8002620:	428b      	cmp	r3, r1
 8002622:	f040 808b 	bne.w	800273c <HAL_RCC_ClockConfig+0x140>
  if(((RCC_ClkInitStruct->ClockType) & RCC_CLOCKTYPE_HCLK) == RCC_CLOCKTYPE_HCLK)
 8002626:	6823      	ldr	r3, [r4, #0]
 8002628:	f013 0f02 	tst.w	r3, #2
 800262c:	d017      	beq.n	800265e <HAL_RCC_ClockConfig+0x62>
    if(((RCC_ClkInitStruct->ClockType) & RCC_CLOCKTYPE_PCLK1) == RCC_CLOCKTYPE_PCLK1)
 800262e:	f013 0f04 	tst.w	r3, #4
 8002632:	d004      	beq.n	800263e <HAL_RCC_ClockConfig+0x42>
      MODIFY_REG(RCC->CFGR, RCC_CFGR_PPRE1, RCC_HCLK_DIV16);
 8002634:	4a45      	ldr	r2, [pc, #276]	; (800274c <HAL_RCC_ClockConfig+0x150>)
 8002636:	6893      	ldr	r3, [r2, #8]
 8002638:	f443 53e0 	orr.w	r3, r3, #7168	; 0x1c00
 800263c:	6093      	str	r3, [r2, #8]
    if(((RCC_ClkInitStruct->ClockType) & RCC_CLOCKTYPE_PCLK2) == RCC_CLOCKTYPE_PCLK2)
 800263e:	6823      	ldr	r3, [r4, #0]
 8002640:	f013 0f08 	tst.w	r3, #8
 8002644:	d004      	beq.n	8002650 <HAL_RCC_ClockConfig+0x54>
      MODIFY_REG(RCC->CFGR, RCC_CFGR_PPRE2, (RCC_HCLK_DIV16 << 3));
 8002646:	4a41      	ldr	r2, [pc, #260]	; (800274c <HAL_RCC_ClockConfig+0x150>)
 8002648:	6893      	ldr	r3, [r2, #8]
 800264a:	f443 4360 	orr.w	r3, r3, #57344	; 0xe000
 800264e:	6093      	str	r3, [r2, #8]
    MODIFY_REG(RCC->CFGR, RCC_CFGR_HPRE, RCC_ClkInitStruct->AHBCLKDivider);
 8002650:	4a3e      	ldr	r2, [pc, #248]	; (800274c <HAL_RCC_ClockConfig+0x150>)
 8002652:	6893      	ldr	r3, [r2, #8]
 8002654:	f023 03f0 	bic.w	r3, r3, #240	; 0xf0
 8002658:	68a1      	ldr	r1, [r4, #8]
 800265a:	430b      	orrs	r3, r1
 800265c:	6093      	str	r3, [r2, #8]
  if(((RCC_ClkInitStruct->ClockType) & RCC_CLOCKTYPE_SYSCLK) == RCC_CLOCKTYPE_SYSCLK)
 800265e:	6823      	ldr	r3, [r4, #0]
 8002660:	f013 0f01 	tst.w	r3, #1
 8002664:	d032      	beq.n	80026cc <HAL_RCC_ClockConfig+0xd0>
    if(RCC_ClkInitStruct->SYSCLKSource == RCC_SYSCLKSOURCE_HSE)
 8002666:	6863      	ldr	r3, [r4, #4]
 8002668:	2b01      	cmp	r3, #1
 800266a:	d021      	beq.n	80026b0 <HAL_RCC_ClockConfig+0xb4>
    else if((RCC_ClkInitStruct->SYSCLKSource == RCC_SYSCLKSOURCE_PLLCLK)   ||
 800266c:	1e9a      	subs	r2, r3, #2
 800266e:	2a01      	cmp	r2, #1
 8002670:	d925      	bls.n	80026be <HAL_RCC_ClockConfig+0xc2>
      if(__HAL_RCC_GET_FLAG(RCC_FLAG_HSIRDY) == RESET)
 8002672:	4a36      	ldr	r2, [pc, #216]	; (800274c <HAL_RCC_ClockConfig+0x150>)
 8002674:	6812      	ldr	r2, [r2, #0]
 8002676:	f012 0f02 	tst.w	r2, #2
 800267a:	d061      	beq.n	8002740 <HAL_RCC_ClockConfig+0x144>
    __HAL_RCC_SYSCLK_CONFIG(RCC_ClkInitStruct->SYSCLKSource);
 800267c:	4933      	ldr	r1, [pc, #204]	; (800274c <HAL_RCC_ClockConfig+0x150>)
 800267e:	688a      	ldr	r2, [r1, #8]
 8002680:	f022 0203 	bic.w	r2, r2, #3
 8002684:	4313      	orrs	r3, r2
 8002686:	608b      	str	r3, [r1, #8]
    tickstart = HAL_GetTick();
 8002688:	f7fe fe7c 	bl	8001384 <HAL_GetTick>
 800268c:	4606      	mov	r6, r0
    while (__HAL_RCC_GET_SYSCLK_SOURCE() != (RCC_ClkInitStruct->SYSCLKSource << RCC_CFGR_SWS_Pos))
 800268e:	4b2f      	ldr	r3, [pc, #188]	; (800274c <HAL_RCC_ClockConfig+0x150>)
 8002690:	689b      	ldr	r3, [r3, #8]
 8002692:	f003 030c 	and.w	r3, r3, #12
 8002696:	6862      	ldr	r2, [r4, #4]
 8002698:	ebb3 0f82 	cmp.w	r3, r2, lsl #2
 800269c:	d016      	beq.n	80026cc <HAL_RCC_ClockConfig+0xd0>
      if ((HAL_GetTick() - tickstart) > CLOCKSWITCH_TIMEOUT_VALUE)
 800269e:	f7fe fe71 	bl	8001384 <HAL_GetTick>
 80026a2:	1b80      	subs	r0, r0, r6
 80026a4:	f241 3388 	movw	r3, #5000	; 0x1388
 80026a8:	4298      	cmp	r0, r3
 80026aa:	d9f0      	bls.n	800268e <HAL_RCC_ClockConfig+0x92>
        return HAL_TIMEOUT;
 80026ac:	2003      	movs	r0, #3
 80026ae:	e042      	b.n	8002736 <HAL_RCC_ClockConfig+0x13a>
      if(__HAL_RCC_GET_FLAG(RCC_FLAG_HSERDY) == RESET)
 80026b0:	4a26      	ldr	r2, [pc, #152]	; (800274c <HAL_RCC_ClockConfig+0x150>)
 80026b2:	6812      	ldr	r2, [r2, #0]
 80026b4:	f412 3f00 	tst.w	r2, #131072	; 0x20000
 80026b8:	d1e0      	bne.n	800267c <HAL_RCC_ClockConfig+0x80>
        return HAL_ERROR;
 80026ba:	2001      	movs	r0, #1
 80026bc:	e03b      	b.n	8002736 <HAL_RCC_ClockConfig+0x13a>
      if(__HAL_RCC_GET_FLAG(RCC_FLAG_PLLRDY) == RESET)
 80026be:	4a23      	ldr	r2, [pc, #140]	; (800274c <HAL_RCC_ClockConfig+0x150>)
 80026c0:	6812      	ldr	r2, [r2, #0]
 80026c2:	f012 7f00 	tst.w	r2, #33554432	; 0x2000000
 80026c6:	d1d9      	bne.n	800267c <HAL_RCC_ClockConfig+0x80>
        return HAL_ERROR;
 80026c8:	2001      	movs	r0, #1
 80026ca:	e034      	b.n	8002736 <HAL_RCC_ClockConfig+0x13a>
  if(FLatency < __HAL_FLASH_GET_LATENCY())
 80026cc:	4b1e      	ldr	r3, [pc, #120]	; (8002748 <HAL_RCC_ClockConfig+0x14c>)
 80026ce:	681b      	ldr	r3, [r3, #0]
 80026d0:	f003 030f 	and.w	r3, r3, #15
 80026d4:	42ab      	cmp	r3, r5
 80026d6:	d907      	bls.n	80026e8 <HAL_RCC_ClockConfig+0xec>
    __HAL_FLASH_SET_LATENCY(FLatency);
 80026d8:	b2ea      	uxtb	r2, r5
 80026da:	4b1b      	ldr	r3, [pc, #108]	; (8002748 <HAL_RCC_ClockConfig+0x14c>)
 80026dc:	701a      	strb	r2, [r3, #0]
    if(__HAL_FLASH_GET_LATENCY() != FLatency)
 80026de:	681b      	ldr	r3, [r3, #0]
 80026e0:	f003 030f 	and.w	r3, r3, #15
 80026e4:	42ab      	cmp	r3, r5
 80026e6:	d12d      	bne.n	8002744 <HAL_RCC_ClockConfig+0x148>
  if(((RCC_ClkInitStruct->ClockType) & RCC_CLOCKTYPE_PCLK1) == RCC_CLOCKTYPE_PCLK1)
 80026e8:	6823      	ldr	r3, [r4, #0]
 80026ea:	f013 0f04 	tst.w	r3, #4
 80026ee:	d006      	beq.n	80026fe <HAL_RCC_ClockConfig+0x102>
    MODIFY_REG(RCC->CFGR, RCC_CFGR_PPRE1, RCC_ClkInitStruct->APB1CLKDivider);
 80026f0:	4a16      	ldr	r2, [pc, #88]	; (800274c <HAL_RCC_ClockConfig+0x150>)
 80026f2:	6893      	ldr	r3, [r2, #8]
 80026f4:	f423 53e0 	bic.w	r3, r3, #7168	; 0x1c00
 80026f8:	68e1      	ldr	r1, [r4, #12]
 80026fa:	430b      	orrs	r3, r1
 80026fc:	6093      	str	r3, [r2, #8]
  if(((RCC_ClkInitStruct->ClockType) & RCC_CLOCKTYPE_PCLK2) == RCC_CLOCKTYPE_PCLK2)
 80026fe:	6823      	ldr	r3, [r4, #0]
 8002700:	f013 0f08 	tst.w	r3, #8
 8002704:	d007      	beq.n	8002716 <HAL_RCC_ClockConfig+0x11a>
    MODIFY_REG(RCC->CFGR, RCC_CFGR_PPRE2, ((RCC_ClkInitStruct->APB2CLKDivider) << 3U));
 8002706:	4a11      	ldr	r2, [pc, #68]	; (800274c <HAL_RCC_ClockConfig+0x150>)
 8002708:	6893      	ldr	r3, [r2, #8]
 800270a:	f423 4360 	bic.w	r3, r3, #57344	; 0xe000
 800270e:	6921      	ldr	r1, [r4, #16]
 8002710:	ea43 03c1 	orr.w	r3, r3, r1, lsl #3
 8002714:	6093      	str	r3, [r2, #8]
  SystemCoreClock = HAL_RCC_GetSysClockFreq() >> AHBPrescTable[(RCC->CFGR & RCC_CFGR_HPRE)>> RCC_CFGR_HPRE_Pos];
 8002716:	f7ff ff21 	bl	800255c <HAL_RCC_GetSysClockFreq>
 800271a:	4b0c      	ldr	r3, [pc, #48]	; (800274c <HAL_RCC_ClockConfig+0x150>)
 800271c:	689b      	ldr	r3, [r3, #8]
 800271e:	f3c3 1303 	ubfx	r3, r3, #4, #4
 8002722:	4a0b      	ldr	r2, [pc, #44]	; (8002750 <HAL_RCC_ClockConfig+0x154>)
 8002724:	5cd3      	ldrb	r3, [r2, r3]
 8002726:	40d8      	lsrs	r0, r3
 8002728:	4b0a      	ldr	r3, [pc, #40]	; (8002754 <HAL_RCC_ClockConfig+0x158>)
 800272a:	6018      	str	r0, [r3, #0]
  HAL_InitTick (uwTickPrio);
 800272c:	4b0a      	ldr	r3, [pc, #40]	; (8002758 <HAL_RCC_ClockConfig+0x15c>)
 800272e:	6818      	ldr	r0, [r3, #0]
 8002730:	f7fe fdde 	bl	80012f0 <HAL_InitTick>
  return HAL_OK;
 8002734:	2000      	movs	r0, #0
}
 8002736:	bd70      	pop	{r4, r5, r6, pc}
    return HAL_ERROR;
 8002738:	2001      	movs	r0, #1
}
 800273a:	4770      	bx	lr
      return HAL_ERROR;
 800273c:	2001      	movs	r0, #1
 800273e:	e7fa      	b.n	8002736 <HAL_RCC_ClockConfig+0x13a>
        return HAL_ERROR;
 8002740:	2001      	movs	r0, #1
 8002742:	e7f8      	b.n	8002736 <HAL_RCC_ClockConfig+0x13a>
      return HAL_ERROR;
 8002744:	2001      	movs	r0, #1
 8002746:	e7f6      	b.n	8002736 <HAL_RCC_ClockConfig+0x13a>
 8002748:	40023c00 	.word	0x40023c00
 800274c:	40023800 	.word	0x40023800
 8002750:	08003804 	.word	0x08003804
 8002754:	20000004 	.word	0x20000004
 8002758:	2000000c 	.word	0x2000000c

0800275c <HAL_RCC_GetHCLKFreq>:
  * @retval HCLK frequency
  */
uint32_t HAL_RCC_GetHCLKFreq(void)
{
  return SystemCoreClock;
}
 800275c:	4b01      	ldr	r3, [pc, #4]	; (8002764 <HAL_RCC_GetHCLKFreq+0x8>)
 800275e:	6818      	ldr	r0, [r3, #0]
 8002760:	4770      	bx	lr
 8002762:	bf00      	nop
 8002764:	20000004 	.word	0x20000004

08002768 <HAL_RCC_GetPCLK1Freq>:
  * @note   Each time PCLK1 changes, this function must be called to update the
  *         right PCLK1 value. Otherwise, any configuration based on this function will be incorrect.
  * @retval PCLK1 frequency
  */
uint32_t HAL_RCC_GetPCLK1Freq(void)
{
 8002768:	b508      	push	{r3, lr}
  /* Get HCLK source and Compute PCLK1 frequency ---------------------------*/
  return (HAL_RCC_GetHCLKFreq() >> APBPrescTable[(RCC->CFGR & RCC_CFGR_PPRE1)>> RCC_CFGR_PPRE1_Pos]);
 800276a:	f7ff fff7 	bl	800275c <HAL_RCC_GetHCLKFreq>
 800276e:	4b04      	ldr	r3, [pc, #16]	; (8002780 <HAL_RCC_GetPCLK1Freq+0x18>)
 8002770:	689b      	ldr	r3, [r3, #8]
 8002772:	f3c3 2382 	ubfx	r3, r3, #10, #3
 8002776:	4a03      	ldr	r2, [pc, #12]	; (8002784 <HAL_RCC_GetPCLK1Freq+0x1c>)
 8002778:	5cd3      	ldrb	r3, [r2, r3]
}
 800277a:	40d8      	lsrs	r0, r3
 800277c:	bd08      	pop	{r3, pc}
 800277e:	bf00      	nop
 8002780:	40023800 	.word	0x40023800
 8002784:	08003814 	.word	0x08003814

08002788 <HAL_RCC_GetPCLK2Freq>:
  * @note   Each time PCLK2 changes, this function must be called to update the
  *         right PCLK2 value. Otherwise, any configuration based on this function will be incorrect.
  * @retval PCLK2 frequency
  */
uint32_t HAL_RCC_GetPCLK2Freq(void)
{
 8002788:	b508      	push	{r3, lr}
  /* Get HCLK source and Compute PCLK2 frequency ---------------------------*/
  return (HAL_RCC_GetHCLKFreq()>> APBPrescTable[(RCC->CFGR & RCC_CFGR_PPRE2)>> RCC_CFGR_PPRE2_Pos]);
 800278a:	f7ff ffe7 	bl	800275c <HAL_RCC_GetHCLKFreq>
 800278e:	4b04      	ldr	r3, [pc, #16]	; (80027a0 <HAL_RCC_GetPCLK2Freq+0x18>)
 8002790:	689b      	ldr	r3, [r3, #8]
 8002792:	f3c3 3342 	ubfx	r3, r3, #13, #3
 8002796:	4a03      	ldr	r2, [pc, #12]	; (80027a4 <HAL_RCC_GetPCLK2Freq+0x1c>)
 8002798:	5cd3      	ldrb	r3, [r2, r3]
}
 800279a:	40d8      	lsrs	r0, r3
 800279c:	bd08      	pop	{r3, pc}
 800279e:	bf00      	nop
 80027a0:	40023800 	.word	0x40023800
 80027a4:	08003814 	.word	0x08003814

080027a8 <HAL_RCCEx_PeriphCLKConfig>:
  *        domain (RTC and RCC_BDCR register expect BKPSRAM) will be reset
  *
  * @retval HAL status
  */
HAL_StatusTypeDef HAL_RCCEx_PeriphCLKConfig(RCC_PeriphCLKInitTypeDef  *PeriphClkInit)
{
 80027a8:	b530      	push	{r4, r5, lr}
 80027aa:	b083      	sub	sp, #12
 80027ac:	4604      	mov	r4, r0

  /* Check the parameters */
  assert_param(IS_RCC_PERIPHCLOCK(PeriphClkInit->PeriphClockSelection));

  /*---------------------------- I2S configuration ---------------------------*/
  if((((PeriphClkInit->PeriphClockSelection) & RCC_PERIPHCLK_I2S) == RCC_PERIPHCLK_I2S) ||
 80027ae:	6803      	ldr	r3, [r0, #0]
 80027b0:	f013 0f05 	tst.w	r3, #5
 80027b4:	d10e      	bne.n	80027d4 <HAL_RCCEx_PeriphCLKConfig+0x2c>
      }
    }
  }

  /*---------------------------- RTC configuration ---------------------------*/
  if(((PeriphClkInit->PeriphClockSelection) & RCC_PERIPHCLK_RTC) == (RCC_PERIPHCLK_RTC))
 80027b6:	6823      	ldr	r3, [r4, #0]
 80027b8:	f013 0f02 	tst.w	r3, #2
 80027bc:	d138      	bne.n	8002830 <HAL_RCCEx_PeriphCLKConfig+0x88>
    }
    __HAL_RCC_RTC_CONFIG(PeriphClkInit->RTCClockSelection);
  }
#if defined(STM32F401xC) || defined(STM32F401xE) || defined(STM32F411xE)
  /*---------------------------- TIM configuration ---------------------------*/
  if(((PeriphClkInit->PeriphClockSelection) & RCC_PERIPHCLK_TIM) == (RCC_PERIPHCLK_TIM))
 80027be:	6823      	ldr	r3, [r4, #0]
 80027c0:	f013 0f08 	tst.w	r3, #8
 80027c4:	f000 809b 	beq.w	80028fe <HAL_RCCEx_PeriphCLKConfig+0x156>
  {
    __HAL_RCC_TIMCLKPRESCALER(PeriphClkInit->TIMPresSelection);
 80027c8:	7d22      	ldrb	r2, [r4, #20]
 80027ca:	4b4e      	ldr	r3, [pc, #312]	; (8002904 <HAL_RCCEx_PeriphCLKConfig+0x15c>)
 80027cc:	601a      	str	r2, [r3, #0]
  }
#endif /* STM32F401xC || STM32F401xE || STM32F411xE */
  return HAL_OK;
 80027ce:	2000      	movs	r0, #0
}
 80027d0:	b003      	add	sp, #12
 80027d2:	bd30      	pop	{r4, r5, pc}
    __HAL_RCC_PLLI2S_DISABLE();
 80027d4:	4b4c      	ldr	r3, [pc, #304]	; (8002908 <HAL_RCCEx_PeriphCLKConfig+0x160>)
 80027d6:	2200      	movs	r2, #0
 80027d8:	601a      	str	r2, [r3, #0]
    tickstart = HAL_GetTick();
 80027da:	f7fe fdd3 	bl	8001384 <HAL_GetTick>
 80027de:	4605      	mov	r5, r0
    while(__HAL_RCC_GET_FLAG(RCC_FLAG_PLLI2SRDY)  != RESET)
 80027e0:	4b4a      	ldr	r3, [pc, #296]	; (800290c <HAL_RCCEx_PeriphCLKConfig+0x164>)
 80027e2:	681b      	ldr	r3, [r3, #0]
 80027e4:	f013 6f00 	tst.w	r3, #134217728	; 0x8000000
 80027e8:	d006      	beq.n	80027f8 <HAL_RCCEx_PeriphCLKConfig+0x50>
      if((HAL_GetTick() - tickstart ) > PLLI2S_TIMEOUT_VALUE)
 80027ea:	f7fe fdcb 	bl	8001384 <HAL_GetTick>
 80027ee:	1b43      	subs	r3, r0, r5
 80027f0:	2b02      	cmp	r3, #2
 80027f2:	d9f5      	bls.n	80027e0 <HAL_RCCEx_PeriphCLKConfig+0x38>
        return HAL_TIMEOUT;
 80027f4:	2003      	movs	r0, #3
 80027f6:	e7eb      	b.n	80027d0 <HAL_RCCEx_PeriphCLKConfig+0x28>
    __HAL_RCC_PLLI2S_I2SCLK_CONFIG(PeriphClkInit->PLLI2S.PLLI2SM, PeriphClkInit->PLLI2S.PLLI2SN, PeriphClkInit->PLLI2S.PLLI2SR);
 80027f8:	6863      	ldr	r3, [r4, #4]
 80027fa:	68a2      	ldr	r2, [r4, #8]
 80027fc:	ea43 1382 	orr.w	r3, r3, r2, lsl #6
 8002800:	68e2      	ldr	r2, [r4, #12]
 8002802:	ea43 7302 	orr.w	r3, r3, r2, lsl #28
 8002806:	4a41      	ldr	r2, [pc, #260]	; (800290c <HAL_RCCEx_PeriphCLKConfig+0x164>)
 8002808:	f8c2 3084 	str.w	r3, [r2, #132]	; 0x84
    __HAL_RCC_PLLI2S_ENABLE();
 800280c:	4b3e      	ldr	r3, [pc, #248]	; (8002908 <HAL_RCCEx_PeriphCLKConfig+0x160>)
 800280e:	2201      	movs	r2, #1
 8002810:	601a      	str	r2, [r3, #0]
    tickstart = HAL_GetTick();
 8002812:	f7fe fdb7 	bl	8001384 <HAL_GetTick>
 8002816:	4605      	mov	r5, r0
    while(__HAL_RCC_GET_FLAG(RCC_FLAG_PLLI2SRDY)  == RESET)
 8002818:	4b3c      	ldr	r3, [pc, #240]	; (800290c <HAL_RCCEx_PeriphCLKConfig+0x164>)
 800281a:	681b      	ldr	r3, [r3, #0]
 800281c:	f013 6f00 	tst.w	r3, #134217728	; 0x8000000
 8002820:	d1c9      	bne.n	80027b6 <HAL_RCCEx_PeriphCLKConfig+0xe>
      if((HAL_GetTick() - tickstart ) > PLLI2S_TIMEOUT_VALUE)
 8002822:	f7fe fdaf 	bl	8001384 <HAL_GetTick>
 8002826:	1b40      	subs	r0, r0, r5
 8002828:	2802      	cmp	r0, #2
 800282a:	d9f5      	bls.n	8002818 <HAL_RCCEx_PeriphCLKConfig+0x70>
        return HAL_TIMEOUT;
 800282c:	2003      	movs	r0, #3
 800282e:	e7cf      	b.n	80027d0 <HAL_RCCEx_PeriphCLKConfig+0x28>
    __HAL_RCC_PWR_CLK_ENABLE();
 8002830:	2300      	movs	r3, #0
 8002832:	9301      	str	r3, [sp, #4]
 8002834:	4b35      	ldr	r3, [pc, #212]	; (800290c <HAL_RCCEx_PeriphCLKConfig+0x164>)
 8002836:	6c1a      	ldr	r2, [r3, #64]	; 0x40
 8002838:	f042 5280 	orr.w	r2, r2, #268435456	; 0x10000000
 800283c:	641a      	str	r2, [r3, #64]	; 0x40
 800283e:	6c1b      	ldr	r3, [r3, #64]	; 0x40
 8002840:	f003 5380 	and.w	r3, r3, #268435456	; 0x10000000
 8002844:	9301      	str	r3, [sp, #4]
 8002846:	9b01      	ldr	r3, [sp, #4]
    PWR->CR |= PWR_CR_DBP;
 8002848:	4a31      	ldr	r2, [pc, #196]	; (8002910 <HAL_RCCEx_PeriphCLKConfig+0x168>)
 800284a:	6813      	ldr	r3, [r2, #0]
 800284c:	f443 7380 	orr.w	r3, r3, #256	; 0x100
 8002850:	6013      	str	r3, [r2, #0]
    tickstart = HAL_GetTick();
 8002852:	f7fe fd97 	bl	8001384 <HAL_GetTick>
 8002856:	4605      	mov	r5, r0
    while((PWR->CR & PWR_CR_DBP) == RESET)
 8002858:	4b2d      	ldr	r3, [pc, #180]	; (8002910 <HAL_RCCEx_PeriphCLKConfig+0x168>)
 800285a:	681b      	ldr	r3, [r3, #0]
 800285c:	f413 7f80 	tst.w	r3, #256	; 0x100
 8002860:	d106      	bne.n	8002870 <HAL_RCCEx_PeriphCLKConfig+0xc8>
      if((HAL_GetTick() - tickstart ) > RCC_DBP_TIMEOUT_VALUE)
 8002862:	f7fe fd8f 	bl	8001384 <HAL_GetTick>
 8002866:	1b43      	subs	r3, r0, r5
 8002868:	2b02      	cmp	r3, #2
 800286a:	d9f5      	bls.n	8002858 <HAL_RCCEx_PeriphCLKConfig+0xb0>
        return HAL_TIMEOUT;
 800286c:	2003      	movs	r0, #3
 800286e:	e7af      	b.n	80027d0 <HAL_RCCEx_PeriphCLKConfig+0x28>
    tmpreg1 = (RCC->BDCR & RCC_BDCR_RTCSEL);
 8002870:	4b26      	ldr	r3, [pc, #152]	; (800290c <HAL_RCCEx_PeriphCLKConfig+0x164>)
 8002872:	6f1b      	ldr	r3, [r3, #112]	; 0x70
    if((tmpreg1 != 0x00000000U) && ((tmpreg1) != (PeriphClkInit->RTCClockSelection & RCC_BDCR_RTCSEL)))
 8002874:	f413 7340 	ands.w	r3, r3, #768	; 0x300
 8002878:	d012      	beq.n	80028a0 <HAL_RCCEx_PeriphCLKConfig+0xf8>
 800287a:	6922      	ldr	r2, [r4, #16]
 800287c:	f402 7240 	and.w	r2, r2, #768	; 0x300
 8002880:	429a      	cmp	r2, r3
 8002882:	d00d      	beq.n	80028a0 <HAL_RCCEx_PeriphCLKConfig+0xf8>
      tmpreg1 = (RCC->BDCR & ~(RCC_BDCR_RTCSEL));
 8002884:	4b21      	ldr	r3, [pc, #132]	; (800290c <HAL_RCCEx_PeriphCLKConfig+0x164>)
 8002886:	6f1a      	ldr	r2, [r3, #112]	; 0x70
 8002888:	f422 7240 	bic.w	r2, r2, #768	; 0x300
      __HAL_RCC_BACKUPRESET_FORCE();
 800288c:	4921      	ldr	r1, [pc, #132]	; (8002914 <HAL_RCCEx_PeriphCLKConfig+0x16c>)
 800288e:	2001      	movs	r0, #1
 8002890:	6008      	str	r0, [r1, #0]
      __HAL_RCC_BACKUPRESET_RELEASE();
 8002892:	2000      	movs	r0, #0
 8002894:	6008      	str	r0, [r1, #0]
      RCC->BDCR = tmpreg1;
 8002896:	671a      	str	r2, [r3, #112]	; 0x70
      if(HAL_IS_BIT_SET(RCC->BDCR, RCC_BDCR_LSEON))
 8002898:	6f1b      	ldr	r3, [r3, #112]	; 0x70
 800289a:	f013 0f01 	tst.w	r3, #1
 800289e:	d112      	bne.n	80028c6 <HAL_RCCEx_PeriphCLKConfig+0x11e>
    __HAL_RCC_RTC_CONFIG(PeriphClkInit->RTCClockSelection);
 80028a0:	6923      	ldr	r3, [r4, #16]
 80028a2:	f403 7240 	and.w	r2, r3, #768	; 0x300
 80028a6:	f5b2 7f40 	cmp.w	r2, #768	; 0x300
 80028aa:	d01d      	beq.n	80028e8 <HAL_RCCEx_PeriphCLKConfig+0x140>
 80028ac:	4a17      	ldr	r2, [pc, #92]	; (800290c <HAL_RCCEx_PeriphCLKConfig+0x164>)
 80028ae:	6893      	ldr	r3, [r2, #8]
 80028b0:	f423 13f8 	bic.w	r3, r3, #2031616	; 0x1f0000
 80028b4:	6093      	str	r3, [r2, #8]
 80028b6:	4915      	ldr	r1, [pc, #84]	; (800290c <HAL_RCCEx_PeriphCLKConfig+0x164>)
 80028b8:	6f0b      	ldr	r3, [r1, #112]	; 0x70
 80028ba:	6922      	ldr	r2, [r4, #16]
 80028bc:	f3c2 020b 	ubfx	r2, r2, #0, #12
 80028c0:	4313      	orrs	r3, r2
 80028c2:	670b      	str	r3, [r1, #112]	; 0x70
 80028c4:	e77b      	b.n	80027be <HAL_RCCEx_PeriphCLKConfig+0x16>
        tickstart = HAL_GetTick();
 80028c6:	f7fe fd5d 	bl	8001384 <HAL_GetTick>
 80028ca:	4605      	mov	r5, r0
        while(__HAL_RCC_GET_FLAG(RCC_FLAG_LSERDY) == RESET)
 80028cc:	4b0f      	ldr	r3, [pc, #60]	; (800290c <HAL_RCCEx_PeriphCLKConfig+0x164>)
 80028ce:	6f1b      	ldr	r3, [r3, #112]	; 0x70
 80028d0:	f013 0f02 	tst.w	r3, #2
 80028d4:	d1e4      	bne.n	80028a0 <HAL_RCCEx_PeriphCLKConfig+0xf8>
          if((HAL_GetTick() - tickstart ) > RCC_LSE_TIMEOUT_VALUE)
 80028d6:	f7fe fd55 	bl	8001384 <HAL_GetTick>
 80028da:	1b40      	subs	r0, r0, r5
 80028dc:	f241 3388 	movw	r3, #5000	; 0x1388
 80028e0:	4298      	cmp	r0, r3
 80028e2:	d9f3      	bls.n	80028cc <HAL_RCCEx_PeriphCLKConfig+0x124>
            return HAL_TIMEOUT;
 80028e4:	2003      	movs	r0, #3
 80028e6:	e773      	b.n	80027d0 <HAL_RCCEx_PeriphCLKConfig+0x28>
    __HAL_RCC_RTC_CONFIG(PeriphClkInit->RTCClockSelection);
 80028e8:	4908      	ldr	r1, [pc, #32]	; (800290c <HAL_RCCEx_PeriphCLKConfig+0x164>)
 80028ea:	688a      	ldr	r2, [r1, #8]
 80028ec:	f422 12f8 	bic.w	r2, r2, #2031616	; 0x1f0000
 80028f0:	f023 4370 	bic.w	r3, r3, #4026531840	; 0xf0000000
 80028f4:	f423 7340 	bic.w	r3, r3, #768	; 0x300
 80028f8:	4313      	orrs	r3, r2
 80028fa:	608b      	str	r3, [r1, #8]
 80028fc:	e7db      	b.n	80028b6 <HAL_RCCEx_PeriphCLKConfig+0x10e>
  return HAL_OK;
 80028fe:	2000      	movs	r0, #0
 8002900:	e766      	b.n	80027d0 <HAL_RCCEx_PeriphCLKConfig+0x28>
 8002902:	bf00      	nop
 8002904:	424711e0 	.word	0x424711e0
 8002908:	42470068 	.word	0x42470068
 800290c:	40023800 	.word	0x40023800
 8002910:	40007000 	.word	0x40007000
 8002914:	42470e40 	.word	0x42470e40

08002918 <HAL_RCCEx_GetPeriphCLKFreq>:
  /* This variable used to store the VCO Input (value in Hz) */
  uint32_t vcoinput = 0U;
  uint32_t srcclk = 0U;
  /* This variable used to store the VCO Output (value in Hz) */
  uint32_t vcooutput = 0U;
  switch (PeriphClk)
 8002918:	2801      	cmp	r0, #1
 800291a:	d001      	beq.n	8002920 <HAL_RCCEx_GetPeriphCLKFreq+0x8>
  uint32_t frequency = 0U;
 800291c:	2000      	movs	r0, #0
 800291e:	4770      	bx	lr
  {
  case RCC_PERIPHCLK_I2S:
    {
      /* Get the current I2S source */
      srcclk = __HAL_RCC_GET_I2S_SOURCE();
 8002920:	4b17      	ldr	r3, [pc, #92]	; (8002980 <HAL_RCCEx_GetPeriphCLKFreq+0x68>)
 8002922:	689b      	ldr	r3, [r3, #8]
      switch (srcclk)
 8002924:	f413 0300 	ands.w	r3, r3, #8388608	; 0x800000
 8002928:	d003      	beq.n	8002932 <HAL_RCCEx_GetPeriphCLKFreq+0x1a>
 800292a:	2b01      	cmp	r3, #1
 800292c:	d125      	bne.n	800297a <HAL_RCCEx_GetPeriphCLKFreq+0x62>
 800292e:	4815      	ldr	r0, [pc, #84]	; (8002984 <HAL_RCCEx_GetPeriphCLKFreq+0x6c>)
 8002930:	4770      	bx	lr
      case RCC_I2SCLKSOURCE_PLLI2S:
        {
#if defined(STM32F411xE)
          /* Configure the PLLI2S division factor */
          /* PLLI2S_VCO Input  = PLL_SOURCE/PLLI2SM */
          if((RCC->PLLCFGR & RCC_PLLCFGR_PLLSRC) == RCC_PLLSOURCE_HSE)
 8002932:	4b13      	ldr	r3, [pc, #76]	; (8002980 <HAL_RCCEx_GetPeriphCLKFreq+0x68>)
 8002934:	685b      	ldr	r3, [r3, #4]
 8002936:	f413 0f80 	tst.w	r3, #4194304	; 0x400000
 800293a:	d015      	beq.n	8002968 <HAL_RCCEx_GetPeriphCLKFreq+0x50>
          {
            /* Get the I2S source clock value */
            vcoinput = (uint32_t)(HSE_VALUE / (uint32_t)(RCC->PLLI2SCFGR & RCC_PLLI2SCFGR_PLLI2SM));
 800293c:	4b10      	ldr	r3, [pc, #64]	; (8002980 <HAL_RCCEx_GetPeriphCLKFreq+0x68>)
 800293e:	f8d3 3084 	ldr.w	r3, [r3, #132]	; 0x84
 8002942:	f003 033f 	and.w	r3, r3, #63	; 0x3f
 8002946:	4810      	ldr	r0, [pc, #64]	; (8002988 <HAL_RCCEx_GetPeriphCLKFreq+0x70>)
 8002948:	fbb0 f0f3 	udiv	r0, r0, r3
            /* Get the I2S source clock value */
            vcoinput = (uint32_t)(HSI_VALUE / (uint32_t)(RCC->PLLCFGR & RCC_PLLCFGR_PLLM));
          }
#endif /* STM32F411xE */
          /* PLLI2S_VCO Output = PLLI2S_VCO Input * PLLI2SN */
          vcooutput = (uint32_t)(vcoinput * (((RCC->PLLI2SCFGR & RCC_PLLI2SCFGR_PLLI2SN) >> 6U) & (RCC_PLLI2SCFGR_PLLI2SN >> 6U)));
 800294c:	4a0c      	ldr	r2, [pc, #48]	; (8002980 <HAL_RCCEx_GetPeriphCLKFreq+0x68>)
 800294e:	f8d2 3084 	ldr.w	r3, [r2, #132]	; 0x84
 8002952:	f3c3 1388 	ubfx	r3, r3, #6, #9
 8002956:	fb00 f003 	mul.w	r0, r0, r3
          /* I2S_CLK = PLLI2S_VCO Output/PLLI2SR */
          frequency = (uint32_t)(vcooutput /(((RCC->PLLI2SCFGR & RCC_PLLI2SCFGR_PLLI2SR) >> 28U) & (RCC_PLLI2SCFGR_PLLI2SR >> 28U)));
 800295a:	f8d2 3084 	ldr.w	r3, [r2, #132]	; 0x84
 800295e:	f3c3 7302 	ubfx	r3, r3, #28, #3
 8002962:	fbb0 f0f3 	udiv	r0, r0, r3
          break;
 8002966:	4770      	bx	lr
            vcoinput = (uint32_t)(HSI_VALUE / (uint32_t)(RCC->PLLI2SCFGR & RCC_PLLI2SCFGR_PLLI2SM));
 8002968:	4b05      	ldr	r3, [pc, #20]	; (8002980 <HAL_RCCEx_GetPeriphCLKFreq+0x68>)
 800296a:	f8d3 3084 	ldr.w	r3, [r3, #132]	; 0x84
 800296e:	f003 033f 	and.w	r3, r3, #63	; 0x3f
 8002972:	4806      	ldr	r0, [pc, #24]	; (800298c <HAL_RCCEx_GetPeriphCLKFreq+0x74>)
 8002974:	fbb0 f0f3 	udiv	r0, r0, r3
 8002978:	e7e8      	b.n	800294c <HAL_RCCEx_GetPeriphCLKFreq+0x34>
        }
        /* Clock not enabled for I2S*/
      default:
        {
          frequency = 0U;
 800297a:	2000      	movs	r0, #0
      }
      break;
    }
  }
  return frequency;
}
 800297c:	4770      	bx	lr
 800297e:	bf00      	nop
 8002980:	40023800 	.word	0x40023800
 8002984:	00bb8000 	.word	0x00bb8000
 8002988:	017d7840 	.word	0x017d7840
 800298c:	00f42400 	.word	0x00f42400

08002990 <UART_EndRxTransfer>:
  * @retval None
  */
static void UART_EndRxTransfer(UART_HandleTypeDef *huart)
{
  /* Disable RXNE, PE and ERR (Frame error, noise error, overrun error) interrupts */
  CLEAR_BIT(huart->Instance->CR1, (USART_CR1_RXNEIE | USART_CR1_PEIE));
 8002990:	6802      	ldr	r2, [r0, #0]
 8002992:	68d3      	ldr	r3, [r2, #12]
 8002994:	f423 7390 	bic.w	r3, r3, #288	; 0x120
 8002998:	60d3      	str	r3, [r2, #12]
  CLEAR_BIT(huart->Instance->CR3, USART_CR3_EIE);
 800299a:	6802      	ldr	r2, [r0, #0]
 800299c:	6953      	ldr	r3, [r2, #20]
 800299e:	f023 0301 	bic.w	r3, r3, #1
 80029a2:	6153      	str	r3, [r2, #20]

  /* At end of Rx process, restore huart->RxState to Ready */
  huart->RxState = HAL_UART_STATE_READY;
 80029a4:	2320      	movs	r3, #32
 80029a6:	f880 303a 	strb.w	r3, [r0, #58]	; 0x3a
}
 80029aa:	4770      	bx	lr

080029ac <UART_Transmit_IT>:
static HAL_StatusTypeDef UART_Transmit_IT(UART_HandleTypeDef *huart)
{
  uint16_t *tmp;

  /* Check that a Tx process is ongoing */
  if (huart->gState == HAL_UART_STATE_BUSY_TX)
 80029ac:	f890 3039 	ldrb.w	r3, [r0, #57]	; 0x39
 80029b0:	b2db      	uxtb	r3, r3
 80029b2:	2b21      	cmp	r3, #33	; 0x21
 80029b4:	d001      	beq.n	80029ba <UART_Transmit_IT+0xe>
    }
    return HAL_OK;
  }
  else
  {
    return HAL_BUSY;
 80029b6:	2002      	movs	r0, #2
  }
}
 80029b8:	4770      	bx	lr
    if (huart->Init.WordLength == UART_WORDLENGTH_9B)
 80029ba:	6883      	ldr	r3, [r0, #8]
 80029bc:	f5b3 5f80 	cmp.w	r3, #4096	; 0x1000
 80029c0:	d017      	beq.n	80029f2 <UART_Transmit_IT+0x46>
      huart->Instance->DR = (uint8_t)(*huart->pTxBuffPtr++ & (uint8_t)0x00FF);
 80029c2:	6a03      	ldr	r3, [r0, #32]
 80029c4:	1c5a      	adds	r2, r3, #1
 80029c6:	6202      	str	r2, [r0, #32]
 80029c8:	781a      	ldrb	r2, [r3, #0]
 80029ca:	6803      	ldr	r3, [r0, #0]
 80029cc:	605a      	str	r2, [r3, #4]
    if (--huart->TxXferCount == 0U)
 80029ce:	8cc3      	ldrh	r3, [r0, #38]	; 0x26
 80029d0:	b29b      	uxth	r3, r3
 80029d2:	3b01      	subs	r3, #1
 80029d4:	b29b      	uxth	r3, r3
 80029d6:	84c3      	strh	r3, [r0, #38]	; 0x26
 80029d8:	b94b      	cbnz	r3, 80029ee <UART_Transmit_IT+0x42>
      __HAL_UART_DISABLE_IT(huart, UART_IT_TXE);
 80029da:	6802      	ldr	r2, [r0, #0]
 80029dc:	68d3      	ldr	r3, [r2, #12]
 80029de:	f023 0380 	bic.w	r3, r3, #128	; 0x80
 80029e2:	60d3      	str	r3, [r2, #12]
      __HAL_UART_ENABLE_IT(huart, UART_IT_TC);
 80029e4:	6802      	ldr	r2, [r0, #0]
 80029e6:	68d3      	ldr	r3, [r2, #12]
 80029e8:	f043 0340 	orr.w	r3, r3, #64	; 0x40
 80029ec:	60d3      	str	r3, [r2, #12]
    return HAL_OK;
 80029ee:	2000      	movs	r0, #0
 80029f0:	4770      	bx	lr
      tmp = (uint16_t *) huart->pTxBuffPtr;
 80029f2:	6a03      	ldr	r3, [r0, #32]
      huart->Instance->DR = (uint16_t)(*tmp & (uint16_t)0x01FF);
 80029f4:	881b      	ldrh	r3, [r3, #0]
 80029f6:	6802      	ldr	r2, [r0, #0]
 80029f8:	f3c3 0308 	ubfx	r3, r3, #0, #9
 80029fc:	6053      	str	r3, [r2, #4]
      if (huart->Init.Parity == UART_PARITY_NONE)
 80029fe:	6903      	ldr	r3, [r0, #16]
 8002a00:	b91b      	cbnz	r3, 8002a0a <UART_Transmit_IT+0x5e>
        huart->pTxBuffPtr += 2U;
 8002a02:	6a03      	ldr	r3, [r0, #32]
 8002a04:	3302      	adds	r3, #2
 8002a06:	6203      	str	r3, [r0, #32]
 8002a08:	e7e1      	b.n	80029ce <UART_Transmit_IT+0x22>
        huart->pTxBuffPtr += 1U;
 8002a0a:	6a03      	ldr	r3, [r0, #32]
 8002a0c:	3301      	adds	r3, #1
 8002a0e:	6203      	str	r3, [r0, #32]
 8002a10:	e7dd      	b.n	80029ce <UART_Transmit_IT+0x22>
	...

08002a14 <UART_SetConfig>:
  * @param  huart  Pointer to a UART_HandleTypeDef structure that contains
  *                the configuration information for the specified UART module.
  * @retval None
  */
static void UART_SetConfig(UART_HandleTypeDef *huart)
{
 8002a14:	b570      	push	{r4, r5, r6, lr}
 8002a16:	4604      	mov	r4, r0
  assert_param(IS_UART_MODE(huart->Init.Mode));

  /*-------------------------- USART CR2 Configuration -----------------------*/
  /* Configure the UART Stop Bits: Set STOP[13:12] bits
     according to huart->Init.StopBits value */
  MODIFY_REG(huart->Instance->CR2, USART_CR2_STOP, huart->Init.StopBits);
 8002a18:	6802      	ldr	r2, [r0, #0]
 8002a1a:	6913      	ldr	r3, [r2, #16]
 8002a1c:	f423 5340 	bic.w	r3, r3, #12288	; 0x3000
 8002a20:	68c1      	ldr	r1, [r0, #12]
 8002a22:	430b      	orrs	r3, r1
 8002a24:	6113      	str	r3, [r2, #16]
     Set the M bits according to huart->Init.WordLength value
     Set PCE and PS bits according to huart->Init.Parity value
     Set TE and RE bits according to huart->Init.Mode value
     Set OVER8 bit according to huart->Init.OverSampling value */

  tmpreg = (uint32_t)huart->Init.WordLength | huart->Init.Parity | huart->Init.Mode | huart->Init.OverSampling;
 8002a26:	6883      	ldr	r3, [r0, #8]
 8002a28:	6902      	ldr	r2, [r0, #16]
 8002a2a:	4313      	orrs	r3, r2
 8002a2c:	6942      	ldr	r2, [r0, #20]
 8002a2e:	4313      	orrs	r3, r2
 8002a30:	69c2      	ldr	r2, [r0, #28]
 8002a32:	431a      	orrs	r2, r3
  MODIFY_REG(huart->Instance->CR1,
 8002a34:	6801      	ldr	r1, [r0, #0]
 8002a36:	68cb      	ldr	r3, [r1, #12]
 8002a38:	f423 4316 	bic.w	r3, r3, #38400	; 0x9600
 8002a3c:	f023 030c 	bic.w	r3, r3, #12
 8002a40:	4313      	orrs	r3, r2
 8002a42:	60cb      	str	r3, [r1, #12]
             (uint32_t)(USART_CR1_M | USART_CR1_PCE | USART_CR1_PS | USART_CR1_TE | USART_CR1_RE | USART_CR1_OVER8),
             tmpreg);

  /*-------------------------- USART CR3 Configuration -----------------------*/
  /* Configure the UART HFC: Set CTSE and RTSE bits according to huart->Init.HwFlowCtl value */
  MODIFY_REG(huart->Instance->CR3, (USART_CR3_RTSE | USART_CR3_CTSE), huart->Init.HwFlowCtl);
 8002a44:	6802      	ldr	r2, [r0, #0]
 8002a46:	6953      	ldr	r3, [r2, #20]
 8002a48:	f423 7340 	bic.w	r3, r3, #768	; 0x300
 8002a4c:	6981      	ldr	r1, [r0, #24]
 8002a4e:	430b      	orrs	r3, r1
 8002a50:	6153      	str	r3, [r2, #20]

  /* Check the Over Sampling */
  if (huart->Init.OverSampling == UART_OVERSAMPLING_8)
 8002a52:	69c3      	ldr	r3, [r0, #28]
 8002a54:	f5b3 4f00 	cmp.w	r3, #32768	; 0x8000
 8002a58:	d036      	beq.n	8002ac8 <UART_SetConfig+0xb4>
    {
      pclk = HAL_RCC_GetPCLK2Freq();
      huart->Instance->BRR = UART_BRR_SAMPLING16(pclk, huart->Init.BaudRate);
    }
#elif defined(USART6)
    if ((huart->Instance == USART1) || (huart->Instance == USART6))
 8002a5a:	6803      	ldr	r3, [r0, #0]
 8002a5c:	4a65      	ldr	r2, [pc, #404]	; (8002bf4 <UART_SetConfig+0x1e0>)
 8002a5e:	4293      	cmp	r3, r2
 8002a60:	f000 809a 	beq.w	8002b98 <UART_SetConfig+0x184>
 8002a64:	f502 6280 	add.w	r2, r2, #1024	; 0x400
 8002a68:	4293      	cmp	r3, r2
 8002a6a:	f000 8095 	beq.w	8002b98 <UART_SetConfig+0x184>
      huart->Instance->BRR = UART_BRR_SAMPLING16(pclk, huart->Init.BaudRate);
    }
#endif /* USART6 */
    else
    {
      pclk = HAL_RCC_GetPCLK1Freq();
 8002a6e:	f7ff fe7b 	bl	8002768 <HAL_RCC_GetPCLK1Freq>
      huart->Instance->BRR = UART_BRR_SAMPLING16(pclk, huart->Init.BaudRate);
 8002a72:	2600      	movs	r6, #0
 8002a74:	1805      	adds	r5, r0, r0
 8002a76:	eb46 0106 	adc.w	r1, r6, r6
 8002a7a:	182d      	adds	r5, r5, r0
 8002a7c:	eb46 0101 	adc.w	r1, r6, r1
 8002a80:	00cb      	lsls	r3, r1, #3
 8002a82:	ea43 7355 	orr.w	r3, r3, r5, lsr #29
 8002a86:	00ea      	lsls	r2, r5, #3
 8002a88:	4615      	mov	r5, r2
 8002a8a:	4619      	mov	r1, r3
 8002a8c:	6863      	ldr	r3, [r4, #4]
 8002a8e:	009a      	lsls	r2, r3, #2
 8002a90:	0f9b      	lsrs	r3, r3, #30
 8002a92:	1828      	adds	r0, r5, r0
 8002a94:	eb46 0101 	adc.w	r1, r6, r1
 8002a98:	f7fd fed4 	bl	8000844 <__aeabi_uldivmod>
 8002a9c:	4d56      	ldr	r5, [pc, #344]	; (8002bf8 <UART_SetConfig+0x1e4>)
 8002a9e:	fba5 3200 	umull	r3, r2, r5, r0
 8002aa2:	0951      	lsrs	r1, r2, #5
 8002aa4:	2364      	movs	r3, #100	; 0x64
 8002aa6:	fb03 0311 	mls	r3, r3, r1, r0
 8002aaa:	011b      	lsls	r3, r3, #4
 8002aac:	3332      	adds	r3, #50	; 0x32
 8002aae:	fba5 2303 	umull	r2, r3, r5, r3
 8002ab2:	095b      	lsrs	r3, r3, #5
 8002ab4:	f003 02f0 	and.w	r2, r3, #240	; 0xf0
 8002ab8:	eb02 1201 	add.w	r2, r2, r1, lsl #4
 8002abc:	f003 030f 	and.w	r3, r3, #15
 8002ac0:	6821      	ldr	r1, [r4, #0]
 8002ac2:	4413      	add	r3, r2
 8002ac4:	608b      	str	r3, [r1, #8]
    }
  }
}
 8002ac6:	e093      	b.n	8002bf0 <UART_SetConfig+0x1dc>
    if ((huart->Instance == USART1) || (huart->Instance == USART6))
 8002ac8:	6803      	ldr	r3, [r0, #0]
 8002aca:	4a4a      	ldr	r2, [pc, #296]	; (8002bf4 <UART_SetConfig+0x1e0>)
 8002acc:	4293      	cmp	r3, r2
 8002ace:	d033      	beq.n	8002b38 <UART_SetConfig+0x124>
 8002ad0:	f502 6280 	add.w	r2, r2, #1024	; 0x400
 8002ad4:	4293      	cmp	r3, r2
 8002ad6:	d02f      	beq.n	8002b38 <UART_SetConfig+0x124>
      pclk = HAL_RCC_GetPCLK1Freq();
 8002ad8:	f7ff fe46 	bl	8002768 <HAL_RCC_GetPCLK1Freq>
      huart->Instance->BRR = UART_BRR_SAMPLING8(pclk, huart->Init.BaudRate);
 8002adc:	2600      	movs	r6, #0
 8002ade:	1805      	adds	r5, r0, r0
 8002ae0:	eb46 0106 	adc.w	r1, r6, r6
 8002ae4:	182d      	adds	r5, r5, r0
 8002ae6:	eb46 0101 	adc.w	r1, r6, r1
 8002aea:	00cb      	lsls	r3, r1, #3
 8002aec:	ea43 7355 	orr.w	r3, r3, r5, lsr #29
 8002af0:	00ea      	lsls	r2, r5, #3
 8002af2:	4615      	mov	r5, r2
 8002af4:	4619      	mov	r1, r3
 8002af6:	6862      	ldr	r2, [r4, #4]
 8002af8:	4633      	mov	r3, r6
 8002afa:	1892      	adds	r2, r2, r2
 8002afc:	eb46 0303 	adc.w	r3, r6, r3
 8002b00:	1828      	adds	r0, r5, r0
 8002b02:	eb46 0101 	adc.w	r1, r6, r1
 8002b06:	f7fd fe9d 	bl	8000844 <__aeabi_uldivmod>
 8002b0a:	4d3b      	ldr	r5, [pc, #236]	; (8002bf8 <UART_SetConfig+0x1e4>)
 8002b0c:	fba5 3200 	umull	r3, r2, r5, r0
 8002b10:	0951      	lsrs	r1, r2, #5
 8002b12:	2364      	movs	r3, #100	; 0x64
 8002b14:	fb03 0311 	mls	r3, r3, r1, r0
 8002b18:	00db      	lsls	r3, r3, #3
 8002b1a:	3332      	adds	r3, #50	; 0x32
 8002b1c:	fba5 2303 	umull	r2, r3, r5, r3
 8002b20:	095b      	lsrs	r3, r3, #5
 8002b22:	005a      	lsls	r2, r3, #1
 8002b24:	f402 72f8 	and.w	r2, r2, #496	; 0x1f0
 8002b28:	eb02 1201 	add.w	r2, r2, r1, lsl #4
 8002b2c:	f003 0307 	and.w	r3, r3, #7
 8002b30:	6821      	ldr	r1, [r4, #0]
 8002b32:	4413      	add	r3, r2
 8002b34:	608b      	str	r3, [r1, #8]
 8002b36:	e05b      	b.n	8002bf0 <UART_SetConfig+0x1dc>
      pclk = HAL_RCC_GetPCLK2Freq();
 8002b38:	f7ff fe26 	bl	8002788 <HAL_RCC_GetPCLK2Freq>
      huart->Instance->BRR = UART_BRR_SAMPLING8(pclk, huart->Init.BaudRate);
 8002b3c:	2600      	movs	r6, #0
 8002b3e:	1805      	adds	r5, r0, r0
 8002b40:	eb46 0106 	adc.w	r1, r6, r6
 8002b44:	182d      	adds	r5, r5, r0
 8002b46:	eb46 0101 	adc.w	r1, r6, r1
 8002b4a:	00cb      	lsls	r3, r1, #3
 8002b4c:	ea43 7355 	orr.w	r3, r3, r5, lsr #29
 8002b50:	00ea      	lsls	r2, r5, #3
 8002b52:	4615      	mov	r5, r2
 8002b54:	4619      	mov	r1, r3
 8002b56:	6862      	ldr	r2, [r4, #4]
 8002b58:	4633      	mov	r3, r6
 8002b5a:	1892      	adds	r2, r2, r2
 8002b5c:	eb46 0303 	adc.w	r3, r6, r3
 8002b60:	1828      	adds	r0, r5, r0
 8002b62:	eb46 0101 	adc.w	r1, r6, r1
 8002b66:	f7fd fe6d 	bl	8000844 <__aeabi_uldivmod>
 8002b6a:	4d23      	ldr	r5, [pc, #140]	; (8002bf8 <UART_SetConfig+0x1e4>)
 8002b6c:	fba5 3200 	umull	r3, r2, r5, r0
 8002b70:	0951      	lsrs	r1, r2, #5
 8002b72:	2364      	movs	r3, #100	; 0x64
 8002b74:	fb03 0311 	mls	r3, r3, r1, r0
 8002b78:	00db      	lsls	r3, r3, #3
 8002b7a:	3332      	adds	r3, #50	; 0x32
 8002b7c:	fba5 2303 	umull	r2, r3, r5, r3
 8002b80:	095b      	lsrs	r3, r3, #5
 8002b82:	005a      	lsls	r2, r3, #1
 8002b84:	f402 72f8 	and.w	r2, r2, #496	; 0x1f0
 8002b88:	eb02 1201 	add.w	r2, r2, r1, lsl #4
 8002b8c:	f003 0307 	and.w	r3, r3, #7
 8002b90:	6821      	ldr	r1, [r4, #0]
 8002b92:	4413      	add	r3, r2
 8002b94:	608b      	str	r3, [r1, #8]
 8002b96:	e02b      	b.n	8002bf0 <UART_SetConfig+0x1dc>
      pclk = HAL_RCC_GetPCLK2Freq();
 8002b98:	f7ff fdf6 	bl	8002788 <HAL_RCC_GetPCLK2Freq>
      huart->Instance->BRR = UART_BRR_SAMPLING16(pclk, huart->Init.BaudRate);
 8002b9c:	2600      	movs	r6, #0
 8002b9e:	1805      	adds	r5, r0, r0
 8002ba0:	eb46 0106 	adc.w	r1, r6, r6
 8002ba4:	182d      	adds	r5, r5, r0
 8002ba6:	eb46 0101 	adc.w	r1, r6, r1
 8002baa:	00cb      	lsls	r3, r1, #3
 8002bac:	ea43 7355 	orr.w	r3, r3, r5, lsr #29
 8002bb0:	00ea      	lsls	r2, r5, #3
 8002bb2:	4615      	mov	r5, r2
 8002bb4:	4619      	mov	r1, r3
 8002bb6:	6863      	ldr	r3, [r4, #4]
 8002bb8:	009a      	lsls	r2, r3, #2
 8002bba:	0f9b      	lsrs	r3, r3, #30
 8002bbc:	1828      	adds	r0, r5, r0
 8002bbe:	eb46 0101 	adc.w	r1, r6, r1
 8002bc2:	f7fd fe3f 	bl	8000844 <__aeabi_uldivmod>
 8002bc6:	4d0c      	ldr	r5, [pc, #48]	; (8002bf8 <UART_SetConfig+0x1e4>)
 8002bc8:	fba5 3200 	umull	r3, r2, r5, r0
 8002bcc:	0951      	lsrs	r1, r2, #5
 8002bce:	2364      	movs	r3, #100	; 0x64
 8002bd0:	fb03 0311 	mls	r3, r3, r1, r0
 8002bd4:	011b      	lsls	r3, r3, #4
 8002bd6:	3332      	adds	r3, #50	; 0x32
 8002bd8:	fba5 2303 	umull	r2, r3, r5, r3
 8002bdc:	095b      	lsrs	r3, r3, #5
 8002bde:	f003 02f0 	and.w	r2, r3, #240	; 0xf0
 8002be2:	eb02 1201 	add.w	r2, r2, r1, lsl #4
 8002be6:	f003 030f 	and.w	r3, r3, #15
 8002bea:	6821      	ldr	r1, [r4, #0]
 8002bec:	4413      	add	r3, r2
 8002bee:	608b      	str	r3, [r1, #8]
}
 8002bf0:	bd70      	pop	{r4, r5, r6, pc}
 8002bf2:	bf00      	nop
 8002bf4:	40011000 	.word	0x40011000
 8002bf8:	51eb851f 	.word	0x51eb851f

08002bfc <HAL_UART_Init>:
  if (huart == NULL)
 8002bfc:	b358      	cbz	r0, 8002c56 <HAL_UART_Init+0x5a>
{
 8002bfe:	b510      	push	{r4, lr}
 8002c00:	4604      	mov	r4, r0
  if (huart->gState == HAL_UART_STATE_RESET)
 8002c02:	f890 3039 	ldrb.w	r3, [r0, #57]	; 0x39
 8002c06:	b30b      	cbz	r3, 8002c4c <HAL_UART_Init+0x50>
  huart->gState = HAL_UART_STATE_BUSY;
 8002c08:	2324      	movs	r3, #36	; 0x24
 8002c0a:	f884 3039 	strb.w	r3, [r4, #57]	; 0x39
  __HAL_UART_DISABLE(huart);
 8002c0e:	6822      	ldr	r2, [r4, #0]
 8002c10:	68d3      	ldr	r3, [r2, #12]
 8002c12:	f423 5300 	bic.w	r3, r3, #8192	; 0x2000
 8002c16:	60d3      	str	r3, [r2, #12]
  UART_SetConfig(huart);
 8002c18:	4620      	mov	r0, r4
 8002c1a:	f7ff fefb 	bl	8002a14 <UART_SetConfig>
  CLEAR_BIT(huart->Instance->CR2, (USART_CR2_LINEN | USART_CR2_CLKEN));
 8002c1e:	6822      	ldr	r2, [r4, #0]
 8002c20:	6913      	ldr	r3, [r2, #16]
 8002c22:	f423 4390 	bic.w	r3, r3, #18432	; 0x4800
 8002c26:	6113      	str	r3, [r2, #16]
  CLEAR_BIT(huart->Instance->CR3, (USART_CR3_SCEN | USART_CR3_HDSEL | USART_CR3_IREN));
 8002c28:	6822      	ldr	r2, [r4, #0]
 8002c2a:	6953      	ldr	r3, [r2, #20]
 8002c2c:	f023 032a 	bic.w	r3, r3, #42	; 0x2a
 8002c30:	6153      	str	r3, [r2, #20]
  __HAL_UART_ENABLE(huart);
 8002c32:	6822      	ldr	r2, [r4, #0]
 8002c34:	68d3      	ldr	r3, [r2, #12]
 8002c36:	f443 5300 	orr.w	r3, r3, #8192	; 0x2000
 8002c3a:	60d3      	str	r3, [r2, #12]
  huart->ErrorCode = HAL_UART_ERROR_NONE;
 8002c3c:	2000      	movs	r0, #0
 8002c3e:	63e0      	str	r0, [r4, #60]	; 0x3c
  huart->gState = HAL_UART_STATE_READY;
 8002c40:	2320      	movs	r3, #32
 8002c42:	f884 3039 	strb.w	r3, [r4, #57]	; 0x39
  huart->RxState = HAL_UART_STATE_READY;
 8002c46:	f884 303a 	strb.w	r3, [r4, #58]	; 0x3a
}
 8002c4a:	bd10      	pop	{r4, pc}
    huart->Lock = HAL_UNLOCKED;
 8002c4c:	f880 3038 	strb.w	r3, [r0, #56]	; 0x38
    HAL_UART_MspInit(huart);
 8002c50:	f7fe fa78 	bl	8001144 <HAL_UART_MspInit>
 8002c54:	e7d8      	b.n	8002c08 <HAL_UART_Init+0xc>
    return HAL_ERROR;
 8002c56:	2001      	movs	r0, #1
}
 8002c58:	4770      	bx	lr

08002c5a <HAL_UART_Receive_IT>:
  if (huart->RxState == HAL_UART_STATE_READY)
 8002c5a:	f890 303a 	ldrb.w	r3, [r0, #58]	; 0x3a
 8002c5e:	b2db      	uxtb	r3, r3
 8002c60:	2b20      	cmp	r3, #32
 8002c62:	d120      	bne.n	8002ca6 <HAL_UART_Receive_IT+0x4c>
    if ((pData == NULL) || (Size == 0U))
 8002c64:	b309      	cbz	r1, 8002caa <HAL_UART_Receive_IT+0x50>
 8002c66:	b312      	cbz	r2, 8002cae <HAL_UART_Receive_IT+0x54>
    __HAL_LOCK(huart);
 8002c68:	f890 3038 	ldrb.w	r3, [r0, #56]	; 0x38
 8002c6c:	2b01      	cmp	r3, #1
 8002c6e:	d020      	beq.n	8002cb2 <HAL_UART_Receive_IT+0x58>
    huart->pRxBuffPtr = pData;
 8002c70:	6281      	str	r1, [r0, #40]	; 0x28
    huart->RxXferSize = Size;
 8002c72:	8582      	strh	r2, [r0, #44]	; 0x2c
    huart->RxXferCount = Size;
 8002c74:	85c2      	strh	r2, [r0, #46]	; 0x2e
    huart->ErrorCode = HAL_UART_ERROR_NONE;
 8002c76:	2300      	movs	r3, #0
 8002c78:	63c3      	str	r3, [r0, #60]	; 0x3c
    huart->RxState = HAL_UART_STATE_BUSY_RX;
 8002c7a:	2222      	movs	r2, #34	; 0x22
 8002c7c:	f880 203a 	strb.w	r2, [r0, #58]	; 0x3a
    __HAL_UNLOCK(huart);
 8002c80:	f880 3038 	strb.w	r3, [r0, #56]	; 0x38
    __HAL_UART_ENABLE_IT(huart, UART_IT_PE);
 8002c84:	6801      	ldr	r1, [r0, #0]
 8002c86:	68ca      	ldr	r2, [r1, #12]
 8002c88:	f442 7280 	orr.w	r2, r2, #256	; 0x100
 8002c8c:	60ca      	str	r2, [r1, #12]
    __HAL_UART_ENABLE_IT(huart, UART_IT_ERR);
 8002c8e:	6801      	ldr	r1, [r0, #0]
 8002c90:	694a      	ldr	r2, [r1, #20]
 8002c92:	f042 0201 	orr.w	r2, r2, #1
 8002c96:	614a      	str	r2, [r1, #20]
    __HAL_UART_ENABLE_IT(huart, UART_IT_RXNE);
 8002c98:	6801      	ldr	r1, [r0, #0]
 8002c9a:	68ca      	ldr	r2, [r1, #12]
 8002c9c:	f042 0220 	orr.w	r2, r2, #32
 8002ca0:	60ca      	str	r2, [r1, #12]
    return HAL_OK;
 8002ca2:	4618      	mov	r0, r3
 8002ca4:	4770      	bx	lr
    return HAL_BUSY;
 8002ca6:	2002      	movs	r0, #2
 8002ca8:	4770      	bx	lr
      return HAL_ERROR;
 8002caa:	2001      	movs	r0, #1
 8002cac:	4770      	bx	lr
 8002cae:	2001      	movs	r0, #1
 8002cb0:	4770      	bx	lr
    __HAL_LOCK(huart);
 8002cb2:	2002      	movs	r0, #2
}
 8002cb4:	4770      	bx	lr

08002cb6 <HAL_UART_TxCpltCallback>:
}
 8002cb6:	4770      	bx	lr

08002cb8 <UART_EndTransmit_IT>:
{
 8002cb8:	b508      	push	{r3, lr}
  __HAL_UART_DISABLE_IT(huart, UART_IT_TC);
 8002cba:	6801      	ldr	r1, [r0, #0]
 8002cbc:	68ca      	ldr	r2, [r1, #12]
 8002cbe:	f022 0240 	bic.w	r2, r2, #64	; 0x40
 8002cc2:	60ca      	str	r2, [r1, #12]
  huart->gState = HAL_UART_STATE_READY;
 8002cc4:	2220      	movs	r2, #32
 8002cc6:	f880 2039 	strb.w	r2, [r0, #57]	; 0x39
  HAL_UART_TxCpltCallback(huart);
 8002cca:	f7ff fff4 	bl	8002cb6 <HAL_UART_TxCpltCallback>
}
 8002cce:	2000      	movs	r0, #0
 8002cd0:	bd08      	pop	{r3, pc}

08002cd2 <UART_Receive_IT>:
{
 8002cd2:	b508      	push	{r3, lr}
  if (huart->RxState == HAL_UART_STATE_BUSY_RX)
 8002cd4:	f890 303a 	ldrb.w	r3, [r0, #58]	; 0x3a
 8002cd8:	b2db      	uxtb	r3, r3
 8002cda:	2b22      	cmp	r3, #34	; 0x22
 8002cdc:	d146      	bne.n	8002d6c <UART_Receive_IT+0x9a>
    if (huart->Init.WordLength == UART_WORDLENGTH_9B)
 8002cde:	6883      	ldr	r3, [r0, #8]
 8002ce0:	f5b3 5f80 	cmp.w	r3, #4096	; 0x1000
 8002ce4:	d00f      	beq.n	8002d06 <UART_Receive_IT+0x34>
      if (huart->Init.Parity == UART_PARITY_NONE)
 8002ce6:	6903      	ldr	r3, [r0, #16]
 8002ce8:	bb0b      	cbnz	r3, 8002d2e <UART_Receive_IT+0x5c>
        *huart->pRxBuffPtr++ = (uint8_t)(huart->Instance->DR & (uint8_t)0x00FF);
 8002cea:	6803      	ldr	r3, [r0, #0]
 8002cec:	685a      	ldr	r2, [r3, #4]
 8002cee:	6a83      	ldr	r3, [r0, #40]	; 0x28
 8002cf0:	1c59      	adds	r1, r3, #1
 8002cf2:	6281      	str	r1, [r0, #40]	; 0x28
 8002cf4:	701a      	strb	r2, [r3, #0]
    if (--huart->RxXferCount == 0U)
 8002cf6:	8dc3      	ldrh	r3, [r0, #46]	; 0x2e
 8002cf8:	b29b      	uxth	r3, r3
 8002cfa:	3b01      	subs	r3, #1
 8002cfc:	b29b      	uxth	r3, r3
 8002cfe:	85c3      	strh	r3, [r0, #46]	; 0x2e
 8002d00:	b1f3      	cbz	r3, 8002d40 <UART_Receive_IT+0x6e>
    return HAL_OK;
 8002d02:	2000      	movs	r0, #0
}
 8002d04:	bd08      	pop	{r3, pc}
      tmp = (uint16_t *) huart->pRxBuffPtr;
 8002d06:	6a82      	ldr	r2, [r0, #40]	; 0x28
      if (huart->Init.Parity == UART_PARITY_NONE)
 8002d08:	6903      	ldr	r3, [r0, #16]
 8002d0a:	b943      	cbnz	r3, 8002d1e <UART_Receive_IT+0x4c>
        *tmp = (uint16_t)(huart->Instance->DR & (uint16_t)0x01FF);
 8002d0c:	6803      	ldr	r3, [r0, #0]
 8002d0e:	685b      	ldr	r3, [r3, #4]
 8002d10:	f3c3 0308 	ubfx	r3, r3, #0, #9
 8002d14:	8013      	strh	r3, [r2, #0]
        huart->pRxBuffPtr += 2U;
 8002d16:	6a83      	ldr	r3, [r0, #40]	; 0x28
 8002d18:	3302      	adds	r3, #2
 8002d1a:	6283      	str	r3, [r0, #40]	; 0x28
 8002d1c:	e7eb      	b.n	8002cf6 <UART_Receive_IT+0x24>
        *tmp = (uint16_t)(huart->Instance->DR & (uint16_t)0x00FF);
 8002d1e:	6803      	ldr	r3, [r0, #0]
 8002d20:	685b      	ldr	r3, [r3, #4]
 8002d22:	b2db      	uxtb	r3, r3
 8002d24:	8013      	strh	r3, [r2, #0]
        huart->pRxBuffPtr += 1U;
 8002d26:	6a83      	ldr	r3, [r0, #40]	; 0x28
 8002d28:	3301      	adds	r3, #1
 8002d2a:	6283      	str	r3, [r0, #40]	; 0x28
 8002d2c:	e7e3      	b.n	8002cf6 <UART_Receive_IT+0x24>
        *huart->pRxBuffPtr++ = (uint8_t)(huart->Instance->DR & (uint8_t)0x007F);
 8002d2e:	6803      	ldr	r3, [r0, #0]
 8002d30:	685b      	ldr	r3, [r3, #4]
 8002d32:	6a82      	ldr	r2, [r0, #40]	; 0x28
 8002d34:	1c51      	adds	r1, r2, #1
 8002d36:	6281      	str	r1, [r0, #40]	; 0x28
 8002d38:	f003 037f 	and.w	r3, r3, #127	; 0x7f
 8002d3c:	7013      	strb	r3, [r2, #0]
 8002d3e:	e7da      	b.n	8002cf6 <UART_Receive_IT+0x24>
      __HAL_UART_DISABLE_IT(huart, UART_IT_RXNE);
 8002d40:	6802      	ldr	r2, [r0, #0]
 8002d42:	68d3      	ldr	r3, [r2, #12]
 8002d44:	f023 0320 	bic.w	r3, r3, #32
 8002d48:	60d3      	str	r3, [r2, #12]
      __HAL_UART_DISABLE_IT(huart, UART_IT_PE);
 8002d4a:	6802      	ldr	r2, [r0, #0]
 8002d4c:	68d3      	ldr	r3, [r2, #12]
 8002d4e:	f423 7380 	bic.w	r3, r3, #256	; 0x100
 8002d52:	60d3      	str	r3, [r2, #12]
      __HAL_UART_DISABLE_IT(huart, UART_IT_ERR);
 8002d54:	6802      	ldr	r2, [r0, #0]
 8002d56:	6953      	ldr	r3, [r2, #20]
 8002d58:	f023 0301 	bic.w	r3, r3, #1
 8002d5c:	6153      	str	r3, [r2, #20]
      huart->RxState = HAL_UART_STATE_READY;
 8002d5e:	2320      	movs	r3, #32
 8002d60:	f880 303a 	strb.w	r3, [r0, #58]	; 0x3a
      HAL_UART_RxCpltCallback(huart);
 8002d64:	f7fe f836 	bl	8000dd4 <HAL_UART_RxCpltCallback>
      return HAL_OK;
 8002d68:	2000      	movs	r0, #0
 8002d6a:	e7cb      	b.n	8002d04 <UART_Receive_IT+0x32>
    return HAL_BUSY;
 8002d6c:	2002      	movs	r0, #2
 8002d6e:	e7c9      	b.n	8002d04 <UART_Receive_IT+0x32>

08002d70 <HAL_UART_ErrorCallback>:
}
 8002d70:	4770      	bx	lr
	...

08002d74 <HAL_UART_IRQHandler>:
{
 8002d74:	b510      	push	{r4, lr}
 8002d76:	4604      	mov	r4, r0
  uint32_t isrflags   = READ_REG(huart->Instance->SR);
 8002d78:	6802      	ldr	r2, [r0, #0]
 8002d7a:	6813      	ldr	r3, [r2, #0]
  uint32_t cr1its     = READ_REG(huart->Instance->CR1);
 8002d7c:	68d1      	ldr	r1, [r2, #12]
  uint32_t cr3its     = READ_REG(huart->Instance->CR3);
 8002d7e:	6952      	ldr	r2, [r2, #20]
  if (errorflags == RESET)
 8002d80:	f013 000f 	ands.w	r0, r3, #15
 8002d84:	d105      	bne.n	8002d92 <HAL_UART_IRQHandler+0x1e>
    if (((isrflags & USART_SR_RXNE) != RESET) && ((cr1its & USART_CR1_RXNEIE) != RESET))
 8002d86:	f013 0f20 	tst.w	r3, #32
 8002d8a:	d002      	beq.n	8002d92 <HAL_UART_IRQHandler+0x1e>
 8002d8c:	f011 0f20 	tst.w	r1, #32
 8002d90:	d113      	bne.n	8002dba <HAL_UART_IRQHandler+0x46>
  if ((errorflags != RESET) && (((cr3its & USART_CR3_EIE) != RESET) || ((cr1its & (USART_CR1_RXNEIE | USART_CR1_PEIE)) != RESET)))
 8002d92:	b128      	cbz	r0, 8002da0 <HAL_UART_IRQHandler+0x2c>
 8002d94:	f012 0201 	ands.w	r2, r2, #1
 8002d98:	d113      	bne.n	8002dc2 <HAL_UART_IRQHandler+0x4e>
 8002d9a:	f411 7f90 	tst.w	r1, #288	; 0x120
 8002d9e:	d110      	bne.n	8002dc2 <HAL_UART_IRQHandler+0x4e>
  if (((isrflags & USART_SR_TXE) != RESET) && ((cr1its & USART_CR1_TXEIE) != RESET))
 8002da0:	f013 0f80 	tst.w	r3, #128	; 0x80
 8002da4:	d002      	beq.n	8002dac <HAL_UART_IRQHandler+0x38>
 8002da6:	f011 0f80 	tst.w	r1, #128	; 0x80
 8002daa:	d16c      	bne.n	8002e86 <HAL_UART_IRQHandler+0x112>
  if (((isrflags & USART_SR_TC) != RESET) && ((cr1its & USART_CR1_TCIE) != RESET))
 8002dac:	f013 0f40 	tst.w	r3, #64	; 0x40
 8002db0:	d002      	beq.n	8002db8 <HAL_UART_IRQHandler+0x44>
 8002db2:	f011 0f40 	tst.w	r1, #64	; 0x40
 8002db6:	d16a      	bne.n	8002e8e <HAL_UART_IRQHandler+0x11a>
}
 8002db8:	bd10      	pop	{r4, pc}
      UART_Receive_IT(huart);
 8002dba:	4620      	mov	r0, r4
 8002dbc:	f7ff ff89 	bl	8002cd2 <UART_Receive_IT>
      return;
 8002dc0:	e7fa      	b.n	8002db8 <HAL_UART_IRQHandler+0x44>
    if (((isrflags & USART_SR_PE) != RESET) && ((cr1its & USART_CR1_PEIE) != RESET))
 8002dc2:	f013 0f01 	tst.w	r3, #1
 8002dc6:	d006      	beq.n	8002dd6 <HAL_UART_IRQHandler+0x62>
 8002dc8:	f411 7f80 	tst.w	r1, #256	; 0x100
 8002dcc:	d003      	beq.n	8002dd6 <HAL_UART_IRQHandler+0x62>
      huart->ErrorCode |= HAL_UART_ERROR_PE;
 8002dce:	6be0      	ldr	r0, [r4, #60]	; 0x3c
 8002dd0:	f040 0001 	orr.w	r0, r0, #1
 8002dd4:	63e0      	str	r0, [r4, #60]	; 0x3c
    if (((isrflags & USART_SR_NE) != RESET) && ((cr3its & USART_CR3_EIE) != RESET))
 8002dd6:	f013 0f04 	tst.w	r3, #4
 8002dda:	d004      	beq.n	8002de6 <HAL_UART_IRQHandler+0x72>
 8002ddc:	b11a      	cbz	r2, 8002de6 <HAL_UART_IRQHandler+0x72>
      huart->ErrorCode |= HAL_UART_ERROR_NE;
 8002dde:	6be0      	ldr	r0, [r4, #60]	; 0x3c
 8002de0:	f040 0002 	orr.w	r0, r0, #2
 8002de4:	63e0      	str	r0, [r4, #60]	; 0x3c
    if (((isrflags & USART_SR_FE) != RESET) && ((cr3its & USART_CR3_EIE) != RESET))
 8002de6:	f013 0f02 	tst.w	r3, #2
 8002dea:	d004      	beq.n	8002df6 <HAL_UART_IRQHandler+0x82>
 8002dec:	b11a      	cbz	r2, 8002df6 <HAL_UART_IRQHandler+0x82>
      huart->ErrorCode |= HAL_UART_ERROR_FE;
 8002dee:	6be0      	ldr	r0, [r4, #60]	; 0x3c
 8002df0:	f040 0004 	orr.w	r0, r0, #4
 8002df4:	63e0      	str	r0, [r4, #60]	; 0x3c
    if (((isrflags & USART_SR_ORE) != RESET) && (((cr1its & USART_CR1_RXNEIE) != RESET) || ((cr3its & USART_CR3_EIE) != RESET)))
 8002df6:	f013 0f08 	tst.w	r3, #8
 8002dfa:	d007      	beq.n	8002e0c <HAL_UART_IRQHandler+0x98>
 8002dfc:	f011 0f20 	tst.w	r1, #32
 8002e00:	d100      	bne.n	8002e04 <HAL_UART_IRQHandler+0x90>
 8002e02:	b11a      	cbz	r2, 8002e0c <HAL_UART_IRQHandler+0x98>
      huart->ErrorCode |= HAL_UART_ERROR_ORE;
 8002e04:	6be2      	ldr	r2, [r4, #60]	; 0x3c
 8002e06:	f042 0208 	orr.w	r2, r2, #8
 8002e0a:	63e2      	str	r2, [r4, #60]	; 0x3c
    if (huart->ErrorCode != HAL_UART_ERROR_NONE)
 8002e0c:	6be2      	ldr	r2, [r4, #60]	; 0x3c
 8002e0e:	2a00      	cmp	r2, #0
 8002e10:	d0d2      	beq.n	8002db8 <HAL_UART_IRQHandler+0x44>
      if (((isrflags & USART_SR_RXNE) != RESET) && ((cr1its & USART_CR1_RXNEIE) != RESET))
 8002e12:	f013 0f20 	tst.w	r3, #32
 8002e16:	d002      	beq.n	8002e1e <HAL_UART_IRQHandler+0xaa>
 8002e18:	f011 0f20 	tst.w	r1, #32
 8002e1c:	d121      	bne.n	8002e62 <HAL_UART_IRQHandler+0xee>
      dmarequest = HAL_IS_BIT_SET(huart->Instance->CR3, USART_CR3_DMAR);
 8002e1e:	6823      	ldr	r3, [r4, #0]
 8002e20:	695b      	ldr	r3, [r3, #20]
 8002e22:	f003 0340 	and.w	r3, r3, #64	; 0x40
      if (((huart->ErrorCode & HAL_UART_ERROR_ORE) != RESET) || dmarequest)
 8002e26:	6be2      	ldr	r2, [r4, #60]	; 0x3c
 8002e28:	f012 0f08 	tst.w	r2, #8
 8002e2c:	d100      	bne.n	8002e30 <HAL_UART_IRQHandler+0xbc>
 8002e2e:	b323      	cbz	r3, 8002e7a <HAL_UART_IRQHandler+0x106>
        UART_EndRxTransfer(huart);
 8002e30:	4620      	mov	r0, r4
 8002e32:	f7ff fdad 	bl	8002990 <UART_EndRxTransfer>
        if (HAL_IS_BIT_SET(huart->Instance->CR3, USART_CR3_DMAR))
 8002e36:	6823      	ldr	r3, [r4, #0]
 8002e38:	695a      	ldr	r2, [r3, #20]
 8002e3a:	f012 0f40 	tst.w	r2, #64	; 0x40
 8002e3e:	d018      	beq.n	8002e72 <HAL_UART_IRQHandler+0xfe>
          CLEAR_BIT(huart->Instance->CR3, USART_CR3_DMAR);
 8002e40:	695a      	ldr	r2, [r3, #20]
 8002e42:	f022 0240 	bic.w	r2, r2, #64	; 0x40
 8002e46:	615a      	str	r2, [r3, #20]
          if (huart->hdmarx != NULL)
 8002e48:	6b63      	ldr	r3, [r4, #52]	; 0x34
 8002e4a:	b173      	cbz	r3, 8002e6a <HAL_UART_IRQHandler+0xf6>
            huart->hdmarx->XferAbortCallback = UART_DMAAbortOnError;
 8002e4c:	4a12      	ldr	r2, [pc, #72]	; (8002e98 <HAL_UART_IRQHandler+0x124>)
 8002e4e:	651a      	str	r2, [r3, #80]	; 0x50
            if (HAL_DMA_Abort_IT(huart->hdmarx) != HAL_OK)
 8002e50:	6b60      	ldr	r0, [r4, #52]	; 0x34
 8002e52:	f7fe fc22 	bl	800169a <HAL_DMA_Abort_IT>
 8002e56:	2800      	cmp	r0, #0
 8002e58:	d0ae      	beq.n	8002db8 <HAL_UART_IRQHandler+0x44>
              huart->hdmarx->XferAbortCallback(huart->hdmarx);
 8002e5a:	6b60      	ldr	r0, [r4, #52]	; 0x34
 8002e5c:	6d03      	ldr	r3, [r0, #80]	; 0x50
 8002e5e:	4798      	blx	r3
 8002e60:	e7aa      	b.n	8002db8 <HAL_UART_IRQHandler+0x44>
        UART_Receive_IT(huart);
 8002e62:	4620      	mov	r0, r4
 8002e64:	f7ff ff35 	bl	8002cd2 <UART_Receive_IT>
 8002e68:	e7d9      	b.n	8002e1e <HAL_UART_IRQHandler+0xaa>
            HAL_UART_ErrorCallback(huart);
 8002e6a:	4620      	mov	r0, r4
 8002e6c:	f7ff ff80 	bl	8002d70 <HAL_UART_ErrorCallback>
 8002e70:	e7a2      	b.n	8002db8 <HAL_UART_IRQHandler+0x44>
          HAL_UART_ErrorCallback(huart);
 8002e72:	4620      	mov	r0, r4
 8002e74:	f7ff ff7c 	bl	8002d70 <HAL_UART_ErrorCallback>
 8002e78:	e79e      	b.n	8002db8 <HAL_UART_IRQHandler+0x44>
        HAL_UART_ErrorCallback(huart);
 8002e7a:	4620      	mov	r0, r4
 8002e7c:	f7ff ff78 	bl	8002d70 <HAL_UART_ErrorCallback>
        huart->ErrorCode = HAL_UART_ERROR_NONE;
 8002e80:	2300      	movs	r3, #0
 8002e82:	63e3      	str	r3, [r4, #60]	; 0x3c
    return;
 8002e84:	e798      	b.n	8002db8 <HAL_UART_IRQHandler+0x44>
    UART_Transmit_IT(huart);
 8002e86:	4620      	mov	r0, r4
 8002e88:	f7ff fd90 	bl	80029ac <UART_Transmit_IT>
    return;
 8002e8c:	e794      	b.n	8002db8 <HAL_UART_IRQHandler+0x44>
    UART_EndTransmit_IT(huart);
 8002e8e:	4620      	mov	r0, r4
 8002e90:	f7ff ff12 	bl	8002cb8 <UART_EndTransmit_IT>
    return;
 8002e94:	e790      	b.n	8002db8 <HAL_UART_IRQHandler+0x44>
 8002e96:	bf00      	nop
 8002e98:	08002e9d 	.word	0x08002e9d

08002e9c <UART_DMAAbortOnError>:
{
 8002e9c:	b508      	push	{r3, lr}
  UART_HandleTypeDef *huart = (UART_HandleTypeDef *)((DMA_HandleTypeDef *)hdma)->Parent;
 8002e9e:	6b80      	ldr	r0, [r0, #56]	; 0x38
  huart->RxXferCount = 0x00U;
 8002ea0:	2300      	movs	r3, #0
 8002ea2:	85c3      	strh	r3, [r0, #46]	; 0x2e
  huart->TxXferCount = 0x00U;
 8002ea4:	84c3      	strh	r3, [r0, #38]	; 0x26
  HAL_UART_ErrorCallback(huart);
 8002ea6:	f7ff ff63 	bl	8002d70 <HAL_UART_ErrorCallback>
}
 8002eaa:	bd08      	pop	{r3, pc}

08002eac <Reset_Handler>:

    .section  .text.Reset_Handler
  .weak  Reset_Handler
  .type  Reset_Handler, %function
Reset_Handler:  
  ldr   sp, =_estack    		 /* set stack pointer */
 8002eac:	f8df d034 	ldr.w	sp, [pc, #52]	; 8002ee4 <LoopFillZerobss+0x14>

/* Copy the data segment initializers from flash to SRAM */  
  movs  r1, #0
 8002eb0:	2100      	movs	r1, #0
  b  LoopCopyDataInit
 8002eb2:	e003      	b.n	8002ebc <LoopCopyDataInit>

08002eb4 <CopyDataInit>:

CopyDataInit:
  ldr  r3, =_sidata
 8002eb4:	4b0c      	ldr	r3, [pc, #48]	; (8002ee8 <LoopFillZerobss+0x18>)
  ldr  r3, [r3, r1]
 8002eb6:	585b      	ldr	r3, [r3, r1]
  str  r3, [r0, r1]
 8002eb8:	5043      	str	r3, [r0, r1]
  adds  r1, r1, #4
 8002eba:	3104      	adds	r1, #4

08002ebc <LoopCopyDataInit>:
    
LoopCopyDataInit:
  ldr  r0, =_sdata
 8002ebc:	480b      	ldr	r0, [pc, #44]	; (8002eec <LoopFillZerobss+0x1c>)
  ldr  r3, =_edata
 8002ebe:	4b0c      	ldr	r3, [pc, #48]	; (8002ef0 <LoopFillZerobss+0x20>)
  adds  r2, r0, r1
 8002ec0:	1842      	adds	r2, r0, r1
  cmp  r2, r3
 8002ec2:	429a      	cmp	r2, r3
  bcc  CopyDataInit
 8002ec4:	d3f6      	bcc.n	8002eb4 <CopyDataInit>
  ldr  r2, =_sbss
 8002ec6:	4a0b      	ldr	r2, [pc, #44]	; (8002ef4 <LoopFillZerobss+0x24>)
  b  LoopFillZerobss
 8002ec8:	e002      	b.n	8002ed0 <LoopFillZerobss>

08002eca <FillZerobss>:
/* Zero fill the bss segment. */  
FillZerobss:
  movs  r3, #0
 8002eca:	2300      	movs	r3, #0
  str  r3, [r2], #4
 8002ecc:	f842 3b04 	str.w	r3, [r2], #4

08002ed0 <LoopFillZerobss>:
    
LoopFillZerobss:
  ldr  r3, = _ebss
 8002ed0:	4b09      	ldr	r3, [pc, #36]	; (8002ef8 <LoopFillZerobss+0x28>)
  cmp  r2, r3
 8002ed2:	429a      	cmp	r2, r3
  bcc  FillZerobss
 8002ed4:	d3f9      	bcc.n	8002eca <FillZerobss>

/* Call the clock system intitialization function.*/
  bl  SystemInit   
 8002ed6:	f7fe f991 	bl	80011fc <SystemInit>
/* Call static constructors */
    bl __libc_init_array
 8002eda:	f000 f817 	bl	8002f0c <__libc_init_array>
/* Call the application's entry point.*/
  bl  main
 8002ede:	f7fe f80d 	bl	8000efc <main>
  bx  lr    
 8002ee2:	4770      	bx	lr
  ldr   sp, =_estack    		 /* set stack pointer */
 8002ee4:	20020000 	.word	0x20020000
  ldr  r3, =_sidata
 8002ee8:	08003858 	.word	0x08003858
  ldr  r0, =_sdata
 8002eec:	20000000 	.word	0x20000000
  ldr  r3, =_edata
 8002ef0:	20000078 	.word	0x20000078
  ldr  r2, =_sbss
 8002ef4:	20000078 	.word	0x20000078
  ldr  r3, = _ebss
 8002ef8:	2000116c 	.word	0x2000116c

08002efc <ADC_IRQHandler>:
 * @retval None       
*/
    .section  .text.Default_Handler,"ax",%progbits
Default_Handler:
Infinite_Loop:
  b  Infinite_Loop
 8002efc:	e7fe      	b.n	8002efc <ADC_IRQHandler>
	...

08002f00 <__errno>:
 8002f00:	4b01      	ldr	r3, [pc, #4]	; (8002f08 <__errno+0x8>)
 8002f02:	6818      	ldr	r0, [r3, #0]
 8002f04:	4770      	bx	lr
 8002f06:	bf00      	nop
 8002f08:	20000010 	.word	0x20000010

08002f0c <__libc_init_array>:
 8002f0c:	b570      	push	{r4, r5, r6, lr}
 8002f0e:	4d0d      	ldr	r5, [pc, #52]	; (8002f44 <__libc_init_array+0x38>)
 8002f10:	4c0d      	ldr	r4, [pc, #52]	; (8002f48 <__libc_init_array+0x3c>)
 8002f12:	1b64      	subs	r4, r4, r5
 8002f14:	10a4      	asrs	r4, r4, #2
 8002f16:	2600      	movs	r6, #0
 8002f18:	42a6      	cmp	r6, r4
 8002f1a:	d109      	bne.n	8002f30 <__libc_init_array+0x24>
 8002f1c:	4d0b      	ldr	r5, [pc, #44]	; (8002f4c <__libc_init_array+0x40>)
 8002f1e:	4c0c      	ldr	r4, [pc, #48]	; (8002f50 <__libc_init_array+0x44>)
 8002f20:	f000 fc64 	bl	80037ec <_init>
 8002f24:	1b64      	subs	r4, r4, r5
 8002f26:	10a4      	asrs	r4, r4, #2
 8002f28:	2600      	movs	r6, #0
 8002f2a:	42a6      	cmp	r6, r4
 8002f2c:	d105      	bne.n	8002f3a <__libc_init_array+0x2e>
 8002f2e:	bd70      	pop	{r4, r5, r6, pc}
 8002f30:	f855 3b04 	ldr.w	r3, [r5], #4
 8002f34:	4798      	blx	r3
 8002f36:	3601      	adds	r6, #1
 8002f38:	e7ee      	b.n	8002f18 <__libc_init_array+0xc>
 8002f3a:	f855 3b04 	ldr.w	r3, [r5], #4
 8002f3e:	4798      	blx	r3
 8002f40:	3601      	adds	r6, #1
 8002f42:	e7f2      	b.n	8002f2a <__libc_init_array+0x1e>
 8002f44:	08003850 	.word	0x08003850
 8002f48:	08003850 	.word	0x08003850
 8002f4c:	08003850 	.word	0x08003850
 8002f50:	08003854 	.word	0x08003854

08002f54 <memset>:
 8002f54:	4402      	add	r2, r0
 8002f56:	4603      	mov	r3, r0
 8002f58:	4293      	cmp	r3, r2
 8002f5a:	d100      	bne.n	8002f5e <memset+0xa>
 8002f5c:	4770      	bx	lr
 8002f5e:	f803 1b01 	strb.w	r1, [r3], #1
 8002f62:	e7f9      	b.n	8002f58 <memset+0x4>

08002f64 <powf>:
 8002f64:	b508      	push	{r3, lr}
 8002f66:	ed2d 8b04 	vpush	{d8-d9}
 8002f6a:	eeb0 9a40 	vmov.f32	s18, s0
 8002f6e:	eef0 8a60 	vmov.f32	s17, s1
 8002f72:	f000 f88f 	bl	8003094 <__ieee754_powf>
 8002f76:	4b43      	ldr	r3, [pc, #268]	; (8003084 <powf+0x120>)
 8002f78:	f993 3000 	ldrsb.w	r3, [r3]
 8002f7c:	3301      	adds	r3, #1
 8002f7e:	eeb0 8a40 	vmov.f32	s16, s0
 8002f82:	d012      	beq.n	8002faa <powf+0x46>
 8002f84:	eef4 8a68 	vcmp.f32	s17, s17
 8002f88:	eef1 fa10 	vmrs	APSR_nzcv, fpscr
 8002f8c:	d60d      	bvs.n	8002faa <powf+0x46>
 8002f8e:	eeb4 9a49 	vcmp.f32	s18, s18
 8002f92:	eef1 fa10 	vmrs	APSR_nzcv, fpscr
 8002f96:	d70d      	bvc.n	8002fb4 <powf+0x50>
 8002f98:	eef5 8a40 	vcmp.f32	s17, #0.0
 8002f9c:	eef1 fa10 	vmrs	APSR_nzcv, fpscr
 8002fa0:	eef7 7a00 	vmov.f32	s15, #112	; 0x3f800000  1.0
 8002fa4:	bf08      	it	eq
 8002fa6:	eeb0 8a67 	vmoveq.f32	s16, s15
 8002faa:	eeb0 0a48 	vmov.f32	s0, s16
 8002fae:	ecbd 8b04 	vpop	{d8-d9}
 8002fb2:	bd08      	pop	{r3, pc}
 8002fb4:	eddf 9a34 	vldr	s19, [pc, #208]	; 8003088 <powf+0x124>
 8002fb8:	eeb4 9a69 	vcmp.f32	s18, s19
 8002fbc:	eef1 fa10 	vmrs	APSR_nzcv, fpscr
 8002fc0:	d116      	bne.n	8002ff0 <powf+0x8c>
 8002fc2:	eef4 8a69 	vcmp.f32	s17, s19
 8002fc6:	eef1 fa10 	vmrs	APSR_nzcv, fpscr
 8002fca:	d057      	beq.n	800307c <powf+0x118>
 8002fcc:	eeb0 0a68 	vmov.f32	s0, s17
 8002fd0:	f000 fb2a 	bl	8003628 <finitef>
 8002fd4:	2800      	cmp	r0, #0
 8002fd6:	d0e8      	beq.n	8002faa <powf+0x46>
 8002fd8:	eef4 8ae9 	vcmpe.f32	s17, s19
 8002fdc:	eef1 fa10 	vmrs	APSR_nzcv, fpscr
 8002fe0:	d5e3      	bpl.n	8002faa <powf+0x46>
 8002fe2:	f7ff ff8d 	bl	8002f00 <__errno>
 8002fe6:	2321      	movs	r3, #33	; 0x21
 8002fe8:	6003      	str	r3, [r0, #0]
 8002fea:	ed9f 8a28 	vldr	s16, [pc, #160]	; 800308c <powf+0x128>
 8002fee:	e7dc      	b.n	8002faa <powf+0x46>
 8002ff0:	f000 fb1a 	bl	8003628 <finitef>
 8002ff4:	bb50      	cbnz	r0, 800304c <powf+0xe8>
 8002ff6:	eeb0 0a49 	vmov.f32	s0, s18
 8002ffa:	f000 fb15 	bl	8003628 <finitef>
 8002ffe:	b328      	cbz	r0, 800304c <powf+0xe8>
 8003000:	eeb0 0a68 	vmov.f32	s0, s17
 8003004:	f000 fb10 	bl	8003628 <finitef>
 8003008:	b300      	cbz	r0, 800304c <powf+0xe8>
 800300a:	eeb4 8a48 	vcmp.f32	s16, s16
 800300e:	eef1 fa10 	vmrs	APSR_nzcv, fpscr
 8003012:	d706      	bvc.n	8003022 <powf+0xbe>
 8003014:	f7ff ff74 	bl	8002f00 <__errno>
 8003018:	2321      	movs	r3, #33	; 0x21
 800301a:	ee89 8aa9 	vdiv.f32	s16, s19, s19
 800301e:	6003      	str	r3, [r0, #0]
 8003020:	e7c3      	b.n	8002faa <powf+0x46>
 8003022:	f7ff ff6d 	bl	8002f00 <__errno>
 8003026:	eeb5 9ac0 	vcmpe.f32	s18, #0.0
 800302a:	2322      	movs	r3, #34	; 0x22
 800302c:	eef1 fa10 	vmrs	APSR_nzcv, fpscr
 8003030:	6003      	str	r3, [r0, #0]
 8003032:	d508      	bpl.n	8003046 <powf+0xe2>
 8003034:	eeb0 0a68 	vmov.f32	s0, s17
 8003038:	f000 fb0a 	bl	8003650 <rintf>
 800303c:	eeb4 0a68 	vcmp.f32	s0, s17
 8003040:	eef1 fa10 	vmrs	APSR_nzcv, fpscr
 8003044:	d1d1      	bne.n	8002fea <powf+0x86>
 8003046:	ed9f 8a12 	vldr	s16, [pc, #72]	; 8003090 <powf+0x12c>
 800304a:	e7ae      	b.n	8002faa <powf+0x46>
 800304c:	eeb5 8a40 	vcmp.f32	s16, #0.0
 8003050:	eef1 fa10 	vmrs	APSR_nzcv, fpscr
 8003054:	d1a9      	bne.n	8002faa <powf+0x46>
 8003056:	eeb0 0a49 	vmov.f32	s0, s18
 800305a:	f000 fae5 	bl	8003628 <finitef>
 800305e:	2800      	cmp	r0, #0
 8003060:	d0a3      	beq.n	8002faa <powf+0x46>
 8003062:	eeb0 0a68 	vmov.f32	s0, s17
 8003066:	f000 fadf 	bl	8003628 <finitef>
 800306a:	2800      	cmp	r0, #0
 800306c:	d09d      	beq.n	8002faa <powf+0x46>
 800306e:	f7ff ff47 	bl	8002f00 <__errno>
 8003072:	2322      	movs	r3, #34	; 0x22
 8003074:	ed9f 8a04 	vldr	s16, [pc, #16]	; 8003088 <powf+0x124>
 8003078:	6003      	str	r3, [r0, #0]
 800307a:	e796      	b.n	8002faa <powf+0x46>
 800307c:	eeb7 8a00 	vmov.f32	s16, #112	; 0x3f800000  1.0
 8003080:	e793      	b.n	8002faa <powf+0x46>
 8003082:	bf00      	nop
 8003084:	20000074 	.word	0x20000074
 8003088:	00000000 	.word	0x00000000
 800308c:	ff800000 	.word	0xff800000
 8003090:	7f800000 	.word	0x7f800000

08003094 <__ieee754_powf>:
 8003094:	e92d 41f0 	stmdb	sp!, {r4, r5, r6, r7, r8, lr}
 8003098:	ee10 5a90 	vmov	r5, s1
 800309c:	f035 4700 	bics.w	r7, r5, #2147483648	; 0x80000000
 80030a0:	ed2d 8b02 	vpush	{d8}
 80030a4:	eeb0 8a40 	vmov.f32	s16, s0
 80030a8:	eef0 8a60 	vmov.f32	s17, s1
 80030ac:	f000 8291 	beq.w	80035d2 <__ieee754_powf+0x53e>
 80030b0:	ee10 8a10 	vmov	r8, s0
 80030b4:	f028 4400 	bic.w	r4, r8, #2147483648	; 0x80000000
 80030b8:	f1b4 4fff 	cmp.w	r4, #2139095040	; 0x7f800000
 80030bc:	dc06      	bgt.n	80030cc <__ieee754_powf+0x38>
 80030be:	f1b7 4fff 	cmp.w	r7, #2139095040	; 0x7f800000
 80030c2:	dd0a      	ble.n	80030da <__ieee754_powf+0x46>
 80030c4:	f1b4 5f7e 	cmp.w	r4, #1065353216	; 0x3f800000
 80030c8:	f000 8283 	beq.w	80035d2 <__ieee754_powf+0x53e>
 80030cc:	ecbd 8b02 	vpop	{d8}
 80030d0:	48d8      	ldr	r0, [pc, #864]	; (8003434 <__ieee754_powf+0x3a0>)
 80030d2:	e8bd 41f0 	ldmia.w	sp!, {r4, r5, r6, r7, r8, lr}
 80030d6:	f000 bab5 	b.w	8003644 <nanf>
 80030da:	f1b8 0f00 	cmp.w	r8, #0
 80030de:	da1f      	bge.n	8003120 <__ieee754_powf+0x8c>
 80030e0:	f1b7 4f97 	cmp.w	r7, #1266679808	; 0x4b800000
 80030e4:	da2e      	bge.n	8003144 <__ieee754_powf+0xb0>
 80030e6:	f1b7 5f7e 	cmp.w	r7, #1065353216	; 0x3f800000
 80030ea:	f2c0 827b 	blt.w	80035e4 <__ieee754_powf+0x550>
 80030ee:	15fb      	asrs	r3, r7, #23
 80030f0:	f1c3 0396 	rsb	r3, r3, #150	; 0x96
 80030f4:	fa47 f603 	asr.w	r6, r7, r3
 80030f8:	fa06 f303 	lsl.w	r3, r6, r3
 80030fc:	42bb      	cmp	r3, r7
 80030fe:	f040 8271 	bne.w	80035e4 <__ieee754_powf+0x550>
 8003102:	f006 0601 	and.w	r6, r6, #1
 8003106:	f1c6 0602 	rsb	r6, r6, #2
 800310a:	f1b7 5f7e 	cmp.w	r7, #1065353216	; 0x3f800000
 800310e:	d120      	bne.n	8003152 <__ieee754_powf+0xbe>
 8003110:	2d00      	cmp	r5, #0
 8003112:	f280 8264 	bge.w	80035de <__ieee754_powf+0x54a>
 8003116:	eef7 7a00 	vmov.f32	s15, #112	; 0x3f800000  1.0
 800311a:	ee87 0a88 	vdiv.f32	s0, s15, s16
 800311e:	e00d      	b.n	800313c <__ieee754_powf+0xa8>
 8003120:	2600      	movs	r6, #0
 8003122:	f1b7 4fff 	cmp.w	r7, #2139095040	; 0x7f800000
 8003126:	d1f0      	bne.n	800310a <__ieee754_powf+0x76>
 8003128:	f1b4 5f7e 	cmp.w	r4, #1065353216	; 0x3f800000
 800312c:	f000 8251 	beq.w	80035d2 <__ieee754_powf+0x53e>
 8003130:	dd0a      	ble.n	8003148 <__ieee754_powf+0xb4>
 8003132:	2d00      	cmp	r5, #0
 8003134:	f280 8250 	bge.w	80035d8 <__ieee754_powf+0x544>
 8003138:	ed9f 0abf 	vldr	s0, [pc, #764]	; 8003438 <__ieee754_powf+0x3a4>
 800313c:	ecbd 8b02 	vpop	{d8}
 8003140:	e8bd 81f0 	ldmia.w	sp!, {r4, r5, r6, r7, r8, pc}
 8003144:	2602      	movs	r6, #2
 8003146:	e7ec      	b.n	8003122 <__ieee754_powf+0x8e>
 8003148:	2d00      	cmp	r5, #0
 800314a:	daf5      	bge.n	8003138 <__ieee754_powf+0xa4>
 800314c:	eeb1 0a68 	vneg.f32	s0, s17
 8003150:	e7f4      	b.n	800313c <__ieee754_powf+0xa8>
 8003152:	f1b5 4f80 	cmp.w	r5, #1073741824	; 0x40000000
 8003156:	d102      	bne.n	800315e <__ieee754_powf+0xca>
 8003158:	ee28 0a08 	vmul.f32	s0, s16, s16
 800315c:	e7ee      	b.n	800313c <__ieee754_powf+0xa8>
 800315e:	f1b5 5f7c 	cmp.w	r5, #1056964608	; 0x3f000000
 8003162:	eeb0 0a48 	vmov.f32	s0, s16
 8003166:	d108      	bne.n	800317a <__ieee754_powf+0xe6>
 8003168:	f1b8 0f00 	cmp.w	r8, #0
 800316c:	db05      	blt.n	800317a <__ieee754_powf+0xe6>
 800316e:	ecbd 8b02 	vpop	{d8}
 8003172:	e8bd 41f0 	ldmia.w	sp!, {r4, r5, r6, r7, r8, lr}
 8003176:	f000 ba4d 	b.w	8003614 <__ieee754_sqrtf>
 800317a:	f000 fa4e 	bl	800361a <fabsf>
 800317e:	b124      	cbz	r4, 800318a <__ieee754_powf+0xf6>
 8003180:	f028 4340 	bic.w	r3, r8, #3221225472	; 0xc0000000
 8003184:	f1b3 5f7e 	cmp.w	r3, #1065353216	; 0x3f800000
 8003188:	d117      	bne.n	80031ba <__ieee754_powf+0x126>
 800318a:	2d00      	cmp	r5, #0
 800318c:	bfbc      	itt	lt
 800318e:	eef7 7a00 	vmovlt.f32	s15, #112	; 0x3f800000  1.0
 8003192:	ee87 0a80 	vdivlt.f32	s0, s15, s0
 8003196:	f1b8 0f00 	cmp.w	r8, #0
 800319a:	dacf      	bge.n	800313c <__ieee754_powf+0xa8>
 800319c:	f1a4 547e 	sub.w	r4, r4, #1065353216	; 0x3f800000
 80031a0:	ea54 0306 	orrs.w	r3, r4, r6
 80031a4:	d104      	bne.n	80031b0 <__ieee754_powf+0x11c>
 80031a6:	ee70 7a40 	vsub.f32	s15, s0, s0
 80031aa:	ee87 0aa7 	vdiv.f32	s0, s15, s15
 80031ae:	e7c5      	b.n	800313c <__ieee754_powf+0xa8>
 80031b0:	2e01      	cmp	r6, #1
 80031b2:	d1c3      	bne.n	800313c <__ieee754_powf+0xa8>
 80031b4:	eeb1 0a40 	vneg.f32	s0, s0
 80031b8:	e7c0      	b.n	800313c <__ieee754_powf+0xa8>
 80031ba:	ea4f 70d8 	mov.w	r0, r8, lsr #31
 80031be:	3801      	subs	r0, #1
 80031c0:	ea56 0300 	orrs.w	r3, r6, r0
 80031c4:	d104      	bne.n	80031d0 <__ieee754_powf+0x13c>
 80031c6:	ee38 8a48 	vsub.f32	s16, s16, s16
 80031ca:	ee88 0a08 	vdiv.f32	s0, s16, s16
 80031ce:	e7b5      	b.n	800313c <__ieee754_powf+0xa8>
 80031d0:	f1b7 4f9a 	cmp.w	r7, #1291845632	; 0x4d000000
 80031d4:	dd6b      	ble.n	80032ae <__ieee754_powf+0x21a>
 80031d6:	4b99      	ldr	r3, [pc, #612]	; (800343c <__ieee754_powf+0x3a8>)
 80031d8:	429c      	cmp	r4, r3
 80031da:	dc06      	bgt.n	80031ea <__ieee754_powf+0x156>
 80031dc:	2d00      	cmp	r5, #0
 80031de:	daab      	bge.n	8003138 <__ieee754_powf+0xa4>
 80031e0:	ed9f 0a97 	vldr	s0, [pc, #604]	; 8003440 <__ieee754_powf+0x3ac>
 80031e4:	ee20 0a00 	vmul.f32	s0, s0, s0
 80031e8:	e7a8      	b.n	800313c <__ieee754_powf+0xa8>
 80031ea:	4b96      	ldr	r3, [pc, #600]	; (8003444 <__ieee754_powf+0x3b0>)
 80031ec:	429c      	cmp	r4, r3
 80031ee:	dd02      	ble.n	80031f6 <__ieee754_powf+0x162>
 80031f0:	2d00      	cmp	r5, #0
 80031f2:	dcf5      	bgt.n	80031e0 <__ieee754_powf+0x14c>
 80031f4:	e7a0      	b.n	8003138 <__ieee754_powf+0xa4>
 80031f6:	eef7 7a00 	vmov.f32	s15, #112	; 0x3f800000  1.0
 80031fa:	ee30 0a67 	vsub.f32	s0, s0, s15
 80031fe:	eddf 6a92 	vldr	s13, [pc, #584]	; 8003448 <__ieee754_powf+0x3b4>
 8003202:	eef5 7a00 	vmov.f32	s15, #80	; 0x3e800000  0.250
 8003206:	eee0 6a67 	vfms.f32	s13, s0, s15
 800320a:	eef6 7a00 	vmov.f32	s15, #96	; 0x3f000000  0.5
 800320e:	eee6 7ac0 	vfms.f32	s15, s13, s0
 8003212:	ee20 7a00 	vmul.f32	s14, s0, s0
 8003216:	ee67 7a27 	vmul.f32	s15, s14, s15
 800321a:	ed9f 7a8c 	vldr	s14, [pc, #560]	; 800344c <__ieee754_powf+0x3b8>
 800321e:	ee67 7a67 	vnmul.f32	s15, s14, s15
 8003222:	ed9f 7a8b 	vldr	s14, [pc, #556]	; 8003450 <__ieee754_powf+0x3bc>
 8003226:	eee0 7a07 	vfma.f32	s15, s0, s14
 800322a:	ed9f 7a8a 	vldr	s14, [pc, #552]	; 8003454 <__ieee754_powf+0x3c0>
 800322e:	eef0 6a67 	vmov.f32	s13, s15
 8003232:	eee0 6a07 	vfma.f32	s13, s0, s14
 8003236:	ee16 3a90 	vmov	r3, s13
 800323a:	f423 637f 	bic.w	r3, r3, #4080	; 0xff0
 800323e:	f023 030f 	bic.w	r3, r3, #15
 8003242:	ee00 3a90 	vmov	s1, r3
 8003246:	eee0 0a47 	vfms.f32	s1, s0, s14
 800324a:	ee77 7ae0 	vsub.f32	s15, s15, s1
 800324e:	f425 657f 	bic.w	r5, r5, #4080	; 0xff0
 8003252:	f025 050f 	bic.w	r5, r5, #15
 8003256:	ee07 5a10 	vmov	s14, r5
 800325a:	ee67 0aa8 	vmul.f32	s1, s15, s17
 800325e:	ee38 7ac7 	vsub.f32	s14, s17, s14
 8003262:	ee07 3a90 	vmov	s15, r3
 8003266:	eee7 0a27 	vfma.f32	s1, s14, s15
 800326a:	3e01      	subs	r6, #1
 800326c:	ea56 0200 	orrs.w	r2, r6, r0
 8003270:	ee07 5a10 	vmov	s14, r5
 8003274:	ee67 7a87 	vmul.f32	s15, s15, s14
 8003278:	eeb7 8a00 	vmov.f32	s16, #112	; 0x3f800000  1.0
 800327c:	ee30 7aa7 	vadd.f32	s14, s1, s15
 8003280:	eebf 0a00 	vmov.f32	s0, #240	; 0xbf800000 -1.0
 8003284:	ee17 4a10 	vmov	r4, s14
 8003288:	bf08      	it	eq
 800328a:	eeb0 8a40 	vmoveq.f32	s16, s0
 800328e:	2c00      	cmp	r4, #0
 8003290:	f024 4300 	bic.w	r3, r4, #2147483648	; 0x80000000
 8003294:	f340 8184 	ble.w	80035a0 <__ieee754_powf+0x50c>
 8003298:	f1b3 4f86 	cmp.w	r3, #1124073472	; 0x43000000
 800329c:	f340 80fc 	ble.w	8003498 <__ieee754_powf+0x404>
 80032a0:	eddf 7a67 	vldr	s15, [pc, #412]	; 8003440 <__ieee754_powf+0x3ac>
 80032a4:	ee28 0a27 	vmul.f32	s0, s16, s15
 80032a8:	ee20 0a27 	vmul.f32	s0, s0, s15
 80032ac:	e746      	b.n	800313c <__ieee754_powf+0xa8>
 80032ae:	f018 4fff 	tst.w	r8, #2139095040	; 0x7f800000
 80032b2:	bf01      	itttt	eq
 80032b4:	eddf 7a68 	vldreq	s15, [pc, #416]	; 8003458 <__ieee754_powf+0x3c4>
 80032b8:	ee60 7a27 	vmuleq.f32	s15, s0, s15
 80032bc:	f06f 0217 	mvneq.w	r2, #23
 80032c0:	ee17 4a90 	vmoveq	r4, s15
 80032c4:	ea4f 53e4 	mov.w	r3, r4, asr #23
 80032c8:	bf18      	it	ne
 80032ca:	2200      	movne	r2, #0
 80032cc:	3b7f      	subs	r3, #127	; 0x7f
 80032ce:	4413      	add	r3, r2
 80032d0:	4a62      	ldr	r2, [pc, #392]	; (800345c <__ieee754_powf+0x3c8>)
 80032d2:	f3c4 0416 	ubfx	r4, r4, #0, #23
 80032d6:	4294      	cmp	r4, r2
 80032d8:	f044 517e 	orr.w	r1, r4, #1065353216	; 0x3f800000
 80032dc:	dd06      	ble.n	80032ec <__ieee754_powf+0x258>
 80032de:	4a60      	ldr	r2, [pc, #384]	; (8003460 <__ieee754_powf+0x3cc>)
 80032e0:	4294      	cmp	r4, r2
 80032e2:	f340 80a4 	ble.w	800342e <__ieee754_powf+0x39a>
 80032e6:	3301      	adds	r3, #1
 80032e8:	f5a1 0100 	sub.w	r1, r1, #8388608	; 0x800000
 80032ec:	2400      	movs	r4, #0
 80032ee:	4a5d      	ldr	r2, [pc, #372]	; (8003464 <__ieee754_powf+0x3d0>)
 80032f0:	eb02 0284 	add.w	r2, r2, r4, lsl #2
 80032f4:	ee07 1a90 	vmov	s15, r1
 80032f8:	ed92 7a00 	vldr	s14, [r2]
 80032fc:	4a5a      	ldr	r2, [pc, #360]	; (8003468 <__ieee754_powf+0x3d4>)
 80032fe:	ee37 6a27 	vadd.f32	s12, s14, s15
 8003302:	eef7 5a00 	vmov.f32	s11, #112	; 0x3f800000  1.0
 8003306:	eec5 6a86 	vdiv.f32	s13, s11, s12
 800330a:	1049      	asrs	r1, r1, #1
 800330c:	f041 5100 	orr.w	r1, r1, #536870912	; 0x20000000
 8003310:	f501 2180 	add.w	r1, r1, #262144	; 0x40000
 8003314:	eb01 5144 	add.w	r1, r1, r4, lsl #21
 8003318:	ee37 5ac7 	vsub.f32	s10, s15, s14
 800331c:	ee06 1a10 	vmov	s12, r1
 8003320:	ee65 4a26 	vmul.f32	s9, s10, s13
 8003324:	ee36 7a47 	vsub.f32	s14, s12, s14
 8003328:	ee14 7a90 	vmov	r7, s9
 800332c:	4017      	ands	r7, r2
 800332e:	ee05 7a90 	vmov	s11, r7
 8003332:	eea5 5ac6 	vfms.f32	s10, s11, s12
 8003336:	ee77 7ac7 	vsub.f32	s15, s15, s14
 800333a:	ed9f 7a4c 	vldr	s14, [pc, #304]	; 800346c <__ieee754_powf+0x3d8>
 800333e:	eea5 5ae7 	vfms.f32	s10, s11, s15
 8003342:	ee64 7aa4 	vmul.f32	s15, s9, s9
 8003346:	ee25 6a26 	vmul.f32	s12, s10, s13
 800334a:	eddf 6a49 	vldr	s13, [pc, #292]	; 8003470 <__ieee754_powf+0x3dc>
 800334e:	eea7 7aa6 	vfma.f32	s14, s15, s13
 8003352:	eddf 6a48 	vldr	s13, [pc, #288]	; 8003474 <__ieee754_powf+0x3e0>
 8003356:	eee7 6a27 	vfma.f32	s13, s14, s15
 800335a:	ed9f 7a3b 	vldr	s14, [pc, #236]	; 8003448 <__ieee754_powf+0x3b4>
 800335e:	eea6 7aa7 	vfma.f32	s14, s13, s15
 8003362:	eddf 6a45 	vldr	s13, [pc, #276]	; 8003478 <__ieee754_powf+0x3e4>
 8003366:	eee7 6a27 	vfma.f32	s13, s14, s15
 800336a:	ed9f 7a44 	vldr	s14, [pc, #272]	; 800347c <__ieee754_powf+0x3e8>
 800336e:	eea6 7aa7 	vfma.f32	s14, s13, s15
 8003372:	ee74 6aa5 	vadd.f32	s13, s9, s11
 8003376:	ee27 5aa7 	vmul.f32	s10, s15, s15
 800337a:	ee66 6a86 	vmul.f32	s13, s13, s12
 800337e:	eee5 6a07 	vfma.f32	s13, s10, s14
 8003382:	eeb0 5a08 	vmov.f32	s10, #8	; 0x40400000  3.0
 8003386:	eef0 7a45 	vmov.f32	s15, s10
 800338a:	eee5 7aa5 	vfma.f32	s15, s11, s11
 800338e:	ee77 7aa6 	vadd.f32	s15, s15, s13
 8003392:	ee17 1a90 	vmov	r1, s15
 8003396:	4011      	ands	r1, r2
 8003398:	ee07 1a90 	vmov	s15, r1
 800339c:	ee37 7ac5 	vsub.f32	s14, s15, s10
 80033a0:	eea5 7ae5 	vfms.f32	s14, s11, s11
 80033a4:	ee36 7ac7 	vsub.f32	s14, s13, s14
 80033a8:	ee27 7a24 	vmul.f32	s14, s14, s9
 80033ac:	eea6 7a27 	vfma.f32	s14, s12, s15
 80033b0:	eeb0 6a47 	vmov.f32	s12, s14
 80033b4:	eea5 6aa7 	vfma.f32	s12, s11, s15
 80033b8:	ee16 1a10 	vmov	r1, s12
 80033bc:	4011      	ands	r1, r2
 80033be:	ee06 1a90 	vmov	s13, r1
 80033c2:	eee5 6ae7 	vfms.f32	s13, s11, s15
 80033c6:	eddf 7a2e 	vldr	s15, [pc, #184]	; 8003480 <__ieee754_powf+0x3ec>
 80033ca:	eddf 5a2e 	vldr	s11, [pc, #184]	; 8003484 <__ieee754_powf+0x3f0>
 80033ce:	ee37 7a66 	vsub.f32	s14, s14, s13
 80033d2:	ee06 1a10 	vmov	s12, r1
 80033d6:	ee27 7a27 	vmul.f32	s14, s14, s15
 80033da:	eddf 7a2b 	vldr	s15, [pc, #172]	; 8003488 <__ieee754_powf+0x3f4>
 80033de:	492b      	ldr	r1, [pc, #172]	; (800348c <__ieee754_powf+0x3f8>)
 80033e0:	eea6 7a27 	vfma.f32	s14, s12, s15
 80033e4:	eb01 0184 	add.w	r1, r1, r4, lsl #2
 80033e8:	edd1 7a00 	vldr	s15, [r1]
 80033ec:	ee37 7a27 	vadd.f32	s14, s14, s15
 80033f0:	ee07 3a90 	vmov	s15, r3
 80033f4:	4b26      	ldr	r3, [pc, #152]	; (8003490 <__ieee754_powf+0x3fc>)
 80033f6:	eef8 6ae7 	vcvt.f32.s32	s13, s15
 80033fa:	eef0 7a47 	vmov.f32	s15, s14
 80033fe:	eee6 7a25 	vfma.f32	s15, s12, s11
 8003402:	eb03 0484 	add.w	r4, r3, r4, lsl #2
 8003406:	edd4 0a00 	vldr	s1, [r4]
 800340a:	ee77 7aa0 	vadd.f32	s15, s15, s1
 800340e:	ee77 7aa6 	vadd.f32	s15, s15, s13
 8003412:	ee17 3a90 	vmov	r3, s15
 8003416:	4013      	ands	r3, r2
 8003418:	ee07 3a90 	vmov	s15, r3
 800341c:	ee77 6ae6 	vsub.f32	s13, s15, s13
 8003420:	ee76 6ae0 	vsub.f32	s13, s13, s1
 8003424:	eee6 6a65 	vfms.f32	s13, s12, s11
 8003428:	ee77 7a66 	vsub.f32	s15, s14, s13
 800342c:	e70f      	b.n	800324e <__ieee754_powf+0x1ba>
 800342e:	2401      	movs	r4, #1
 8003430:	e75d      	b.n	80032ee <__ieee754_powf+0x25a>
 8003432:	bf00      	nop
 8003434:	08003824 	.word	0x08003824
 8003438:	00000000 	.word	0x00000000
 800343c:	3f7ffff7 	.word	0x3f7ffff7
 8003440:	7149f2ca 	.word	0x7149f2ca
 8003444:	3f800007 	.word	0x3f800007
 8003448:	3eaaaaab 	.word	0x3eaaaaab
 800344c:	3fb8aa3b 	.word	0x3fb8aa3b
 8003450:	36eca570 	.word	0x36eca570
 8003454:	3fb8aa00 	.word	0x3fb8aa00
 8003458:	4b800000 	.word	0x4b800000
 800345c:	001cc471 	.word	0x001cc471
 8003460:	005db3d6 	.word	0x005db3d6
 8003464:	08003828 	.word	0x08003828
 8003468:	fffff000 	.word	0xfffff000
 800346c:	3e6c3255 	.word	0x3e6c3255
 8003470:	3e53f142 	.word	0x3e53f142
 8003474:	3e8ba305 	.word	0x3e8ba305
 8003478:	3edb6db7 	.word	0x3edb6db7
 800347c:	3f19999a 	.word	0x3f19999a
 8003480:	3f76384f 	.word	0x3f76384f
 8003484:	3f763800 	.word	0x3f763800
 8003488:	369dc3a0 	.word	0x369dc3a0
 800348c:	08003838 	.word	0x08003838
 8003490:	08003830 	.word	0x08003830
 8003494:	3338aa3c 	.word	0x3338aa3c
 8003498:	f040 8092 	bne.w	80035c0 <__ieee754_powf+0x52c>
 800349c:	ed5f 6a03 	vldr	s13, [pc, #-12]	; 8003494 <__ieee754_powf+0x400>
 80034a0:	ee37 7a67 	vsub.f32	s14, s14, s15
 80034a4:	ee70 6aa6 	vadd.f32	s13, s1, s13
 80034a8:	eef4 6ac7 	vcmpe.f32	s13, s14
 80034ac:	eef1 fa10 	vmrs	APSR_nzcv, fpscr
 80034b0:	f73f aef6 	bgt.w	80032a0 <__ieee754_powf+0x20c>
 80034b4:	15db      	asrs	r3, r3, #23
 80034b6:	f1a3 007e 	sub.w	r0, r3, #126	; 0x7e
 80034ba:	f44f 0300 	mov.w	r3, #8388608	; 0x800000
 80034be:	4103      	asrs	r3, r0
 80034c0:	4423      	add	r3, r4
 80034c2:	4949      	ldr	r1, [pc, #292]	; (80035e8 <__ieee754_powf+0x554>)
 80034c4:	f3c3 52c7 	ubfx	r2, r3, #23, #8
 80034c8:	3a7f      	subs	r2, #127	; 0x7f
 80034ca:	4111      	asrs	r1, r2
 80034cc:	ea23 0101 	bic.w	r1, r3, r1
 80034d0:	ee07 1a10 	vmov	s14, r1
 80034d4:	f3c3 0016 	ubfx	r0, r3, #0, #23
 80034d8:	f440 0000 	orr.w	r0, r0, #8388608	; 0x800000
 80034dc:	f1c2 0217 	rsb	r2, r2, #23
 80034e0:	4110      	asrs	r0, r2
 80034e2:	2c00      	cmp	r4, #0
 80034e4:	ee77 7ac7 	vsub.f32	s15, s15, s14
 80034e8:	bfb8      	it	lt
 80034ea:	4240      	neglt	r0, r0
 80034ec:	ee37 7aa0 	vadd.f32	s14, s15, s1
 80034f0:	eddf 6a3e 	vldr	s13, [pc, #248]	; 80035ec <__ieee754_powf+0x558>
 80034f4:	ee17 3a10 	vmov	r3, s14
 80034f8:	f423 637f 	bic.w	r3, r3, #4080	; 0xff0
 80034fc:	f023 030f 	bic.w	r3, r3, #15
 8003500:	ee07 3a10 	vmov	s14, r3
 8003504:	ee77 7a67 	vsub.f32	s15, s14, s15
 8003508:	ee70 0ae7 	vsub.f32	s1, s1, s15
 800350c:	eddf 7a38 	vldr	s15, [pc, #224]	; 80035f0 <__ieee754_powf+0x55c>
 8003510:	ee67 7a27 	vmul.f32	s15, s14, s15
 8003514:	eee0 7aa6 	vfma.f32	s15, s1, s13
 8003518:	eddf 6a36 	vldr	s13, [pc, #216]	; 80035f4 <__ieee754_powf+0x560>
 800351c:	eeb0 0a67 	vmov.f32	s0, s15
 8003520:	eea7 0a26 	vfma.f32	s0, s14, s13
 8003524:	eeb0 6a40 	vmov.f32	s12, s0
 8003528:	eea7 6a66 	vfms.f32	s12, s14, s13
 800352c:	ee20 7a00 	vmul.f32	s14, s0, s0
 8003530:	ee77 7ac6 	vsub.f32	s15, s15, s12
 8003534:	eddf 6a30 	vldr	s13, [pc, #192]	; 80035f8 <__ieee754_powf+0x564>
 8003538:	ed9f 6a30 	vldr	s12, [pc, #192]	; 80035fc <__ieee754_powf+0x568>
 800353c:	eea7 6a26 	vfma.f32	s12, s14, s13
 8003540:	eddf 6a2f 	vldr	s13, [pc, #188]	; 8003600 <__ieee754_powf+0x56c>
 8003544:	eee6 6a07 	vfma.f32	s13, s12, s14
 8003548:	ed9f 6a2e 	vldr	s12, [pc, #184]	; 8003604 <__ieee754_powf+0x570>
 800354c:	eea6 6a87 	vfma.f32	s12, s13, s14
 8003550:	eddf 6a2d 	vldr	s13, [pc, #180]	; 8003608 <__ieee754_powf+0x574>
 8003554:	eee6 6a07 	vfma.f32	s13, s12, s14
 8003558:	eeb0 6a40 	vmov.f32	s12, s0
 800355c:	eea6 6ac7 	vfms.f32	s12, s13, s14
 8003560:	eef0 6a00 	vmov.f32	s13, #0	; 0x40000000  2.0
 8003564:	eeb0 7a46 	vmov.f32	s14, s12
 8003568:	ee77 6a66 	vsub.f32	s13, s14, s13
 800356c:	ee20 6a06 	vmul.f32	s12, s0, s12
 8003570:	eee0 7a27 	vfma.f32	s15, s0, s15
 8003574:	ee86 7a26 	vdiv.f32	s14, s12, s13
 8003578:	ee77 7a67 	vsub.f32	s15, s14, s15
 800357c:	ee37 0ac0 	vsub.f32	s0, s15, s0
 8003580:	eef7 7a00 	vmov.f32	s15, #112	; 0x3f800000  1.0
 8003584:	ee37 0ac0 	vsub.f32	s0, s15, s0
 8003588:	ee10 3a10 	vmov	r3, s0
 800358c:	eb03 53c0 	add.w	r3, r3, r0, lsl #23
 8003590:	f5b3 0f00 	cmp.w	r3, #8388608	; 0x800000
 8003594:	da1a      	bge.n	80035cc <__ieee754_powf+0x538>
 8003596:	f000 f8b7 	bl	8003708 <scalbnf>
 800359a:	ee20 0a08 	vmul.f32	s0, s0, s16
 800359e:	e5cd      	b.n	800313c <__ieee754_powf+0xa8>
 80035a0:	4a1a      	ldr	r2, [pc, #104]	; (800360c <__ieee754_powf+0x578>)
 80035a2:	4293      	cmp	r3, r2
 80035a4:	dd02      	ble.n	80035ac <__ieee754_powf+0x518>
 80035a6:	eddf 7a1a 	vldr	s15, [pc, #104]	; 8003610 <__ieee754_powf+0x57c>
 80035aa:	e67b      	b.n	80032a4 <__ieee754_powf+0x210>
 80035ac:	d108      	bne.n	80035c0 <__ieee754_powf+0x52c>
 80035ae:	ee37 7a67 	vsub.f32	s14, s14, s15
 80035b2:	eeb4 7ae0 	vcmpe.f32	s14, s1
 80035b6:	eef1 fa10 	vmrs	APSR_nzcv, fpscr
 80035ba:	f6ff af7b 	blt.w	80034b4 <__ieee754_powf+0x420>
 80035be:	e7f2      	b.n	80035a6 <__ieee754_powf+0x512>
 80035c0:	f1b3 5f7c 	cmp.w	r3, #1056964608	; 0x3f000000
 80035c4:	f73f af76 	bgt.w	80034b4 <__ieee754_powf+0x420>
 80035c8:	2000      	movs	r0, #0
 80035ca:	e78f      	b.n	80034ec <__ieee754_powf+0x458>
 80035cc:	ee00 3a10 	vmov	s0, r3
 80035d0:	e7e3      	b.n	800359a <__ieee754_powf+0x506>
 80035d2:	eeb7 0a00 	vmov.f32	s0, #112	; 0x3f800000  1.0
 80035d6:	e5b1      	b.n	800313c <__ieee754_powf+0xa8>
 80035d8:	eeb0 0a68 	vmov.f32	s0, s17
 80035dc:	e5ae      	b.n	800313c <__ieee754_powf+0xa8>
 80035de:	eeb0 0a48 	vmov.f32	s0, s16
 80035e2:	e5ab      	b.n	800313c <__ieee754_powf+0xa8>
 80035e4:	2600      	movs	r6, #0
 80035e6:	e590      	b.n	800310a <__ieee754_powf+0x76>
 80035e8:	007fffff 	.word	0x007fffff
 80035ec:	3f317218 	.word	0x3f317218
 80035f0:	35bfbe8c 	.word	0x35bfbe8c
 80035f4:	3f317200 	.word	0x3f317200
 80035f8:	3331bb4c 	.word	0x3331bb4c
 80035fc:	b5ddea0e 	.word	0xb5ddea0e
 8003600:	388ab355 	.word	0x388ab355
 8003604:	bb360b61 	.word	0xbb360b61
 8003608:	3e2aaaab 	.word	0x3e2aaaab
 800360c:	43160000 	.word	0x43160000
 8003610:	0da24260 	.word	0x0da24260

08003614 <__ieee754_sqrtf>:
 8003614:	eeb1 0ac0 	vsqrt.f32	s0, s0
 8003618:	4770      	bx	lr

0800361a <fabsf>:
 800361a:	ee10 3a10 	vmov	r3, s0
 800361e:	f023 4300 	bic.w	r3, r3, #2147483648	; 0x80000000
 8003622:	ee00 3a10 	vmov	s0, r3
 8003626:	4770      	bx	lr

08003628 <finitef>:
 8003628:	b082      	sub	sp, #8
 800362a:	ed8d 0a01 	vstr	s0, [sp, #4]
 800362e:	9801      	ldr	r0, [sp, #4]
 8003630:	f020 4000 	bic.w	r0, r0, #2147483648	; 0x80000000
 8003634:	f1b0 4fff 	cmp.w	r0, #2139095040	; 0x7f800000
 8003638:	bfac      	ite	ge
 800363a:	2000      	movge	r0, #0
 800363c:	2001      	movlt	r0, #1
 800363e:	b002      	add	sp, #8
 8003640:	4770      	bx	lr
	...

08003644 <nanf>:
 8003644:	ed9f 0a01 	vldr	s0, [pc, #4]	; 800364c <nanf+0x8>
 8003648:	4770      	bx	lr
 800364a:	bf00      	nop
 800364c:	7fc00000 	.word	0x7fc00000

08003650 <rintf>:
 8003650:	ee10 2a10 	vmov	r2, s0
 8003654:	b513      	push	{r0, r1, r4, lr}
 8003656:	f3c2 51c7 	ubfx	r1, r2, #23, #8
 800365a:	397f      	subs	r1, #127	; 0x7f
 800365c:	2916      	cmp	r1, #22
 800365e:	f022 4300 	bic.w	r3, r2, #2147483648	; 0x80000000
 8003662:	dc47      	bgt.n	80036f4 <rintf+0xa4>
 8003664:	b32b      	cbz	r3, 80036b2 <rintf+0x62>
 8003666:	2900      	cmp	r1, #0
 8003668:	ee10 3a10 	vmov	r3, s0
 800366c:	ea4f 70d2 	mov.w	r0, r2, lsr #31
 8003670:	da21      	bge.n	80036b6 <rintf+0x66>
 8003672:	f3c2 0316 	ubfx	r3, r2, #0, #23
 8003676:	425b      	negs	r3, r3
 8003678:	4921      	ldr	r1, [pc, #132]	; (8003700 <rintf+0xb0>)
 800367a:	0a5b      	lsrs	r3, r3, #9
 800367c:	0d12      	lsrs	r2, r2, #20
 800367e:	f403 0380 	and.w	r3, r3, #4194304	; 0x400000
 8003682:	0512      	lsls	r2, r2, #20
 8003684:	4313      	orrs	r3, r2
 8003686:	eb01 0180 	add.w	r1, r1, r0, lsl #2
 800368a:	ee07 3a90 	vmov	s15, r3
 800368e:	edd1 6a00 	vldr	s13, [r1]
 8003692:	ee36 7aa7 	vadd.f32	s14, s13, s15
 8003696:	ed8d 7a01 	vstr	s14, [sp, #4]
 800369a:	eddd 7a01 	vldr	s15, [sp, #4]
 800369e:	ee77 7ae6 	vsub.f32	s15, s15, s13
 80036a2:	ee17 3a90 	vmov	r3, s15
 80036a6:	f023 4300 	bic.w	r3, r3, #2147483648	; 0x80000000
 80036aa:	ea43 73c0 	orr.w	r3, r3, r0, lsl #31
 80036ae:	ee00 3a10 	vmov	s0, r3
 80036b2:	b002      	add	sp, #8
 80036b4:	bd10      	pop	{r4, pc}
 80036b6:	4a13      	ldr	r2, [pc, #76]	; (8003704 <rintf+0xb4>)
 80036b8:	410a      	asrs	r2, r1
 80036ba:	4213      	tst	r3, r2
 80036bc:	d0f9      	beq.n	80036b2 <rintf+0x62>
 80036be:	0854      	lsrs	r4, r2, #1
 80036c0:	ea13 0252 	ands.w	r2, r3, r2, lsr #1
 80036c4:	d006      	beq.n	80036d4 <rintf+0x84>
 80036c6:	f44f 1200 	mov.w	r2, #2097152	; 0x200000
 80036ca:	ea23 0304 	bic.w	r3, r3, r4
 80036ce:	fa42 f101 	asr.w	r1, r2, r1
 80036d2:	430b      	orrs	r3, r1
 80036d4:	4a0a      	ldr	r2, [pc, #40]	; (8003700 <rintf+0xb0>)
 80036d6:	eb02 0080 	add.w	r0, r2, r0, lsl #2
 80036da:	ed90 7a00 	vldr	s14, [r0]
 80036de:	ee07 3a90 	vmov	s15, r3
 80036e2:	ee77 7a27 	vadd.f32	s15, s14, s15
 80036e6:	edcd 7a01 	vstr	s15, [sp, #4]
 80036ea:	ed9d 0a01 	vldr	s0, [sp, #4]
 80036ee:	ee30 0a47 	vsub.f32	s0, s0, s14
 80036f2:	e7de      	b.n	80036b2 <rintf+0x62>
 80036f4:	f1b3 4fff 	cmp.w	r3, #2139095040	; 0x7f800000
 80036f8:	d3db      	bcc.n	80036b2 <rintf+0x62>
 80036fa:	ee30 0a00 	vadd.f32	s0, s0, s0
 80036fe:	e7d8      	b.n	80036b2 <rintf+0x62>
 8003700:	08003840 	.word	0x08003840
 8003704:	007fffff 	.word	0x007fffff

08003708 <scalbnf>:
 8003708:	ee10 3a10 	vmov	r3, s0
 800370c:	f033 4200 	bics.w	r2, r3, #2147483648	; 0x80000000
 8003710:	d025      	beq.n	800375e <scalbnf+0x56>
 8003712:	f1b2 4fff 	cmp.w	r2, #2139095040	; 0x7f800000
 8003716:	d302      	bcc.n	800371e <scalbnf+0x16>
 8003718:	ee30 0a00 	vadd.f32	s0, s0, s0
 800371c:	4770      	bx	lr
 800371e:	f013 4fff 	tst.w	r3, #2139095040	; 0x7f800000
 8003722:	d122      	bne.n	800376a <scalbnf+0x62>
 8003724:	4b2a      	ldr	r3, [pc, #168]	; (80037d0 <scalbnf+0xc8>)
 8003726:	eddf 7a2b 	vldr	s15, [pc, #172]	; 80037d4 <scalbnf+0xcc>
 800372a:	4298      	cmp	r0, r3
 800372c:	ee20 0a27 	vmul.f32	s0, s0, s15
 8003730:	db16      	blt.n	8003760 <scalbnf+0x58>
 8003732:	ee10 3a10 	vmov	r3, s0
 8003736:	f3c3 52c7 	ubfx	r2, r3, #23, #8
 800373a:	3a19      	subs	r2, #25
 800373c:	4402      	add	r2, r0
 800373e:	2afe      	cmp	r2, #254	; 0xfe
 8003740:	dd15      	ble.n	800376e <scalbnf+0x66>
 8003742:	ee10 3a10 	vmov	r3, s0
 8003746:	eddf 7a24 	vldr	s15, [pc, #144]	; 80037d8 <scalbnf+0xd0>
 800374a:	eddf 6a24 	vldr	s13, [pc, #144]	; 80037dc <scalbnf+0xd4>
 800374e:	2b00      	cmp	r3, #0
 8003750:	eeb0 7a67 	vmov.f32	s14, s15
 8003754:	bfb8      	it	lt
 8003756:	eef0 7a66 	vmovlt.f32	s15, s13
 800375a:	ee27 0a27 	vmul.f32	s0, s14, s15
 800375e:	4770      	bx	lr
 8003760:	eddf 7a1f 	vldr	s15, [pc, #124]	; 80037e0 <scalbnf+0xd8>
 8003764:	ee20 0a27 	vmul.f32	s0, s0, s15
 8003768:	4770      	bx	lr
 800376a:	0dd2      	lsrs	r2, r2, #23
 800376c:	e7e6      	b.n	800373c <scalbnf+0x34>
 800376e:	2a00      	cmp	r2, #0
 8003770:	dd06      	ble.n	8003780 <scalbnf+0x78>
 8003772:	f023 43ff 	bic.w	r3, r3, #2139095040	; 0x7f800000
 8003776:	ea43 53c2 	orr.w	r3, r3, r2, lsl #23
 800377a:	ee00 3a10 	vmov	s0, r3
 800377e:	4770      	bx	lr
 8003780:	f112 0f16 	cmn.w	r2, #22
 8003784:	da1a      	bge.n	80037bc <scalbnf+0xb4>
 8003786:	f24c 3350 	movw	r3, #50000	; 0xc350
 800378a:	4298      	cmp	r0, r3
 800378c:	ee10 3a10 	vmov	r3, s0
 8003790:	f003 4300 	and.w	r3, r3, #2147483648	; 0x80000000
 8003794:	dd0a      	ble.n	80037ac <scalbnf+0xa4>
 8003796:	ed9f 0a10 	vldr	s0, [pc, #64]	; 80037d8 <scalbnf+0xd0>
 800379a:	ed9f 7a10 	vldr	s14, [pc, #64]	; 80037dc <scalbnf+0xd4>
 800379e:	eef0 7a40 	vmov.f32	s15, s0
 80037a2:	2b00      	cmp	r3, #0
 80037a4:	bf18      	it	ne
 80037a6:	eeb0 0a47 	vmovne.f32	s0, s14
 80037aa:	e7db      	b.n	8003764 <scalbnf+0x5c>
 80037ac:	ed9f 0a0c 	vldr	s0, [pc, #48]	; 80037e0 <scalbnf+0xd8>
 80037b0:	ed9f 7a0c 	vldr	s14, [pc, #48]	; 80037e4 <scalbnf+0xdc>
 80037b4:	eef0 7a40 	vmov.f32	s15, s0
 80037b8:	2b00      	cmp	r3, #0
 80037ba:	e7f3      	b.n	80037a4 <scalbnf+0x9c>
 80037bc:	3219      	adds	r2, #25
 80037be:	f023 43ff 	bic.w	r3, r3, #2139095040	; 0x7f800000
 80037c2:	ea43 53c2 	orr.w	r3, r3, r2, lsl #23
 80037c6:	eddf 7a08 	vldr	s15, [pc, #32]	; 80037e8 <scalbnf+0xe0>
 80037ca:	ee07 3a10 	vmov	s14, r3
 80037ce:	e7c4      	b.n	800375a <scalbnf+0x52>
 80037d0:	ffff3cb0 	.word	0xffff3cb0
 80037d4:	4c000000 	.word	0x4c000000
 80037d8:	7149f2ca 	.word	0x7149f2ca
 80037dc:	f149f2ca 	.word	0xf149f2ca
 80037e0:	0da24260 	.word	0x0da24260
 80037e4:	8da24260 	.word	0x8da24260
 80037e8:	33000000 	.word	0x33000000

080037ec <_init>:
 80037ec:	b5f8      	push	{r3, r4, r5, r6, r7, lr}
 80037ee:	bf00      	nop
 80037f0:	bcf8      	pop	{r3, r4, r5, r6, r7}
 80037f2:	bc08      	pop	{r3}
 80037f4:	469e      	mov	lr, r3
 80037f6:	4770      	bx	lr

080037f8 <_fini>:
 80037f8:	b5f8      	push	{r3, r4, r5, r6, r7, lr}
 80037fa:	bf00      	nop
 80037fc:	bcf8      	pop	{r3, r4, r5, r6, r7}
 80037fe:	bc08      	pop	{r3}
 8003800:	469e      	mov	lr, r3
 8003802:	4770      	bx	lr
